                                      1 ;--------------------------------------------------------
                                      2 ; File Created by SDCC : free open source ANSI-C Compiler
                                      3 ; Version 4.1.6 #12533 (MINGW32)
                                      4 ;--------------------------------------------------------
                                      5 	.module 02_rooms_gfx_data1_1
                                      6 	.optsdcc -mgbz80
                                      7 	
                                      8 ;--------------------------------------------------------
                                      9 ; Public variables in this module
                                     10 ;--------------------------------------------------------
                                     11 	.globl _room_5_1_tiles
                                     12 	.globl _room_5_1_coll
                                     13 	.globl _room_5_1_map
                                     14 	.globl _room_4_1_tiles
                                     15 	.globl _room_4_1_coll
                                     16 	.globl _room_4_1_map
                                     17 	.globl _enemies_34_1_tiles
                                     18 	.globl _room_3_1_tiles
                                     19 	.globl _room_3_1_coll
                                     20 	.globl _room_3_1_map
                                     21 	.globl _daisy_gets_mushrooms
                                     22 	.globl _vcoll_daisy
                                     23 	.globl _hcoll_mushroom
                                     24 	.globl _reset_room5_1
                                     25 	.globl _vcoll_troll
                                     26 	.globl _hcoll_float4
                                     27 	.globl _hcoll_float3
                                     28 	.globl _draw_float4
                                     29 	.globl _draw_float3
                                     30 	.globl _move_float
                                     31 	.globl _init_room34
                                     32 	.globl _reset_room4
                                     33 	.globl _multiple_move_sprites_limits
                                     34 	.globl _default_drop
                                     35 	.globl _show_coins
                                     36 	.globl _sub_coins
                                     37 	.globl _get_v_coll
                                     38 	.globl _get_h_coll
                                     39 	.globl _show_dialog_window
                                     40 	.globl _set_sprite_data
                                     41 	.globl _float4_dir
                                     42 	.globl _float4_pos_x
                                     43 	.globl _float3_dir
                                     44 	.globl _float3_pos_x
                                     45 	.globl _float4_move
                                     46 	.globl _float3_move
                                     47 	.globl _float_move_timer
                                     48 	.globl _dasy_negotiated
                                     49 	.globl _troll_negotiated
                                     50 	.globl _troll_satisfied
                                     51 	.globl _float_offsets_r4
                                     52 	.globl _float_offsets_r3
                                     53 ;--------------------------------------------------------
                                     54 ; special function registers
                                     55 ;--------------------------------------------------------
                                     56 ;--------------------------------------------------------
                                     57 ; ram data
                                     58 ;--------------------------------------------------------
                                     59 	.area _DATA
      000000                         60 _troll_satisfied::
      000000                         61 	.ds 1
      000001                         62 _troll_negotiated::
      000001                         63 	.ds 1
      000002                         64 _dasy_negotiated::
      000002                         65 	.ds 1
                                     66 ;--------------------------------------------------------
                                     67 ; ram data
                                     68 ;--------------------------------------------------------
                                     69 	.area _INITIALIZED
      000000                         70 _float_move_timer::
      000000                         71 	.ds 1
      000001                         72 _float3_move::
      000001                         73 	.ds 1
      000002                         74 _float4_move::
      000002                         75 	.ds 1
      000003                         76 _float3_pos_x::
      000003                         77 	.ds 2
      000005                         78 _float3_dir::
      000005                         79 	.ds 2
      000007                         80 _float4_pos_x::
      000007                         81 	.ds 2
      000009                         82 _float4_dir::
      000009                         83 	.ds 2
                                     84 ;--------------------------------------------------------
                                     85 ; absolute external ram data
                                     86 ;--------------------------------------------------------
                                     87 	.area _DABS (ABS)
                                     88 ;--------------------------------------------------------
                                     89 ; global & static initialisations
                                     90 ;--------------------------------------------------------
                                     91 	.area _HOME
                                     92 	.area _GSINIT
                                     93 	.area _GSFINAL
                                     94 	.area _GSINIT
                                     95 ;--------------------------------------------------------
                                     96 ; Home
                                     97 ;--------------------------------------------------------
                                     98 	.area _HOME
                                     99 	.area _HOME
                                    100 ;--------------------------------------------------------
                                    101 ; code
                                    102 ;--------------------------------------------------------
                                    103 	.area _CODE_5
                                    104 ;src/rooms/room_34_1.c:7: void reset_room4() {
                                    105 ;	---------------------------------
                                    106 ; Function reset_room4
                                    107 ; ---------------------------------
      000000                        108 _reset_room4::
                                    109 ;src/rooms/room_34_1.c:8: troll_satisfied = 0, troll_negotiated = 0;
      000000 21r00r00               110 	ld	hl, #_troll_satisfied
      000003 36 00                  111 	ld	(hl), #0x00
      000005 21r01r00               112 	ld	hl, #_troll_negotiated
      000008 36 00                  113 	ld	(hl), #0x00
                                    114 ;src/rooms/room_34_1.c:9: }
      00000A C9                     115 	ret
      00000B                        116 _float_offsets_r3:
      00000B 28                     117 	.db #0x28	; 40
      00000C 00                     118 	.db #0x00	; 0
      00000D FF                     119 	.db #0xff	; 255
      00000E 08                     120 	.db #0x08	; 8
      00000F 18                     121 	.db #0x18	; 24
      000010 F8                     122 	.db #0xf8	; 248
      000011 28                     123 	.db #0x28	; 40
      000012 00                     124 	.db #0x00	; 0
      000013 FF                     125 	.db #0xff	; 255
      000014 10                     126 	.db #0x10	; 16
      000015 18                     127 	.db #0x18	; 24
      000016 F8                     128 	.db #0xf8	; 248
      000017 28                     129 	.db #0x28	; 40
      000018 00                     130 	.db #0x00	; 0
      000019 FF                     131 	.db #0xff	; 255
      00001A 18                     132 	.db #0x18	; 24
      00001B 18                     133 	.db #0x18	; 24
      00001C F8                     134 	.db #0xf8	; 248
      00001D 28                     135 	.db #0x28	; 40
      00001E 00                     136 	.db #0x00	; 0
      00001F FF                     137 	.db #0xff	; 255
      000020 20                     138 	.db #0x20	; 32
      000021 18                     139 	.db #0x18	; 24
      000022 F8                     140 	.db #0xf8	; 248
      000023                        141 _float_offsets_r4:
      000023 28                     142 	.db #0x28	; 40
      000024 00                     143 	.db #0x00	; 0
      000025 FF                     144 	.db #0xff	; 255
      000026 08                     145 	.db #0x08	; 8
      000027 00                     146 	.db #0x00	; 0
      000028 40                     147 	.db #0x40	; 64
      000029 28                     148 	.db #0x28	; 40
      00002A 00                     149 	.db #0x00	; 0
      00002B FF                     150 	.db #0xff	; 255
      00002C 10                     151 	.db #0x10	; 16
      00002D 00                     152 	.db #0x00	; 0
      00002E 40                     153 	.db #0x40	; 64
      00002F 28                     154 	.db #0x28	; 40
      000030 00                     155 	.db #0x00	; 0
      000031 FF                     156 	.db #0xff	; 255
      000032 18                     157 	.db #0x18	; 24
      000033 00                     158 	.db #0x00	; 0
      000034 40                     159 	.db #0x40	; 64
      000035 28                     160 	.db #0x28	; 40
      000036 00                     161 	.db #0x00	; 0
      000037 FF                     162 	.db #0xff	; 255
      000038 20                     163 	.db #0x20	; 32
      000039 00                     164 	.db #0x00	; 0
      00003A 40                     165 	.db #0x40	; 64
                                    166 ;src/rooms/room_34_1.c:10: void init_room34() {
                                    167 ;	---------------------------------
                                    168 ; Function init_room34
                                    169 ; ---------------------------------
      00003B                        170 _init_room34::
                                    171 ;src/rooms/room_34_1.c:11: set_sprite_data(evil_sprites_tileoffset, current_room->raw_enemies_tiles->count, current_room->raw_enemies_tiles->data);
      00003B 21r00r00               172 	ld	hl, #_current_room
      00003E 2A                     173 	ld	a, (hl+)
      00003F 4F                     174 	ld	c, a
      000040 46                     175 	ld	b, (hl)
      000041 21 07 00               176 	ld	hl, #0x0007
      000044 09                     177 	add	hl, bc
      000045 2A                     178 	ld	a, (hl+)
      000046 4F                     179 	ld	c, a
      000047 46                     180 	ld	b, (hl)
      000048 59                     181 	ld	e, c
      000049 50                     182 	ld	d, b
      00004A 13                     183 	inc	de
      00004B 0A                     184 	ld	a, (bc)
      00004C D5                     185 	push	de
      00004D 67                     186 	ld	h, a
      00004E 2E 09                  187 	ld	l, #0x09
      000050 E5                     188 	push	hl
      000051 CDr00r00               189 	call	_set_sprite_data
      000054 E8 04                  190 	add	sp, #4
                                    191 ;src/rooms/room_34_1.c:12: for (__temp_i = evil_sprite_offset; __temp_i < (evil_sprite_offset + 4); __temp_i++) 
      000056 21r00r00               192 	ld	hl, #___temp_i
      000059 36 09                  193 	ld	(hl), #0x09
      00005B                        194 00103$:
                                    195 ;src/rooms/room_34_1.c:13: set_sprite_tile(__temp_i, evil_sprites_tileoffset);
      00005B 21r00r00               196 	ld	hl, #___temp_i
                                    197 ;c:/gb/gbdk/include/gb/gb.h:1185: shadow_OAM[nb].tile=tile;
      00005E 6E                     198 	ld	l, (hl)
      00005F 01r00r00               199 	ld	bc, #_shadow_OAM+0
                                    200 ;	spillPairReg hl
                                    201 ;	spillPairReg hl
      000062 26 00                  202 	ld	h, #0x00
                                    203 ;	spillPairReg hl
                                    204 ;	spillPairReg hl
      000064 29                     205 	add	hl, hl
      000065 29                     206 	add	hl, hl
      000066 09                     207 	add	hl, bc
      000067 23                     208 	inc	hl
      000068 23                     209 	inc	hl
      000069 36 09                  210 	ld	(hl), #0x09
                                    211 ;src/rooms/room_34_1.c:12: for (__temp_i = evil_sprite_offset; __temp_i < (evil_sprite_offset + 4); __temp_i++) 
      00006B 21r00r00               212 	ld	hl, #___temp_i
      00006E 34                     213 	inc	(hl)
      00006F 7E                     214 	ld	a, (hl)
      000070 D6 0D                  215 	sub	a, #0x0d
      000072 38 E7                  216 	jr	C, 00103$
                                    217 ;src/rooms/room_34_1.c:14: }
      000074 C9                     218 	ret
                                    219 ;src/rooms/room_34_1.c:26: void move_float() {             // two floats in room 3 and 4 move in sync with each other
                                    220 ;	---------------------------------
                                    221 ; Function move_float
                                    222 ; ---------------------------------
      000075                        223 _move_float::
                                    224 ;src/rooms/room_34_1.c:27: float_move_timer++;
      000075 21r00r00               225 	ld	hl, #_float_move_timer
      000078 34                     226 	inc	(hl)
                                    227 ;src/rooms/room_34_1.c:28: if (float_move_timer & 1) return;
      000079 7E                     228 	ld	a, (hl)
      00007A 0F                     229 	rrca
      00007B D8                     230 	ret	C
                                    231 ;src/rooms/room_34_1.c:29: if (float3_move) {
      00007C FAr01r00               232 	ld	a, (#_float3_move)
      00007F B7                     233 	or	a, a
      000080 28 78                  234 	jr	Z, 00113$
                                    235 ;src/rooms/room_34_1.c:30: if (float3_dir) {
      000082 21r06r00               236 	ld	hl, #_float3_dir + 1
      000085 3A                     237 	ld	a, (hl-)
      000086 B6                     238 	or	a, (hl)
      000087 28 41                  239 	jr	Z, 00110$
                                    240 ;src/rooms/room_34_1.c:31: float3_pos_x++;
      000089 21r03r00               241 	ld	hl, #_float3_pos_x
      00008C 34                     242 	inc	(hl)
      00008D 20 02                  243 	jr	NZ, 00183$
      00008F 23                     244 	inc	hl
      000090 34                     245 	inc	(hl)
      000091                        246 00183$:
                                    247 ;src/rooms/room_34_1.c:32: if (float3_pos_x >= float3_max_x) { float3_dir = 0; float3_move = 0; }
      000091 21r03r00               248 	ld	hl, #_float3_pos_x
      000094 2A                     249 	ld	a, (hl+)
      000095 D6 F0                  250 	sub	a, #0xf0
      000097 7E                     251 	ld	a, (hl)
      000098 DE 00                  252 	sbc	a, #0x00
      00009A 56                     253 	ld	d, (hl)
      00009B 3E 00                  254 	ld	a, #0x00
      00009D CB 7F                  255 	bit	7,a
      00009F 28 07                  256 	jr	Z, 00184$
      0000A1 CB 7A                  257 	bit	7, d
      0000A3 20 08                  258 	jr	NZ, 00185$
      0000A5 BF                     259 	cp	a, a
      0000A6 18 05                  260 	jr	00185$
      0000A8                        261 00184$:
      0000A8 CB 7A                  262 	bit	7, d
      0000AA 28 01                  263 	jr	Z, 00185$
      0000AC 37                     264 	scf
      0000AD                        265 00185$:
      0000AD 38 0B                  266 	jr	C, 00104$
      0000AF AF                     267 	xor	a, a
      0000B0 21r05r00               268 	ld	hl, #_float3_dir
      0000B3 22                     269 	ld	(hl+), a
      0000B4 77                     270 	ld	(hl), a
      0000B5 21r01r00               271 	ld	hl, #_float3_move
      0000B8 36 00                  272 	ld	(hl), #0x00
      0000BA                        273 00104$:
                                    274 ;src/rooms/room_34_1.c:33: if (float3_pos_x == float3_max_x - (float_length + 14)) float4_move = 1;
      0000BA 21r03r00               275 	ld	hl, #_float3_pos_x
      0000BD 2A                     276 	ld	a, (hl+)
      0000BE D6 C2                  277 	sub	a, #0xc2
      0000C0 B6                     278 	or	a, (hl)
      0000C1 20 37                  279 	jr	NZ, 00113$
      0000C3 21r02r00               280 	ld	hl, #_float4_move
      0000C6 36 01                  281 	ld	(hl), #0x01
      0000C8 18 30                  282 	jr	00113$
      0000CA                        283 00110$:
                                    284 ;src/rooms/room_34_1.c:35: float3_pos_x--;
      0000CA 21r03r00               285 	ld	hl, #_float3_pos_x
      0000CD 2A                     286 	ld	a, (hl+)
      0000CE 5F                     287 	ld	e, a
      0000CF 3A                     288 	ld	a, (hl-)
      0000D0 57                     289 	ld	d, a
      0000D1 1B                     290 	dec	de
      0000D2 7B                     291 	ld	a, e
      0000D3 22                     292 	ld	(hl+), a
                                    293 ;src/rooms/room_34_1.c:36: if (float3_pos_x <= float3_min_x) float3_dir = 1;
      0000D4 7A                     294 	ld	a, d
      0000D5 32                     295 	ld	(hl-), a
      0000D6 3E 68                  296 	ld	a, #0x68
      0000D8 96                     297 	sub	a, (hl)
      0000D9 23                     298 	inc	hl
      0000DA 3E 00                  299 	ld	a, #0x00
      0000DC 9E                     300 	sbc	a, (hl)
      0000DD 3E 00                  301 	ld	a, #0x00
      0000DF 57                     302 	ld	d, a
      0000E0 CB 7E                  303 	bit	7, (hl)
      0000E2 28 07                  304 	jr	Z, 00188$
      0000E4 CB 7A                  305 	bit	7, d
      0000E6 20 08                  306 	jr	NZ, 00189$
      0000E8 BF                     307 	cp	a, a
      0000E9 18 05                  308 	jr	00189$
      0000EB                        309 00188$:
      0000EB CB 7A                  310 	bit	7, d
      0000ED 28 01                  311 	jr	Z, 00189$
      0000EF 37                     312 	scf
      0000F0                        313 00189$:
      0000F0 38 08                  314 	jr	C, 00113$
      0000F2 21r05r00               315 	ld	hl, #_float3_dir
      0000F5 3E 01                  316 	ld	a, #0x01
      0000F7 22                     317 	ld	(hl+), a
      0000F8 AF                     318 	xor	a, a
      0000F9 77                     319 	ld	(hl), a
      0000FA                        320 00113$:
                                    321 ;src/rooms/room_34_1.c:39: if (float4_move) {
      0000FA FAr02r00               322 	ld	a, (#_float4_move)
      0000FD B7                     323 	or	a, a
      0000FE C8                     324 	ret	Z
                                    325 ;src/rooms/room_34_1.c:40: if (float4_dir) {
      0000FF 21r0Ar00               326 	ld	hl, #_float4_dir + 1
      000102 3A                     327 	ld	a, (hl-)
      000103 B6                     328 	or	a, (hl)
      000104 28 2C                  329 	jr	Z, 00121$
                                    330 ;src/rooms/room_34_1.c:41: float4_pos_x++;
      000106 21r07r00               331 	ld	hl, #_float4_pos_x
      000109 34                     332 	inc	(hl)
      00010A 20 02                  333 	jr	NZ, 00190$
      00010C 23                     334 	inc	hl
      00010D 34                     335 	inc	(hl)
      00010E                        336 00190$:
                                    337 ;src/rooms/room_34_1.c:42: if (float4_pos_x >= float4_max_x) float4_dir = 0;
      00010E 21r07r00               338 	ld	hl, #_float4_pos_x
      000111 2A                     339 	ld	a, (hl+)
      000112 D6 20                  340 	sub	a, #0x20
      000114 7E                     341 	ld	a, (hl)
      000115 DE 00                  342 	sbc	a, #0x00
      000117 56                     343 	ld	d, (hl)
      000118 3E 00                  344 	ld	a, #0x00
      00011A CB 7F                  345 	bit	7,a
      00011C 28 07                  346 	jr	Z, 00191$
      00011E CB 7A                  347 	bit	7, d
      000120 20 08                  348 	jr	NZ, 00192$
      000122 BF                     349 	cp	a, a
      000123 18 05                  350 	jr	00192$
      000125                        351 00191$:
      000125 CB 7A                  352 	bit	7, d
      000127 28 01                  353 	jr	Z, 00192$
      000129 37                     354 	scf
      00012A                        355 00192$:
      00012A D8                     356 	ret	C
      00012B AF                     357 	xor	a, a
      00012C 21r09r00               358 	ld	hl, #_float4_dir
      00012F 22                     359 	ld	(hl+), a
      000130 77                     360 	ld	(hl), a
      000131 C9                     361 	ret
      000132                        362 00121$:
                                    363 ;src/rooms/room_34_1.c:44: float4_pos_x--;
      000132 21r07r00               364 	ld	hl, #_float4_pos_x
      000135 2A                     365 	ld	a, (hl+)
      000136 5F                     366 	ld	e, a
      000137 3A                     367 	ld	a, (hl-)
      000138 57                     368 	ld	d, a
      000139 1B                     369 	dec	de
      00013A 7B                     370 	ld	a, e
      00013B 22                     371 	ld	(hl+), a
                                    372 ;src/rooms/room_34_1.c:45: if (float4_pos_x <= float4_min_x) { float4_dir = 1; float4_move = 0; }
      00013C 7A                     373 	ld	a, d
      00013D 32                     374 	ld	(hl-), a
      00013E 3E E0                  375 	ld	a, #0xe0
      000140 96                     376 	sub	a, (hl)
      000141 23                     377 	inc	hl
      000142 3E FF                  378 	ld	a, #0xff
      000144 9E                     379 	sbc	a, (hl)
      000145 3E FF                  380 	ld	a, #0xff
      000147 57                     381 	ld	d, a
      000148 CB 7E                  382 	bit	7, (hl)
      00014A 28 07                  383 	jr	Z, 00193$
      00014C CB 7A                  384 	bit	7, d
      00014E 20 08                  385 	jr	NZ, 00194$
      000150 BF                     386 	cp	a, a
      000151 18 05                  387 	jr	00194$
      000153                        388 00193$:
      000153 CB 7A                  389 	bit	7, d
      000155 28 01                  390 	jr	Z, 00194$
      000157 37                     391 	scf
      000158                        392 00194$:
      000158 38 0D                  393 	jr	C, 00117$
      00015A 21r09r00               394 	ld	hl, #_float4_dir
      00015D 3E 01                  395 	ld	a, #0x01
      00015F 22                     396 	ld	(hl+), a
      000160 AF                     397 	xor	a, a
      000161 77                     398 	ld	(hl), a
      000162 21r02r00               399 	ld	hl, #_float4_move
      000165 36 00                  400 	ld	(hl), #0x00
      000167                        401 00117$:
                                    402 ;src/rooms/room_34_1.c:46: if (float4_pos_x == float4_min_x + (float_length + 15)) float3_move = 1;
      000167 21r07r00               403 	ld	hl, #_float4_pos_x
      00016A 2A                     404 	ld	a, (hl+)
      00016B D6 0F                  405 	sub	a, #0x0f
      00016D B6                     406 	or	a, (hl)
      00016E C0                     407 	ret	NZ
      00016F 21r01r00               408 	ld	hl, #_float3_move
      000172 36 01                  409 	ld	(hl), #0x01
                                    410 ;src/rooms/room_34_1.c:49: }
      000174 C9                     411 	ret
                                    412 ;src/rooms/room_34_1.c:50: void draw_float3() {
                                    413 ;	---------------------------------
                                    414 ; Function draw_float3
                                    415 ; ---------------------------------
      000175                        416 _draw_float3::
                                    417 ;src/rooms/room_34_1.c:54: -bkg_scroll_x_target, - bkg_scroll_y_target);
      000175 AF                     418 	xor	a, a
      000176 21r00r00               419 	ld	hl, #_bkg_scroll_y_target
      000179 96                     420 	sub	a, (hl)
      00017A 57                     421 	ld	d, a
      00017B AF                     422 	xor	a, a
      00017C 21r00r00               423 	ld	hl, #_bkg_scroll_x_target
      00017F 96                     424 	sub	a, (hl)
      000180 47                     425 	ld	b, a
                                    426 ;src/rooms/room_34_1.c:53: (unsigned char *)float_offsets_r3, 
                                    427 ;src/rooms/room_34_1.c:52: float3_pos_x, float34_pos_y, 
      000181 21r03r00               428 	ld	hl, #_float3_pos_x
      000184 7E                     429 	ld	a, (hl)
                                    430 ;src/rooms/room_34_1.c:51: multiple_move_sprites_limits(float_sprite_offset, float_sprite_count, 
      000185 58                     431 	ld	e, b
      000186 D5                     432 	push	de
      000187 11r0Br00               433 	ld	de, #_float_offsets_r3
      00018A D5                     434 	push	de
      00018B 26 78                  435 	ld	h, #0x78
                                    436 ;	spillPairReg hl
                                    437 ;	spillPairReg hl
      00018D E5                     438 	push	hl
      00018E 33                     439 	inc	sp
      00018F 67                     440 	ld	h, a
      000190 2E 04                  441 	ld	l, #0x04
      000192 E5                     442 	push	hl
      000193 3E 09                  443 	ld	a, #0x09
      000195 F5                     444 	push	af
      000196 33                     445 	inc	sp
      000197 CDr00r00               446 	call	_multiple_move_sprites_limits
      00019A E8 08                  447 	add	sp, #8
                                    448 ;src/rooms/room_34_1.c:55: }
      00019C C9                     449 	ret
                                    450 ;src/rooms/room_34_1.c:56: void draw_float4() {
                                    451 ;	---------------------------------
                                    452 ; Function draw_float4
                                    453 ; ---------------------------------
      00019D                        454 _draw_float4::
                                    455 ;src/rooms/room_34_1.c:60: -bkg_scroll_x_target, -bkg_scroll_y_target);
      00019D AF                     456 	xor	a, a
      00019E 21r00r00               457 	ld	hl, #_bkg_scroll_y_target
      0001A1 96                     458 	sub	a, (hl)
      0001A2 57                     459 	ld	d, a
      0001A3 AF                     460 	xor	a, a
      0001A4 21r00r00               461 	ld	hl, #_bkg_scroll_x_target
      0001A7 96                     462 	sub	a, (hl)
      0001A8 47                     463 	ld	b, a
                                    464 ;src/rooms/room_34_1.c:59: (unsigned char *)float_offsets_r4, 
                                    465 ;src/rooms/room_34_1.c:58: float4_pos_x, float34_pos_y, 
      0001A9 21r07r00               466 	ld	hl, #_float4_pos_x
      0001AC 7E                     467 	ld	a, (hl)
                                    468 ;src/rooms/room_34_1.c:57: multiple_move_sprites_limits(float_sprite_offset, float_sprite_count, 
      0001AD 58                     469 	ld	e, b
      0001AE D5                     470 	push	de
      0001AF 11r23r00               471 	ld	de, #_float_offsets_r4
      0001B2 D5                     472 	push	de
      0001B3 26 78                  473 	ld	h, #0x78
                                    474 ;	spillPairReg hl
                                    475 ;	spillPairReg hl
      0001B5 E5                     476 	push	hl
      0001B6 33                     477 	inc	sp
      0001B7 67                     478 	ld	h, a
      0001B8 2E 04                  479 	ld	l, #0x04
      0001BA E5                     480 	push	hl
      0001BB 3E 09                  481 	ld	a, #0x09
      0001BD F5                     482 	push	af
      0001BE 33                     483 	inc	sp
      0001BF CDr00r00               484 	call	_multiple_move_sprites_limits
      0001C2 E8 08                  485 	add	sp, #8
                                    486 ;src/rooms/room_34_1.c:61: }
      0001C4 C9                     487 	ret
                                    488 ;src/rooms/room_34_1.c:62: void hcoll_float3(WORD x, WORD y) {
                                    489 ;	---------------------------------
                                    490 ; Function hcoll_float3
                                    491 ; ---------------------------------
      0001C5                        492 _hcoll_float3::
                                    493 ;src/rooms/room_34_1.c:63: if (delta_y >= 0) {
      0001C5 FAr01r00               494 	ld	a, (#_delta_y + 1)
      0001C8 CB 7F                  495 	bit	7, a
      0001CA C2rAFr02               496 	jp	NZ, 00108$
                                    497 ;src/rooms/room_34_1.c:64: if ((x >= float3_pos_x - 8) && (x <= float3_pos_x + (3 * 8))) {            
      0001CD 21r03r00               498 	ld	hl, #_float3_pos_x
      0001D0 2A                     499 	ld	a, (hl+)
      0001D1 C6 F8                  500 	add	a, #0xf8
      0001D3 4F                     501 	ld	c, a
      0001D4 7E                     502 	ld	a, (hl)
      0001D5 CE FF                  503 	adc	a, #0xff
      0001D7 47                     504 	ld	b, a
      0001D8 F8 02                  505 	ldhl	sp,	#2
      0001DA 2A                     506 	ld	a, (hl+)
      0001DB 91                     507 	sub	a, c
      0001DC 7E                     508 	ld	a, (hl)
      0001DD 98                     509 	sbc	a, b
      0001DE 56                     510 	ld	d, (hl)
      0001DF 78                     511 	ld	a, b
      0001E0 CB 7F                  512 	bit	7,a
      0001E2 28 07                  513 	jr	Z, 00136$
      0001E4 CB 7A                  514 	bit	7, d
      0001E6 20 08                  515 	jr	NZ, 00137$
      0001E8 BF                     516 	cp	a, a
      0001E9 18 05                  517 	jr	00137$
      0001EB                        518 00136$:
      0001EB CB 7A                  519 	bit	7, d
      0001ED 28 01                  520 	jr	Z, 00137$
      0001EF 37                     521 	scf
      0001F0                        522 00137$:
      0001F0 DArAFr02               523 	jp	C, 00108$
      0001F3 21r03r00               524 	ld	hl, #_float3_pos_x
      0001F6 2A                     525 	ld	a, (hl+)
      0001F7 C6 18                  526 	add	a, #0x18
      0001F9 4F                     527 	ld	c, a
      0001FA 7E                     528 	ld	a, (hl)
      0001FB CE 00                  529 	adc	a, #0x00
      0001FD 47                     530 	ld	b, a
      0001FE F8 02                  531 	ldhl	sp,	#2
      000200 79                     532 	ld	a, c
      000201 96                     533 	sub	a, (hl)
      000202 23                     534 	inc	hl
      000203 78                     535 	ld	a, b
      000204 9E                     536 	sbc	a, (hl)
      000205 78                     537 	ld	a, b
      000206 57                     538 	ld	d, a
      000207 CB 7E                  539 	bit	7, (hl)
      000209 28 07                  540 	jr	Z, 00138$
      00020B CB 7A                  541 	bit	7, d
      00020D 20 08                  542 	jr	NZ, 00139$
      00020F BF                     543 	cp	a, a
      000210 18 05                  544 	jr	00139$
      000212                        545 00138$:
      000212 CB 7A                  546 	bit	7, d
      000214 28 01                  547 	jr	Z, 00139$
      000216 37                     548 	scf
      000217                        549 00139$:
      000217 DArAFr02               550 	jp	C, 00108$
                                    551 ;src/rooms/room_34_1.c:65: if ((y >= float34_pos_y - 1) && (y <= float34_pos_y + 4)) {
      00021A F8 04                  552 	ldhl	sp,	#4
      00021C 2A                     553 	ld	a, (hl+)
      00021D D6 77                  554 	sub	a, #0x77
      00021F 7E                     555 	ld	a, (hl)
      000220 DE 00                  556 	sbc	a, #0x00
      000222 56                     557 	ld	d, (hl)
      000223 3E 00                  558 	ld	a, #0x00
      000225 CB 7F                  559 	bit	7,a
      000227 28 07                  560 	jr	Z, 00140$
      000229 CB 7A                  561 	bit	7, d
      00022B 20 08                  562 	jr	NZ, 00141$
      00022D BF                     563 	cp	a, a
      00022E 18 05                  564 	jr	00141$
      000230                        565 00140$:
      000230 CB 7A                  566 	bit	7, d
      000232 28 01                  567 	jr	Z, 00141$
      000234 37                     568 	scf
      000235                        569 00141$:
      000235 38 78                  570 	jr	C, 00108$
      000237 F8 04                  571 	ldhl	sp,	#4
      000239 3E 7C                  572 	ld	a, #0x7c
      00023B 96                     573 	sub	a, (hl)
      00023C 23                     574 	inc	hl
      00023D 3E 00                  575 	ld	a, #0x00
      00023F 9E                     576 	sbc	a, (hl)
      000240 3E 00                  577 	ld	a, #0x00
      000242 57                     578 	ld	d, a
      000243 CB 7E                  579 	bit	7, (hl)
      000245 28 07                  580 	jr	Z, 00142$
      000247 CB 7A                  581 	bit	7, d
      000249 20 08                  582 	jr	NZ, 00143$
      00024B BF                     583 	cp	a, a
      00024C 18 05                  584 	jr	00143$
      00024E                        585 00142$:
      00024E CB 7A                  586 	bit	7, d
      000250 28 01                  587 	jr	Z, 00143$
      000252 37                     588 	scf
      000253                        589 00143$:
      000253 38 5A                  590 	jr	C, 00108$
                                    591 ;src/rooms/room_34_1.c:66: tile_pos_x = x >> 3; tile_pos_ox = (x - float3_pos_x) & 7;
      000255 F8 02                  592 	ldhl	sp,#2
      000257 2A                     593 	ld	a, (hl+)
      000258 4F                     594 	ld	c, a
      000259 46                     595 	ld	b, (hl)
      00025A CB 28                  596 	sra	b
      00025C CB 19                  597 	rr	c
      00025E CB 28                  598 	sra	b
      000260 CB 19                  599 	rr	c
      000262 CB 28                  600 	sra	b
      000264 CB 19                  601 	rr	c
      000266 21r00r00               602 	ld	hl, #_tile_pos_x
      000269 71                     603 	ld	(hl), c
      00026A F8 02                  604 	ldhl	sp,	#2
      00026C 7E                     605 	ld	a, (hl)
      00026D 21r03r00               606 	ld	hl, #_float3_pos_x
      000270 4E                     607 	ld	c, (hl)
      000271 91                     608 	sub	a, c
      000272 E6 07                  609 	and	a, #0x07
      000274 EAr00r00               610 	ld	(#_tile_pos_ox),a
                                    611 ;src/rooms/room_34_1.c:67: tile_pos_y = y >> 3; tile_pos_oy = y & 7;
      000277 F8 04                  612 	ldhl	sp,#4
      000279 2A                     613 	ld	a, (hl+)
      00027A 4F                     614 	ld	c, a
      00027B 46                     615 	ld	b, (hl)
      00027C CB 28                  616 	sra	b
      00027E CB 19                  617 	rr	c
      000280 CB 28                  618 	sra	b
      000282 CB 19                  619 	rr	c
      000284 CB 28                  620 	sra	b
      000286 CB 19                  621 	rr	c
      000288 21r00r00               622 	ld	hl, #_tile_pos_y
      00028B 71                     623 	ld	(hl), c
      00028C F8 04                  624 	ldhl	sp,	#4
      00028E 7E                     625 	ld	a, (hl)
      00028F E6 07                  626 	and	a, #0x07
      000291 EAr00r00               627 	ld	(#_tile_pos_oy),a
                                    628 ;src/rooms/room_34_1.c:68: collision_buf[0] = 1; collision_buf[1] = 1; collision_buf[2] = 0;
      000294 21r00r00               629 	ld	hl, #_collision_buf
      000297 36 01                  630 	ld	(hl), #0x01
      000299 21r01r00               631 	ld	hl, #(_collision_buf + 1)
      00029C 36 01                  632 	ld	(hl), #0x01
      00029E 21r02r00               633 	ld	hl, #(_collision_buf + 2)
      0002A1 36 00                  634 	ld	(hl), #0x00
                                    635 ;src/rooms/room_34_1.c:69: delta_y = 0;
      0002A3 AF                     636 	xor	a, a
      0002A4 21r00r00               637 	ld	hl, #_delta_y
      0002A7 22                     638 	ld	(hl+), a
      0002A8 77                     639 	ld	(hl), a
                                    640 ;src/rooms/room_34_1.c:70: is_position_safe = 0;
      0002A9 21r00r00               641 	ld	hl, #_is_position_safe
      0002AC 36 00                  642 	ld	(hl), #0x00
                                    643 ;src/rooms/room_34_1.c:71: return;
      0002AE C9                     644 	ret
      0002AF                        645 00108$:
                                    646 ;src/rooms/room_34_1.c:75: get_h_coll(x, y);
      0002AF F8 04                  647 	ldhl	sp,	#4
      0002B1 2A                     648 	ld	a, (hl+)
      0002B2 5F                     649 	ld	e, a
      0002B3 56                     650 	ld	d, (hl)
      0002B4 D5                     651 	push	de
      0002B5 F8 04                  652 	ldhl	sp,	#4
      0002B7 2A                     653 	ld	a, (hl+)
      0002B8 5F                     654 	ld	e, a
      0002B9 56                     655 	ld	d, (hl)
      0002BA D5                     656 	push	de
      0002BB CDr00r00               657 	call	_get_h_coll
      0002BE E8 04                  658 	add	sp, #4
                                    659 ;src/rooms/room_34_1.c:76: }
      0002C0 C9                     660 	ret
                                    661 ;src/rooms/room_34_1.c:77: void hcoll_float4(WORD x, WORD y) {
                                    662 ;	---------------------------------
                                    663 ; Function hcoll_float4
                                    664 ; ---------------------------------
      0002C1                        665 _hcoll_float4::
                                    666 ;src/rooms/room_34_1.c:78: if (delta_y >= 0) {
      0002C1 FAr01r00               667 	ld	a, (#_delta_y + 1)
      0002C4 CB 7F                  668 	bit	7, a
      0002C6 C2rABr03               669 	jp	NZ, 00108$
                                    670 ;src/rooms/room_34_1.c:79: if ((x >= float4_pos_x - 8) && (x <= float4_pos_x + (3 * 8))) {
      0002C9 21r07r00               671 	ld	hl, #_float4_pos_x
      0002CC 2A                     672 	ld	a, (hl+)
      0002CD C6 F8                  673 	add	a, #0xf8
      0002CF 4F                     674 	ld	c, a
      0002D0 7E                     675 	ld	a, (hl)
      0002D1 CE FF                  676 	adc	a, #0xff
      0002D3 47                     677 	ld	b, a
      0002D4 F8 02                  678 	ldhl	sp,	#2
      0002D6 2A                     679 	ld	a, (hl+)
      0002D7 91                     680 	sub	a, c
      0002D8 7E                     681 	ld	a, (hl)
      0002D9 98                     682 	sbc	a, b
      0002DA 56                     683 	ld	d, (hl)
      0002DB 78                     684 	ld	a, b
      0002DC CB 7F                  685 	bit	7,a
      0002DE 28 07                  686 	jr	Z, 00136$
      0002E0 CB 7A                  687 	bit	7, d
      0002E2 20 08                  688 	jr	NZ, 00137$
      0002E4 BF                     689 	cp	a, a
      0002E5 18 05                  690 	jr	00137$
      0002E7                        691 00136$:
      0002E7 CB 7A                  692 	bit	7, d
      0002E9 28 01                  693 	jr	Z, 00137$
      0002EB 37                     694 	scf
      0002EC                        695 00137$:
      0002EC DArABr03               696 	jp	C, 00108$
      0002EF 21r07r00               697 	ld	hl, #_float4_pos_x
      0002F2 2A                     698 	ld	a, (hl+)
      0002F3 C6 18                  699 	add	a, #0x18
      0002F5 4F                     700 	ld	c, a
      0002F6 7E                     701 	ld	a, (hl)
      0002F7 CE 00                  702 	adc	a, #0x00
      0002F9 47                     703 	ld	b, a
      0002FA F8 02                  704 	ldhl	sp,	#2
      0002FC 79                     705 	ld	a, c
      0002FD 96                     706 	sub	a, (hl)
      0002FE 23                     707 	inc	hl
      0002FF 78                     708 	ld	a, b
      000300 9E                     709 	sbc	a, (hl)
      000301 78                     710 	ld	a, b
      000302 57                     711 	ld	d, a
      000303 CB 7E                  712 	bit	7, (hl)
      000305 28 07                  713 	jr	Z, 00138$
      000307 CB 7A                  714 	bit	7, d
      000309 20 08                  715 	jr	NZ, 00139$
      00030B BF                     716 	cp	a, a
      00030C 18 05                  717 	jr	00139$
      00030E                        718 00138$:
      00030E CB 7A                  719 	bit	7, d
      000310 28 01                  720 	jr	Z, 00139$
      000312 37                     721 	scf
      000313                        722 00139$:
      000313 DArABr03               723 	jp	C, 00108$
                                    724 ;src/rooms/room_34_1.c:80: if ((y >= float34_pos_y - 1) && (y <= float34_pos_y + 4)) {
      000316 F8 04                  725 	ldhl	sp,	#4
      000318 2A                     726 	ld	a, (hl+)
      000319 D6 77                  727 	sub	a, #0x77
      00031B 7E                     728 	ld	a, (hl)
      00031C DE 00                  729 	sbc	a, #0x00
      00031E 56                     730 	ld	d, (hl)
      00031F 3E 00                  731 	ld	a, #0x00
      000321 CB 7F                  732 	bit	7,a
      000323 28 07                  733 	jr	Z, 00140$
      000325 CB 7A                  734 	bit	7, d
      000327 20 08                  735 	jr	NZ, 00141$
      000329 BF                     736 	cp	a, a
      00032A 18 05                  737 	jr	00141$
      00032C                        738 00140$:
      00032C CB 7A                  739 	bit	7, d
      00032E 28 01                  740 	jr	Z, 00141$
      000330 37                     741 	scf
      000331                        742 00141$:
      000331 38 78                  743 	jr	C, 00108$
      000333 F8 04                  744 	ldhl	sp,	#4
      000335 3E 7C                  745 	ld	a, #0x7c
      000337 96                     746 	sub	a, (hl)
      000338 23                     747 	inc	hl
      000339 3E 00                  748 	ld	a, #0x00
      00033B 9E                     749 	sbc	a, (hl)
      00033C 3E 00                  750 	ld	a, #0x00
      00033E 57                     751 	ld	d, a
      00033F CB 7E                  752 	bit	7, (hl)
      000341 28 07                  753 	jr	Z, 00142$
      000343 CB 7A                  754 	bit	7, d
      000345 20 08                  755 	jr	NZ, 00143$
      000347 BF                     756 	cp	a, a
      000348 18 05                  757 	jr	00143$
      00034A                        758 00142$:
      00034A CB 7A                  759 	bit	7, d
      00034C 28 01                  760 	jr	Z, 00143$
      00034E 37                     761 	scf
      00034F                        762 00143$:
      00034F 38 5A                  763 	jr	C, 00108$
                                    764 ;src/rooms/room_34_1.c:81: tile_pos_x = x >> 3; tile_pos_ox = (x - float4_pos_x) & 7;
      000351 F8 02                  765 	ldhl	sp,#2
      000353 2A                     766 	ld	a, (hl+)
      000354 4F                     767 	ld	c, a
      000355 46                     768 	ld	b, (hl)
      000356 CB 28                  769 	sra	b
      000358 CB 19                  770 	rr	c
      00035A CB 28                  771 	sra	b
      00035C CB 19                  772 	rr	c
      00035E CB 28                  773 	sra	b
      000360 CB 19                  774 	rr	c
      000362 21r00r00               775 	ld	hl, #_tile_pos_x
      000365 71                     776 	ld	(hl), c
      000366 F8 02                  777 	ldhl	sp,	#2
      000368 7E                     778 	ld	a, (hl)
      000369 21r07r00               779 	ld	hl, #_float4_pos_x
      00036C 4E                     780 	ld	c, (hl)
      00036D 91                     781 	sub	a, c
      00036E E6 07                  782 	and	a, #0x07
      000370 EAr00r00               783 	ld	(#_tile_pos_ox),a
                                    784 ;src/rooms/room_34_1.c:82: tile_pos_y = y >> 3; tile_pos_oy = y & 7;
      000373 F8 04                  785 	ldhl	sp,#4
      000375 2A                     786 	ld	a, (hl+)
      000376 4F                     787 	ld	c, a
      000377 46                     788 	ld	b, (hl)
      000378 CB 28                  789 	sra	b
      00037A CB 19                  790 	rr	c
      00037C CB 28                  791 	sra	b
      00037E CB 19                  792 	rr	c
      000380 CB 28                  793 	sra	b
      000382 CB 19                  794 	rr	c
      000384 21r00r00               795 	ld	hl, #_tile_pos_y
      000387 71                     796 	ld	(hl), c
      000388 F8 04                  797 	ldhl	sp,	#4
      00038A 7E                     798 	ld	a, (hl)
      00038B E6 07                  799 	and	a, #0x07
      00038D EAr00r00               800 	ld	(#_tile_pos_oy),a
                                    801 ;src/rooms/room_34_1.c:83: collision_buf[0] = 1; collision_buf[1] = 1; collision_buf[2] = 0;
      000390 21r00r00               802 	ld	hl, #_collision_buf
      000393 36 01                  803 	ld	(hl), #0x01
      000395 21r01r00               804 	ld	hl, #(_collision_buf + 1)
      000398 36 01                  805 	ld	(hl), #0x01
      00039A 21r02r00               806 	ld	hl, #(_collision_buf + 2)
      00039D 36 00                  807 	ld	(hl), #0x00
                                    808 ;src/rooms/room_34_1.c:84: delta_y = 0;
      00039F AF                     809 	xor	a, a
      0003A0 21r00r00               810 	ld	hl, #_delta_y
      0003A3 22                     811 	ld	(hl+), a
      0003A4 77                     812 	ld	(hl), a
                                    813 ;src/rooms/room_34_1.c:85: is_position_safe = 0;
      0003A5 21r00r00               814 	ld	hl, #_is_position_safe
      0003A8 36 00                  815 	ld	(hl), #0x00
                                    816 ;src/rooms/room_34_1.c:86: return;
      0003AA C9                     817 	ret
      0003AB                        818 00108$:
                                    819 ;src/rooms/room_34_1.c:90: get_h_coll(x, y);
      0003AB F8 04                  820 	ldhl	sp,	#4
      0003AD 2A                     821 	ld	a, (hl+)
      0003AE 5F                     822 	ld	e, a
      0003AF 56                     823 	ld	d, (hl)
      0003B0 D5                     824 	push	de
      0003B1 F8 04                  825 	ldhl	sp,	#4
      0003B3 2A                     826 	ld	a, (hl+)
      0003B4 5F                     827 	ld	e, a
      0003B5 56                     828 	ld	d, (hl)
      0003B6 D5                     829 	push	de
      0003B7 CDr00r00               830 	call	_get_h_coll
      0003BA E8 04                  831 	add	sp, #4
                                    832 ;src/rooms/room_34_1.c:91: }
      0003BC C9                     833 	ret
                                    834 ;src/rooms/room_34_1.c:94: void vcoll_troll(WORD x, WORD y) {
                                    835 ;	---------------------------------
                                    836 ; Function vcoll_troll
                                    837 ; ---------------------------------
      0003BD                        838 _vcoll_troll::
      0003BD 3B                     839 	dec	sp
                                    840 ;src/rooms/room_34_1.c:96: if (x >= troll_x_position) {
      0003BE F8 03                  841 	ldhl	sp,	#3
      0003C0 2A                     842 	ld	a, (hl+)
      0003C1 D6 B0                  843 	sub	a, #0xb0
      0003C3 7E                     844 	ld	a, (hl)
      0003C4 DE 00                  845 	sbc	a, #0x00
      0003C6 56                     846 	ld	d, (hl)
      0003C7 3E 00                  847 	ld	a, #0x00
      0003C9 5F                     848 	ld	e, a
      0003CA CB 7B                  849 	bit	7, e
      0003CC 28 07                  850 	jr	Z, 00157$
      0003CE CB 7A                  851 	bit	7, d
      0003D0 20 08                  852 	jr	NZ, 00158$
      0003D2 BF                     853 	cp	a, a
      0003D3 18 05                  854 	jr	00158$
      0003D5                        855 00157$:
      0003D5 CB 7A                  856 	bit	7, d
      0003D7 28 01                  857 	jr	Z, 00158$
      0003D9 37                     858 	scf
      0003DA                        859 00158$:
      0003DA 3E 00                  860 	ld	a, #0x00
      0003DC 17                     861 	rla
      0003DD F8 00                  862 	ldhl	sp,	#0
      0003DF 77                     863 	ld	(hl), a
                                    864 ;src/rooms/room_34_1.c:95: if (!troll_negotiated) {
      0003E0 FAr01r00               865 	ld	a, (#_troll_negotiated)
      0003E3 B7                     866 	or	a, a
      0003E4 20 18                  867 	jr	NZ, 00104$
                                    868 ;src/rooms/room_34_1.c:96: if (x >= troll_x_position) {
      0003E6 F8 00                  869 	ldhl	sp,	#0
      0003E8 CB 46                  870 	bit	0, (hl)
      0003EA 20 12                  871 	jr	NZ, 00104$
                                    872 ;src/rooms/room_34_1.c:97: show_dialog_window(4, &troll_dialog);
      0003EC 11r00r00               873 	ld	de, #_troll_dialog
      0003EF D5                     874 	push	de
      0003F0 3E 04                  875 	ld	a, #0x04
      0003F2 F5                     876 	push	af
      0003F3 33                     877 	inc	sp
      0003F4 CDr00r00               878 	call	_show_dialog_window
      0003F7 E8 03                  879 	add	sp, #3
                                    880 ;src/rooms/room_34_1.c:98: troll_negotiated = 1;
      0003F9 21r01r00               881 	ld	hl, #_troll_negotiated
      0003FC 36 01                  882 	ld	(hl), #0x01
      0003FE                        883 00104$:
                                    884 ;src/rooms/room_34_1.c:101: if ((!troll_satisfied) && (coins >= 3)) {
      0003FE FAr00r00               885 	ld	a, (#_troll_satisfied)
      000401 B7                     886 	or	a, a
      000402 20 2A                  887 	jr	NZ, 00108$
      000404 FAr00r00               888 	ld	a, (#_coins)
      000407 D6 03                  889 	sub	a, #0x03
      000409 38 23                  890 	jr	C, 00108$
                                    891 ;src/rooms/room_34_1.c:102: if (x >= troll_x_position) {
      00040B F8 00                  892 	ldhl	sp,	#0
      00040D CB 46                  893 	bit	0, (hl)
      00040F 20 1D                  894 	jr	NZ, 00108$
                                    895 ;src/rooms/room_34_1.c:103: show_dialog_window(3, &troll_toll);
      000411 11r00r00               896 	ld	de, #_troll_toll
      000414 D5                     897 	push	de
      000415 3E 03                  898 	ld	a, #0x03
      000417 F5                     899 	push	af
      000418 33                     900 	inc	sp
      000419 CDr00r00               901 	call	_show_dialog_window
      00041C E8 03                  902 	add	sp, #3
                                    903 ;src/rooms/room_34_1.c:104: sub_coins(3);
      00041E 3E 03                  904 	ld	a, #0x03
      000420 F5                     905 	push	af
      000421 33                     906 	inc	sp
      000422 CDr00r00               907 	call	_sub_coins
      000425 33                     908 	inc	sp
                                    909 ;src/rooms/room_34_1.c:105: show_coins();
      000426 CDr00r00               910 	call	_show_coins
                                    911 ;src/rooms/room_34_1.c:106: troll_satisfied = 1;
      000429 21r00r00               912 	ld	hl, #_troll_satisfied
      00042C 36 01                  913 	ld	(hl), #0x01
      00042E                        914 00108$:
                                    915 ;src/rooms/room_34_1.c:109: if ((!troll_satisfied) && (delta_x >= 0)) {
      00042E FAr00r00               916 	ld	a, (#_troll_satisfied)
      000431 B7                     917 	or	a, a
      000432 20 50                  918 	jr	NZ, 00113$
      000434 FAr01r00               919 	ld	a, (#_delta_x + 1)
      000437 CB 7F                  920 	bit	7, a
      000439 20 49                  921 	jr	NZ, 00113$
                                    922 ;src/rooms/room_34_1.c:110: if (x >= troll_x_position) {
      00043B F8 00                  923 	ldhl	sp,	#0
      00043D CB 46                  924 	bit	0, (hl)
      00043F 20 43                  925 	jr	NZ, 00113$
                                    926 ;src/rooms/room_34_1.c:111: tile_pos_x = x >> 3; 
      000441 F8 03                  927 	ldhl	sp,#3
      000443 4E                     928 	ld	c, (hl)
      000444 23                     929 	inc	hl
      000445 46                     930 	ld	b, (hl)
      000446 CB 28                  931 	sra	b
      000448 CB 19                  932 	rr	c
      00044A CB 28                  933 	sra	b
      00044C CB 19                  934 	rr	c
      00044E CB 28                  935 	sra	b
      000450 CB 19                  936 	rr	c
      000452 21r00r00               937 	ld	hl, #_tile_pos_x
      000455 71                     938 	ld	(hl), c
                                    939 ;src/rooms/room_34_1.c:112: collision_buf[0] = 1; collision_buf[1] = 1;
      000456 21r00r00               940 	ld	hl, #_collision_buf
      000459 36 01                  941 	ld	(hl), #0x01
      00045B 21r01r00               942 	ld	hl, #(_collision_buf + 1)
      00045E 36 01                  943 	ld	(hl), #0x01
                                    944 ;src/rooms/room_34_1.c:113: delta_x = -1;
      000460 21r00r00               945 	ld	hl, #_delta_x
      000463 36 FF                  946 	ld	(hl), #0xff
      000465 23                     947 	inc	hl
      000466 36 FF                  948 	ld	(hl), #0xff
                                    949 ;src/rooms/room_34_1.c:115: dizzy_stun = 1;
      000468 21r00r00               950 	ld	hl, #_dizzy_stun
      00046B 36 01                  951 	ld	(hl), #0x01
                                    952 ;src/rooms/room_34_1.c:116: ani_type = ANI_JUMP_L; ani_phase = 0;
      00046D 21r00r00               953 	ld	hl, #_ani_type
      000470 36 09                  954 	ld	(hl), #0x09
      000472 21r00r00               955 	ld	hl, #_ani_phase
      000475 36 00                  956 	ld	(hl), #0x00
                                    957 ;src/rooms/room_34_1.c:117: current_dyn = &move_y_dynamics; current_dyn_phase = 0;            
      000477 21r00r00               958 	ld	hl, #_current_dyn
      00047A 36r00                  959 	ld	(hl), #<(_move_y_dynamics)
      00047C 23                     960 	inc	hl
      00047D 36s00                  961 	ld	(hl), #>(_move_y_dynamics)
      00047F 21r00r00               962 	ld	hl, #_current_dyn_phase
      000482 36 00                  963 	ld	(hl), #0x00
      000484                        964 00113$:
                                    965 ;src/rooms/room_34_1.c:120: get_v_coll(x, y);
      000484 F8 05                  966 	ldhl	sp,	#5
      000486 2A                     967 	ld	a, (hl+)
      000487 5F                     968 	ld	e, a
      000488 56                     969 	ld	d, (hl)
      000489 D5                     970 	push	de
      00048A F8 05                  971 	ldhl	sp,	#5
      00048C 2A                     972 	ld	a, (hl+)
      00048D 5F                     973 	ld	e, a
      00048E 56                     974 	ld	d, (hl)
      00048F D5                     975 	push	de
      000490 CDr00r00               976 	call	_get_v_coll
                                    977 ;src/rooms/room_34_1.c:121: }
      000493 E8 05                  978 	add	sp, #5
      000495 C9                     979 	ret
                                    980 ;src/rooms/room_5_1.c:2: void reset_room5_1() {
                                    981 ;	---------------------------------
                                    982 ; Function reset_room5_1
                                    983 ; ---------------------------------
      000496                        984 _reset_room5_1::
                                    985 ;src/rooms/room_5_1.c:3: dasy_negotiated = 0;
      000496 21r02r00               986 	ld	hl, #_dasy_negotiated
      000499 36 00                  987 	ld	(hl), #0x00
                                    988 ;src/rooms/room_5_1.c:4: }
      00049B C9                     989 	ret
                                    990 ;src/rooms/room_5_1.c:9: void hcoll_mushroom(WORD x, WORD y) {
                                    991 ;	---------------------------------
                                    992 ; Function hcoll_mushroom
                                    993 ; ---------------------------------
      00049C                        994 _hcoll_mushroom::
                                    995 ;src/rooms/room_5_1.c:10: if (delta_y >= 0) {
      00049C FAr01r00               996 	ld	a, (#_delta_y + 1)
      00049F CB 7F                  997 	bit	7, a
      0004A1 C2r7Cr05               998 	jp	NZ, 00108$
                                    999 ;src/rooms/room_5_1.c:11: if ((x >= (mushroom_pos_x - 8)) && (x <= (mushroom_pos_x + (2 * 8)))) {
      0004A4 F8 02                 1000 	ldhl	sp,	#2
      0004A6 2A                    1001 	ld	a, (hl+)
      0004A7 D6 18                 1002 	sub	a, #0x18
      0004A9 7E                    1003 	ld	a, (hl)
      0004AA DE 00                 1004 	sbc	a, #0x00
      0004AC 56                    1005 	ld	d, (hl)
      0004AD 3E 00                 1006 	ld	a, #0x00
      0004AF CB 7F                 1007 	bit	7,a
      0004B1 28 07                 1008 	jr	Z, 00136$
      0004B3 CB 7A                 1009 	bit	7, d
      0004B5 20 08                 1010 	jr	NZ, 00137$
      0004B7 BF                    1011 	cp	a, a
      0004B8 18 05                 1012 	jr	00137$
      0004BA                       1013 00136$:
      0004BA CB 7A                 1014 	bit	7, d
      0004BC 28 01                 1015 	jr	Z, 00137$
      0004BE 37                    1016 	scf
      0004BF                       1017 00137$:
      0004BF DAr7Cr05              1018 	jp	C, 00108$
      0004C2 F8 02                 1019 	ldhl	sp,	#2
      0004C4 3E 30                 1020 	ld	a, #0x30
      0004C6 96                    1021 	sub	a, (hl)
      0004C7 23                    1022 	inc	hl
      0004C8 3E 00                 1023 	ld	a, #0x00
      0004CA 9E                    1024 	sbc	a, (hl)
      0004CB 3E 00                 1025 	ld	a, #0x00
      0004CD 57                    1026 	ld	d, a
      0004CE CB 7E                 1027 	bit	7, (hl)
      0004D0 28 07                 1028 	jr	Z, 00138$
      0004D2 CB 7A                 1029 	bit	7, d
      0004D4 20 08                 1030 	jr	NZ, 00139$
      0004D6 BF                    1031 	cp	a, a
      0004D7 18 05                 1032 	jr	00139$
      0004D9                       1033 00138$:
      0004D9 CB 7A                 1034 	bit	7, d
      0004DB 28 01                 1035 	jr	Z, 00139$
      0004DD 37                    1036 	scf
      0004DE                       1037 00139$:
      0004DE DAr7Cr05              1038 	jp	C, 00108$
                                   1039 ;src/rooms/room_5_1.c:12: if ((y >= (mushroom_pos_y - 1)) && (y <= (mushroom_pos_y + 4))) {
      0004E1 F8 04                 1040 	ldhl	sp,	#4
      0004E3 2A                    1041 	ld	a, (hl+)
      0004E4 D6 5F                 1042 	sub	a, #0x5f
      0004E6 7E                    1043 	ld	a, (hl)
      0004E7 DE 00                 1044 	sbc	a, #0x00
      0004E9 56                    1045 	ld	d, (hl)
      0004EA 3E 00                 1046 	ld	a, #0x00
      0004EC CB 7F                 1047 	bit	7,a
      0004EE 28 07                 1048 	jr	Z, 00140$
      0004F0 CB 7A                 1049 	bit	7, d
      0004F2 20 08                 1050 	jr	NZ, 00141$
      0004F4 BF                    1051 	cp	a, a
      0004F5 18 05                 1052 	jr	00141$
      0004F7                       1053 00140$:
      0004F7 CB 7A                 1054 	bit	7, d
      0004F9 28 01                 1055 	jr	Z, 00141$
      0004FB 37                    1056 	scf
      0004FC                       1057 00141$:
      0004FC DAr7Cr05              1058 	jp	C, 00108$
      0004FF F8 04                 1059 	ldhl	sp,	#4
      000501 3E 64                 1060 	ld	a, #0x64
      000503 96                    1061 	sub	a, (hl)
      000504 23                    1062 	inc	hl
      000505 3E 00                 1063 	ld	a, #0x00
      000507 9E                    1064 	sbc	a, (hl)
      000508 3E 00                 1065 	ld	a, #0x00
      00050A 57                    1066 	ld	d, a
      00050B CB 7E                 1067 	bit	7, (hl)
      00050D 28 07                 1068 	jr	Z, 00142$
      00050F CB 7A                 1069 	bit	7, d
      000511 20 08                 1070 	jr	NZ, 00143$
      000513 BF                    1071 	cp	a, a
      000514 18 05                 1072 	jr	00143$
      000516                       1073 00142$:
      000516 CB 7A                 1074 	bit	7, d
      000518 28 01                 1075 	jr	Z, 00143$
      00051A 37                    1076 	scf
      00051B                       1077 00143$:
      00051B 38 5F                 1078 	jr	C, 00108$
                                   1079 ;src/rooms/room_5_1.c:13: tile_pos_x = x >> 3; tile_pos_ox = (x - float4_pos_x) & 7;
      00051D F8 02                 1080 	ldhl	sp,#2
      00051F 2A                    1081 	ld	a, (hl+)
      000520 4F                    1082 	ld	c, a
      000521 46                    1083 	ld	b, (hl)
      000522 CB 28                 1084 	sra	b
      000524 CB 19                 1085 	rr	c
      000526 CB 28                 1086 	sra	b
      000528 CB 19                 1087 	rr	c
      00052A CB 28                 1088 	sra	b
      00052C CB 19                 1089 	rr	c
      00052E 21r00r00              1090 	ld	hl, #_tile_pos_x
      000531 71                    1091 	ld	(hl), c
      000532 F8 02                 1092 	ldhl	sp,	#2
      000534 7E                    1093 	ld	a, (hl)
      000535 21r07r00              1094 	ld	hl, #_float4_pos_x
      000538 4E                    1095 	ld	c, (hl)
      000539 91                    1096 	sub	a, c
      00053A E6 07                 1097 	and	a, #0x07
      00053C EAr00r00              1098 	ld	(#_tile_pos_ox),a
                                   1099 ;src/rooms/room_5_1.c:14: tile_pos_y = y >> 3; tile_pos_oy = y & 7;
      00053F F8 04                 1100 	ldhl	sp,#4
      000541 2A                    1101 	ld	a, (hl+)
      000542 4F                    1102 	ld	c, a
      000543 46                    1103 	ld	b, (hl)
      000544 CB 28                 1104 	sra	b
      000546 CB 19                 1105 	rr	c
      000548 CB 28                 1106 	sra	b
      00054A CB 19                 1107 	rr	c
      00054C CB 28                 1108 	sra	b
      00054E CB 19                 1109 	rr	c
      000550 21r00r00              1110 	ld	hl, #_tile_pos_y
      000553 71                    1111 	ld	(hl), c
      000554 F8 04                 1112 	ldhl	sp,	#4
      000556 7E                    1113 	ld	a, (hl)
      000557 E6 07                 1114 	and	a, #0x07
      000559 EAr00r00              1115 	ld	(#_tile_pos_oy),a
                                   1116 ;src/rooms/room_5_1.c:15: collision_buf[0] = 1; collision_buf[1] = 1; collision_buf[2] = 0;
      00055C 21r00r00              1117 	ld	hl, #_collision_buf
      00055F 36 01                 1118 	ld	(hl), #0x01
      000561 21r01r00              1119 	ld	hl, #(_collision_buf + 1)
      000564 36 01                 1120 	ld	(hl), #0x01
      000566 21r02r00              1121 	ld	hl, #(_collision_buf + 2)
      000569 36 00                 1122 	ld	(hl), #0x00
                                   1123 ;src/rooms/room_5_1.c:16: delta_y = 0;
      00056B AF                    1124 	xor	a, a
      00056C 21r00r00              1125 	ld	hl, #_delta_y
      00056F 22                    1126 	ld	(hl+), a
      000570 77                    1127 	ld	(hl), a
                                   1128 ;src/rooms/room_5_1.c:17: is_position_safe = 0;
      000571 21r00r00              1129 	ld	hl, #_is_position_safe
      000574 36 00                 1130 	ld	(hl), #0x00
                                   1131 ;src/rooms/room_5_1.c:18: double_dyn = 1;
      000576 21r00r00              1132 	ld	hl, #_double_dyn
      000579 36 01                 1133 	ld	(hl), #0x01
                                   1134 ;src/rooms/room_5_1.c:19: return;
      00057B C9                    1135 	ret
      00057C                       1136 00108$:
                                   1137 ;src/rooms/room_5_1.c:23: get_h_coll(x, y);
      00057C F8 04                 1138 	ldhl	sp,	#4
      00057E 2A                    1139 	ld	a, (hl+)
      00057F 5F                    1140 	ld	e, a
      000580 56                    1141 	ld	d, (hl)
      000581 D5                    1142 	push	de
      000582 F8 04                 1143 	ldhl	sp,	#4
      000584 2A                    1144 	ld	a, (hl+)
      000585 5F                    1145 	ld	e, a
      000586 56                    1146 	ld	d, (hl)
      000587 D5                    1147 	push	de
      000588 CDr00r00              1148 	call	_get_h_coll
      00058B E8 04                 1149 	add	sp, #4
                                   1150 ;src/rooms/room_5_1.c:24: }
      00058D C9                    1151 	ret
                                   1152 ;src/rooms/room_5_1.c:26: void vcoll_daisy(WORD x, WORD y) {
                                   1153 ;	---------------------------------
                                   1154 ; Function vcoll_daisy
                                   1155 ; ---------------------------------
      00058E                       1156 _vcoll_daisy::
                                   1157 ;src/rooms/room_5_1.c:27: if (!dasy_negotiated) {
      00058E FAr02r00              1158 	ld	a, (#_dasy_negotiated)
      000591 B7                    1159 	or	a, a
      000592 20 6B                 1160 	jr	NZ, 00106$
                                   1161 ;src/rooms/room_5_1.c:28: if ((y > (14 * 8)) && (x > (17 * 8)) && (x < (19 * 8))) {
      000594 F8 04                 1162 	ldhl	sp,	#4
      000596 3E 70                 1163 	ld	a, #0x70
      000598 96                    1164 	sub	a, (hl)
      000599 23                    1165 	inc	hl
      00059A 3E 00                 1166 	ld	a, #0x00
      00059C 9E                    1167 	sbc	a, (hl)
      00059D 3E 00                 1168 	ld	a, #0x00
      00059F 57                    1169 	ld	d, a
      0005A0 CB 7E                 1170 	bit	7, (hl)
      0005A2 28 07                 1171 	jr	Z, 00129$
      0005A4 CB 7A                 1172 	bit	7, d
      0005A6 20 08                 1173 	jr	NZ, 00130$
      0005A8 BF                    1174 	cp	a, a
      0005A9 18 05                 1175 	jr	00130$
      0005AB                       1176 00129$:
      0005AB CB 7A                 1177 	bit	7, d
      0005AD 28 01                 1178 	jr	Z, 00130$
      0005AF 37                    1179 	scf
      0005B0                       1180 00130$:
      0005B0 30 4D                 1181 	jr	NC, 00106$
      0005B2 F8 02                 1182 	ldhl	sp,	#2
      0005B4 3E 88                 1183 	ld	a, #0x88
      0005B6 96                    1184 	sub	a, (hl)
      0005B7 23                    1185 	inc	hl
      0005B8 3E 00                 1186 	ld	a, #0x00
      0005BA 9E                    1187 	sbc	a, (hl)
      0005BB 3E 00                 1188 	ld	a, #0x00
      0005BD 57                    1189 	ld	d, a
      0005BE CB 7E                 1190 	bit	7, (hl)
      0005C0 28 07                 1191 	jr	Z, 00131$
      0005C2 CB 7A                 1192 	bit	7, d
      0005C4 20 08                 1193 	jr	NZ, 00132$
      0005C6 BF                    1194 	cp	a, a
      0005C7 18 05                 1195 	jr	00132$
      0005C9                       1196 00131$:
      0005C9 CB 7A                 1197 	bit	7, d
      0005CB 28 01                 1198 	jr	Z, 00132$
      0005CD 37                    1199 	scf
      0005CE                       1200 00132$:
      0005CE 30 2F                 1201 	jr	NC, 00106$
      0005D0 F8 02                 1202 	ldhl	sp,	#2
      0005D2 2A                    1203 	ld	a, (hl+)
      0005D3 D6 98                 1204 	sub	a, #0x98
      0005D5 7E                    1205 	ld	a, (hl)
      0005D6 DE 00                 1206 	sbc	a, #0x00
      0005D8 56                    1207 	ld	d, (hl)
      0005D9 3E 00                 1208 	ld	a, #0x00
      0005DB CB 7F                 1209 	bit	7,a
      0005DD 28 07                 1210 	jr	Z, 00133$
      0005DF CB 7A                 1211 	bit	7, d
      0005E1 20 08                 1212 	jr	NZ, 00134$
      0005E3 BF                    1213 	cp	a, a
      0005E4 18 05                 1214 	jr	00134$
      0005E6                       1215 00133$:
      0005E6 CB 7A                 1216 	bit	7, d
      0005E8 28 01                 1217 	jr	Z, 00134$
      0005EA 37                    1218 	scf
      0005EB                       1219 00134$:
      0005EB 30 12                 1220 	jr	NC, 00106$
                                   1221 ;src/rooms/room_5_1.c:29: show_dialog_window(5, &daisy_dialog);
      0005ED 11r00r00              1222 	ld	de, #_daisy_dialog
      0005F0 D5                    1223 	push	de
      0005F1 3E 05                 1224 	ld	a, #0x05
      0005F3 F5                    1225 	push	af
      0005F4 33                    1226 	inc	sp
      0005F5 CDr00r00              1227 	call	_show_dialog_window
      0005F8 E8 03                 1228 	add	sp, #3
                                   1229 ;src/rooms/room_5_1.c:30: dasy_negotiated = 1;
      0005FA 21r02r00              1230 	ld	hl, #_dasy_negotiated
      0005FD 36 01                 1231 	ld	(hl), #0x01
      0005FF                       1232 00106$:
                                   1233 ;src/rooms/room_5_1.c:33: get_v_coll(x, y);
      0005FF F8 04                 1234 	ldhl	sp,	#4
      000601 2A                    1235 	ld	a, (hl+)
      000602 5F                    1236 	ld	e, a
      000603 56                    1237 	ld	d, (hl)
      000604 D5                    1238 	push	de
      000605 F8 04                 1239 	ldhl	sp,	#4
      000607 2A                    1240 	ld	a, (hl+)
      000608 5F                    1241 	ld	e, a
      000609 56                    1242 	ld	d, (hl)
      00060A D5                    1243 	push	de
      00060B CDr00r00              1244 	call	_get_v_coll
      00060E E8 04                 1245 	add	sp, #4
                                   1246 ;src/rooms/room_5_1.c:34: }
      000610 C9                    1247 	ret
                                   1248 ;src/rooms/room_5_1.c:36: UBYTE daisy_gets_mushrooms(UBYTE tile_x, UBYTE tile_y, UBYTE id) {
                                   1249 ;	---------------------------------
                                   1250 ; Function daisy_gets_mushrooms
                                   1251 ; ---------------------------------
      000611                       1252 _daisy_gets_mushrooms::
                                   1253 ;src/rooms/room_5_1.c:37: if (id == ID_MUSHROOMS) {
      000611 F8 04                 1254 	ldhl	sp,	#4
      000613 7E                    1255 	ld	a, (hl)
      000614 D6 04                 1256 	sub	a, #0x04
      000616 20 23                 1257 	jr	NZ, 00106$
                                   1258 ;src/rooms/room_5_1.c:38: if ((tile_y == 14) && (tile_x > 14) && (tile_x < 19)) {
      000618 F8 03                 1259 	ldhl	sp,	#3
      00061A 7E                    1260 	ld	a, (hl)
      00061B D6 0E                 1261 	sub	a, #0x0e
      00061D 20 1C                 1262 	jr	NZ, 00106$
      00061F 3E 0E                 1263 	ld	a, #0x0e
      000621 F8 02                 1264 	ldhl	sp,	#2
      000623 96                    1265 	sub	a, (hl)
      000624 30 15                 1266 	jr	NC, 00106$
      000626 7E                    1267 	ld	a, (hl)
      000627 D6 13                 1268 	sub	a, #0x13
      000629 30 10                 1269 	jr	NC, 00106$
                                   1270 ;src/rooms/room_5_1.c:39: show_dialog_window(7, &daisy_gives_pie);
      00062B 11r00r00              1271 	ld	de, #_daisy_gives_pie
      00062E D5                    1272 	push	de
      00062F 3E 07                 1273 	ld	a, #0x07
      000631 F5                    1274 	push	af
      000632 33                    1275 	inc	sp
      000633 CDr00r00              1276 	call	_show_dialog_window
      000636 E8 03                 1277 	add	sp, #3
                                   1278 ;src/rooms/room_5_1.c:40: return ID_PIE;
      000638 1E 05                 1279 	ld	e, #0x05
      00063A C9                    1280 	ret
      00063B                       1281 00106$:
                                   1282 ;src/rooms/room_5_1.c:43: return default_drop(id);
      00063B F8 04                 1283 	ldhl	sp,	#4
      00063D 7E                    1284 	ld	a, (hl)
      00063E F5                    1285 	push	af
      00063F 33                    1286 	inc	sp
      000640 CDr00r00              1287 	call	_default_drop
      000643 33                    1288 	inc	sp
                                   1289 ;src/rooms/room_5_1.c:44: }
      000644 C9                    1290 	ret
                                   1291 	.area _CODE_5
      000645                       1292 _room_3_1_map:
      000645 96 00                 1293 	.dw #0x0096
      000647 FC                    1294 	.db #0xfc	; 252
      000648 00                    1295 	.db #0x00	; 0
      000649 01                    1296 	.db #0x01	; 1
      00064A C2                    1297 	.db #0xc2	; 194
      00064B 02                    1298 	.db #0x02	; 2
      00064C 03                    1299 	.db #0x03	; 3
      00064D DA                    1300 	.db #0xda	; 218
      00064E 00                    1301 	.db #0x00	; 0
      00064F 04                    1302 	.db #0x04	; 4
      000650 C2                    1303 	.db #0xc2	; 194
      000651 05                    1304 	.db #0x05	; 5
      000652 06                    1305 	.db #0x06	; 6
      000653 DA                    1306 	.db #0xda	; 218
      000654 00                    1307 	.db #0x00	; 0
      000655 C4                    1308 	.db #0xc4	; 196
      000656 07                    1309 	.db #0x07	; 7
      000657 EF                    1310 	.db #0xef	; 239
      000658 00                    1311 	.db #0x00	; 0
      000659 08                    1312 	.db #0x08	; 8
      00065A 09                    1313 	.db #0x09	; 9
      00065B 0A                    1314 	.db #0x0a	; 10
      00065C 0B                    1315 	.db #0x0b	; 11
      00065D 0C                    1316 	.db #0x0c	; 12
      00065E 0D                    1317 	.db #0x0d	; 13
      00065F D8                    1318 	.db #0xd8	; 216
      000660 00                    1319 	.db #0x00	; 0
      000661 0E                    1320 	.db #0x0e	; 14
      000662 0F                    1321 	.db #0x0f	; 15
      000663 10                    1322 	.db #0x10	; 16
      000664 11                    1323 	.db #0x11	; 17
      000665 12                    1324 	.db #0x12	; 18
      000666 13                    1325 	.db #0x13	; 19
      000667 FF                    1326 	.db #0xff	; 255
      000668 00                    1327 	.db #0x00	; 0
      000669 C7                    1328 	.db #0xc7	; 199
      00066A 00                    1329 	.db #0x00	; 0
      00066B 14                    1330 	.db #0x14	; 20
      00066C 15                    1331 	.db #0x15	; 21
      00066D 16                    1332 	.db #0x16	; 22
      00066E D6                    1333 	.db #0xd6	; 214
      00066F 00                    1334 	.db #0x00	; 0
      000670 17                    1335 	.db #0x17	; 23
      000671 18                    1336 	.db #0x18	; 24
      000672 C2                    1337 	.db #0xc2	; 194
      000673 19                    1338 	.db #0x19	; 25
      000674 1A                    1339 	.db #0x1a	; 26
      000675 1B                    1340 	.db #0x1b	; 27
      000676 1C                    1341 	.db #0x1c	; 28
      000677 1D                    1342 	.db #0x1d	; 29
      000678 1E                    1343 	.db #0x1e	; 30
      000679 D4                    1344 	.db #0xd4	; 212
      00067A 00                    1345 	.db #0x00	; 0
      00067B 1F                    1346 	.db #0x1f	; 31
      00067C 20                    1347 	.db #0x20	; 32
      00067D 21                    1348 	.db #0x21	; 33
      00067E C2                    1349 	.db #0xc2	; 194
      00067F 22                    1350 	.db #0x22	; 34
      000680 23                    1351 	.db #0x23	; 35
      000681 24                    1352 	.db #0x24	; 36
      000682 25                    1353 	.db #0x25	; 37
      000683 26                    1354 	.db #0x26	; 38
      000684 27                    1355 	.db #0x27	; 39
      000685 D4                    1356 	.db #0xd4	; 212
      000686 00                    1357 	.db #0x00	; 0
      000687 28                    1358 	.db #0x28	; 40
      000688 29                    1359 	.db #0x29	; 41
      000689 2A                    1360 	.db #0x2a	; 42
      00068A 22                    1361 	.db #0x22	; 34
      00068B 2B                    1362 	.db #0x2b	; 43
      00068C 23                    1363 	.db #0x23	; 35
      00068D 2C                    1364 	.db #0x2c	; 44
      00068E 2D                    1365 	.db #0x2d	; 45
      00068F 2E                    1366 	.db #0x2e	; 46
      000690 D4                    1367 	.db #0xd4	; 212
      000691 00                    1368 	.db #0x00	; 0
      000692 2F                    1369 	.db #0x2f	; 47
      000693 30                    1370 	.db #0x30	; 48	'0'
      000694 31                    1371 	.db #0x31	; 49	'1'
      000695 32                    1372 	.db #0x32	; 50	'2'
      000696 33                    1373 	.db #0x33	; 51	'3'
      000697 34                    1374 	.db #0x34	; 52	'4'
      000698 35                    1375 	.db #0x35	; 53	'5'
      000699 36                    1376 	.db #0x36	; 54	'6'
      00069A 37                    1377 	.db #0x37	; 55	'7'
      00069B 38                    1378 	.db #0x38	; 56	'8'
      00069C 30                    1379 	.db #0x30	; 48	'0'
      00069D 39                    1380 	.db #0x39	; 57	'9'
      00069E 3A                    1381 	.db #0x3a	; 58
      00069F D1                    1382 	.db #0xd1	; 209
      0006A0 00                    1383 	.db #0x00	; 0
      0006A1 3B                    1384 	.db #0x3b	; 59
      0006A2 3C                    1385 	.db #0x3c	; 60
      0006A3 3D                    1386 	.db #0x3d	; 61
      0006A4 3E                    1387 	.db #0x3e	; 62
      0006A5 3B                    1388 	.db #0x3b	; 59
      0006A6 3C                    1389 	.db #0x3c	; 60
      0006A7 3D                    1390 	.db #0x3d	; 61
      0006A8 3E                    1391 	.db #0x3e	; 62
      0006A9 3B                    1392 	.db #0x3b	; 59
      0006AA 3C                    1393 	.db #0x3c	; 60
      0006AB 3D                    1394 	.db #0x3d	; 61
      0006AC 3F                    1395 	.db #0x3f	; 63
      0006AD 40                    1396 	.db #0x40	; 64
      0006AE D1                    1397 	.db #0xd1	; 209
      0006AF 00                    1398 	.db #0x00	; 0
      0006B0 3B                    1399 	.db #0x3b	; 59
      0006B1 3C                    1400 	.db #0x3c	; 60
      0006B2 3D                    1401 	.db #0x3d	; 61
      0006B3 3E                    1402 	.db #0x3e	; 62
      0006B4 3B                    1403 	.db #0x3b	; 59
      0006B5 3C                    1404 	.db #0x3c	; 60
      0006B6 3D                    1405 	.db #0x3d	; 61
      0006B7 3E                    1406 	.db #0x3e	; 62
      0006B8 3B                    1407 	.db #0x3b	; 59
      0006B9 3C                    1408 	.db #0x3c	; 60
      0006BA 3D                    1409 	.db #0x3d	; 61
      0006BB 3E                    1410 	.db #0x3e	; 62
      0006BC 41                    1411 	.db #0x41	; 65	'A'
      0006BD 42                    1412 	.db #0x42	; 66	'B'
      0006BE 43                    1413 	.db #0x43	; 67	'C'
      0006BF 42                    1414 	.db #0x42	; 66	'B'
      0006C0 44                    1415 	.db #0x44	; 68	'D'
      0006C1 45                    1416 	.db #0x45	; 69	'E'
      0006C2 43                    1417 	.db #0x43	; 67	'C'
      0006C3 42                    1418 	.db #0x42	; 66	'B'
      0006C4 44                    1419 	.db #0x44	; 68	'D'
      0006C5 45                    1420 	.db #0x45	; 69	'E'
      0006C6 43                    1421 	.db #0x43	; 67	'C'
      0006C7 42                    1422 	.db #0x42	; 66	'B'
      0006C8 44                    1423 	.db #0x44	; 68	'D'
      0006C9 45                    1424 	.db #0x45	; 69	'E'
      0006CA 43                    1425 	.db #0x43	; 67	'C'
      0006CB 42                    1426 	.db #0x42	; 66	'B'
      0006CC 44                    1427 	.db #0x44	; 68	'D'
      0006CD 45                    1428 	.db #0x45	; 69	'E'
      0006CE 46                    1429 	.db #0x46	; 70	'F'
      0006CF 47                    1430 	.db #0x47	; 71	'G'
      0006D0 48                    1431 	.db #0x48	; 72	'H'
      0006D1 49                    1432 	.db #0x49	; 73	'I'
      0006D2 48                    1433 	.db #0x48	; 72	'H'
      0006D3 49                    1434 	.db #0x49	; 73	'I'
      0006D4 48                    1435 	.db #0x48	; 72	'H'
      0006D5 47                    1436 	.db #0x47	; 71	'G'
      0006D6 4A                    1437 	.db #0x4a	; 74	'J'
      0006D7 46                    1438 	.db #0x46	; 70	'F'
      0006D8 4B                    1439 	.db #0x4b	; 75	'K'
      0006D9 4A                    1440 	.db #0x4a	; 74	'J'
      0006DA 46                    1441 	.db #0x46	; 70	'F'
      0006DB D1                    1442 	.db #0xd1	; 209
      0006DC 00                    1443 	.db #0x00	; 0
      0006DD                       1444 _room_3_1_coll:
      0006DD 21 00                 1445 	.dw #0x0021
      0006DF FF                    1446 	.db #0xff	; 255
      0006E0 00                    1447 	.db #0x00	; 0
      0006E1 F9                    1448 	.db #0xf9	; 249
      0006E2 00                    1449 	.db #0x00	; 0
      0006E3 C4                    1450 	.db #0xc4	; 196
      0006E4 01                    1451 	.db #0x01	; 1
      0006E5 EF                    1452 	.db #0xef	; 239
      0006E6 00                    1453 	.db #0x00	; 0
      0006E7 C6                    1454 	.db #0xc6	; 198
      0006E8 05                    1455 	.db #0x05	; 5
      0006E9 D8                    1456 	.db #0xd8	; 216
      0006EA 00                    1457 	.db #0x00	; 0
      0006EB C6                    1458 	.db #0xc6	; 198
      0006EC 05                    1459 	.db #0x05	; 5
      0006ED FF                    1460 	.db #0xff	; 255
      0006EE 00                    1461 	.db #0x00	; 0
      0006EF FF                    1462 	.db #0xff	; 255
      0006F0 00                    1463 	.db #0x00	; 0
      0006F1 FF                    1464 	.db #0xff	; 255
      0006F2 00                    1465 	.db #0x00	; 0
      0006F3 D8                    1466 	.db #0xd8	; 216
      0006F4 00                    1467 	.db #0x00	; 0
      0006F5 CC                    1468 	.db #0xcc	; 204
      0006F6 01                    1469 	.db #0x01	; 1
      0006F7 02                    1470 	.db #0x02	; 2
      0006F8 D1                    1471 	.db #0xd1	; 209
      0006F9 00                    1472 	.db #0x00	; 0
      0006FA CD                    1473 	.db #0xcd	; 205
      0006FB 01                    1474 	.db #0x01	; 1
      0006FC D1                    1475 	.db #0xd1	; 209
      0006FD 07                    1476 	.db #0x07	; 7
      0006FE DE                    1477 	.db #0xde	; 222
      0006FF 01                    1478 	.db #0x01	; 1
      000700                       1479 _room_3_1_tiles:
      000700 4C                    1480 	.db #0x4c	; 76	'L'
      000701 00                    1481 	.db #0x00	; 0
      000702 01                    1482 	.db #0x01	; 1
      000703 FF                    1483 	.db #0xff	; 255
      000704 55                    1484 	.db #0x55	; 85	'U'
      000705 AA                    1485 	.db #0xaa	; 170
      000706 00                    1486 	.db #0x00	; 0
      000707 20                    1487 	.db #0x20	; 32
      000708 29                    1488 	.db #0x29	; 41
      000709 32                    1489 	.db #0x32	; 50	'2'
      00070A 29                    1490 	.db #0x29	; 41
      00070B 01                    1491 	.db #0x01	; 1
      00070C FF                    1492 	.db #0xff	; 255
      00070D 55                    1493 	.db #0x55	; 85	'U'
      00070E AA                    1494 	.db #0xaa	; 170
      00070F 40                    1495 	.db #0x40	; 64
      000710 00                    1496 	.db #0x00	; 0
      000711 83                    1497 	.db #0x83	; 131
      000712 C6                    1498 	.db #0xc6	; 198
      000713 65                    1499 	.db #0x65	; 101	'e'
      000714 01                    1500 	.db #0x01	; 1
      000715 FF                    1501 	.db #0xff	; 255
      000716 AA                    1502 	.db #0xaa	; 170
      000717 55                    1503 	.db #0x55	; 85	'U'
      000718 00                    1504 	.db #0x00	; 0
      000719 04                    1505 	.db #0x04	; 4
      00071A 94                    1506 	.db #0x94	; 148
      00071B 4C                    1507 	.db #0x4c	; 76	'L'
      00071C 94                    1508 	.db #0x94	; 148
      00071D 01                    1509 	.db #0x01	; 1
      00071E 38                    1510 	.db #0x38	; 56	'8'
      00071F 28                    1511 	.db #0x28	; 40
      000720 30                    1512 	.db #0x30	; 48	'0'
      000721 28                    1513 	.db #0x28	; 40
      000722 31                    1514 	.db #0x31	; 49	'1'
      000723 2B                    1515 	.db #0x2b	; 43
      000724 32                    1516 	.db #0x32	; 50	'2'
      000725 29                    1517 	.db #0x29	; 41
      000726 01                    1518 	.db #0x01	; 1
      000727 B2                    1519 	.db #0xb2	; 178
      000728 58                    1520 	.db #0x58	; 88	'X'
      000729 2C                    1521 	.db #0x2c	; 44
      00072A 96                    1522 	.db #0x96	; 150
      00072B 8B                    1523 	.db #0x8b	; 139
      00072C 45                    1524 	.db #0x45	; 69	'E'
      00072D 82                    1525 	.db #0x82	; 130
      00072E 01                    1526 	.db #0x01	; 1
      00072F 01                    1527 	.db #0x01	; 1
      000730 1C                    1528 	.db #0x1c	; 28
      000731 14                    1529 	.db #0x14	; 20
      000732 0C                    1530 	.db #0x0c	; 12
      000733 14                    1531 	.db #0x14	; 20
      000734 8C                    1532 	.db #0x8c	; 140
      000735 D4                    1533 	.db #0xd4	; 212
      000736 4C                    1534 	.db #0x4c	; 76	'L'
      000737 94                    1535 	.db #0x94	; 148
      000738 01                    1536 	.db #0x01	; 1
      000739 38                    1537 	.db #0x38	; 56	'8'
      00073A 54                    1538 	.db #0x54	; 84	'T'
      00073B AA                    1539 	.db #0xaa	; 170
      00073C D2                    1540 	.db #0xd2	; 210
      00073D 82                    1541 	.db #0x82	; 130
      00073E 44                    1542 	.db #0x44	; 68	'D'
      00073F 38                    1543 	.db #0x38	; 56	'8'
      000740 00                    1544 	.db #0x00	; 0
      000741 01                    1545 	.db #0x01	; 1
      000742 00                    1546 	.db #0x00	; 0
      000743 00                    1547 	.db #0x00	; 0
      000744 00                    1548 	.db #0x00	; 0
      000745 00                    1549 	.db #0x00	; 0
      000746 00                    1550 	.db #0x00	; 0
      000747 03                    1551 	.db #0x03	; 3
      000748 07                    1552 	.db #0x07	; 7
      000749 1F                    1553 	.db #0x1f	; 31
      00074A 01                    1554 	.db #0x01	; 1
      00074B 00                    1555 	.db #0x00	; 0
      00074C 1D                    1556 	.db #0x1d	; 29
      00074D 3F                    1557 	.db #0x3f	; 63
      00074E 3F                    1558 	.db #0x3f	; 63
      00074F 17                    1559 	.db #0x17	; 23
      000750 2F                    1560 	.db #0x2f	; 47
      000751 DB                    1561 	.db #0xdb	; 219
      000752 B5                    1562 	.db #0xb5	; 181
      000753 01                    1563 	.db #0x01	; 1
      000754 18                    1564 	.db #0x18	; 24
      000755 7C                    1565 	.db #0x7c	; 124
      000756 FE                    1566 	.db #0xfe	; 254
      000757 FE                    1567 	.db #0xfe	; 254
      000758 7C                    1568 	.db #0x7c	; 124
      000759 FB                    1569 	.db #0xfb	; 251
      00075A F5                    1570 	.db #0xf5	; 245
      00075B EF                    1571 	.db #0xef	; 239
      00075C 01                    1572 	.db #0x01	; 1
      00075D 06                    1573 	.db #0x06	; 6
      00075E 6F                    1574 	.db #0x6f	; 111	'o'
      00075F FD                    1575 	.db #0xfd	; 253
      000760 FE                    1576 	.db #0xfe	; 254
      000761 BF                    1577 	.db #0xbf	; 191
      000762 5F                    1578 	.db #0x5f	; 95
      000763 FF                    1579 	.db #0xff	; 255
      000764 FE                    1580 	.db #0xfe	; 254
      000765 01                    1581 	.db #0x01	; 1
      000766 00                    1582 	.db #0x00	; 0
      000767 B8                    1583 	.db #0xb8	; 184
      000768 FC                    1584 	.db #0xfc	; 252
      000769 FC                    1585 	.db #0xfc	; 252
      00076A E8                    1586 	.db #0xe8	; 232
      00076B F4                    1587 	.db #0xf4	; 244
      00076C DB                    1588 	.db #0xdb	; 219
      00076D AD                    1589 	.db #0xad	; 173
      00076E 01                    1590 	.db #0x01	; 1
      00076F 00                    1591 	.db #0x00	; 0
      000770 00                    1592 	.db #0x00	; 0
      000771 00                    1593 	.db #0x00	; 0
      000772 00                    1594 	.db #0x00	; 0
      000773 00                    1595 	.db #0x00	; 0
      000774 C0                    1596 	.db #0xc0	; 192
      000775 E0                    1597 	.db #0xe0	; 224
      000776 F8                    1598 	.db #0xf8	; 248
      000777 01                    1599 	.db #0x01	; 1
      000778 1F                    1600 	.db #0x1f	; 31
      000779 1F                    1601 	.db #0x1f	; 31
      00077A 6B                    1602 	.db #0x6b	; 107	'k'
      00077B F5                    1603 	.db #0xf5	; 245
      00077C EF                    1604 	.db #0xef	; 239
      00077D 7D                    1605 	.db #0x7d	; 125
      00077E AA                    1606 	.db #0xaa	; 170
      00077F 40                    1607 	.db #0x40	; 64
      000780 01                    1608 	.db #0x01	; 1
      000781 FF                    1609 	.db #0xff	; 255
      000782 FF                    1610 	.db #0xff	; 255
      000783 F7                    1611 	.db #0xf7	; 247
      000784 FF                    1612 	.db #0xff	; 255
      000785 6E                    1613 	.db #0x6e	; 110	'n'
      000786 B5                    1614 	.db #0xb5	; 181
      000787 4A                    1615 	.db #0x4a	; 74	'J'
      000788 A1                    1616 	.db #0xa1	; 161
      000789 01                    1617 	.db #0x01	; 1
      00078A F5                    1618 	.db #0xf5	; 245
      00078B FF                    1619 	.db #0xff	; 255
      00078C EF                    1620 	.db #0xef	; 239
      00078D 55                    1621 	.db #0x55	; 85	'U'
      00078E AA                    1622 	.db #0xaa	; 170
      00078F 57                    1623 	.db #0x57	; 87	'W'
      000790 AB                    1624 	.db #0xab	; 171
      000791 05                    1625 	.db #0x05	; 5
      000792 01                    1626 	.db #0x01	; 1
      000793 FD                    1627 	.db #0xfd	; 253
      000794 FF                    1628 	.db #0xff	; 255
      000795 6D                    1629 	.db #0x6d	; 109	'm'
      000796 FB                    1630 	.db #0xfb	; 251
      000797 AE                    1631 	.db #0xae	; 174
      000798 55                    1632 	.db #0x55	; 85	'U'
      000799 AA                    1633 	.db #0xaa	; 170
      00079A 41                    1634 	.db #0x41	; 65	'A'
      00079B 01                    1635 	.db #0x01	; 1
      00079C FB                    1636 	.db #0xfb	; 251
      00079D B7                    1637 	.db #0xb7	; 183
      00079E FA                    1638 	.db #0xfa	; 250
      00079F D5                    1639 	.db #0xd5	; 213
      0007A0 EB                    1640 	.db #0xeb	; 235
      0007A1 55                    1641 	.db #0x55	; 85	'U'
      0007A2 AE                    1642 	.db #0xae	; 174
      0007A3 44                    1643 	.db #0x44	; 68	'D'
      0007A4 01                    1644 	.db #0x01	; 1
      0007A5 F8                    1645 	.db #0xf8	; 248
      0007A6 F8                    1646 	.db #0xf8	; 248
      0007A7 D6                    1647 	.db #0xd6	; 214
      0007A8 AF                    1648 	.db #0xaf	; 175
      0007A9 F7                    1649 	.db #0xf7	; 247
      0007AA BE                    1650 	.db #0xbe	; 190
      0007AB 55                    1651 	.db #0x55	; 85	'U'
      0007AC 02                    1652 	.db #0x02	; 2
      0007AD 02                    1653 	.db #0x02	; 2
      0007AE 00                    1654 	.db #0x00	; 0
      0007AF 00                    1655 	.db #0x00	; 0
      0007B0 00                    1656 	.db #0x00	; 0
      0007B1 00                    1657 	.db #0x00	; 0
      0007B2 02                    1658 	.db #0x02	; 2
      0007B3 04                    1659 	.db #0x04	; 4
      0007B4 12                    1660 	.db #0x12	; 18
      0007B5 09                    1661 	.db #0x09	; 9
      0007B6 02                    1662 	.db #0x02	; 2
      0007B7 00                    1663 	.db #0x00	; 0
      0007B8 00                    1664 	.db #0x00	; 0
      0007B9 00                    1665 	.db #0x00	; 0
      0007BA 00                    1666 	.db #0x00	; 0
      0007BB 24                    1667 	.db #0x24	; 36
      0007BC 4B                    1668 	.db #0x4b	; 75	'K'
      0007BD DB                    1669 	.db #0xdb	; 219
      0007BE 9B                    1670 	.db #0x9b	; 155
      0007BF 02                    1671 	.db #0x02	; 2
      0007C0 00                    1672 	.db #0x00	; 0
      0007C1 00                    1673 	.db #0x00	; 0
      0007C2 00                    1674 	.db #0x00	; 0
      0007C3 00                    1675 	.db #0x00	; 0
      0007C4 00                    1676 	.db #0x00	; 0
      0007C5 30                    1677 	.db #0x30	; 48	'0'
      0007C6 B8                    1678 	.db #0xb8	; 184
      0007C7 72                    1679 	.db #0x72	; 114	'r'
      0007C8 02                    1680 	.db #0x02	; 2
      0007C9 00                    1681 	.db #0x00	; 0
      0007CA 00                    1682 	.db #0x00	; 0
      0007CB 40                    1683 	.db #0x40	; 64
      0007CC 41                    1684 	.db #0x41	; 65	'A'
      0007CD 41                    1685 	.db #0x41	; 65	'A'
      0007CE E3                    1686 	.db #0xe3	; 227
      0007CF 00                    1687 	.db #0x00	; 0
      0007D0 40                    1688 	.db #0x40	; 64
      0007D1 02                    1689 	.db #0x02	; 2
      0007D2 00                    1690 	.db #0x00	; 0
      0007D3 00                    1691 	.db #0x00	; 0
      0007D4 00                    1692 	.db #0x00	; 0
      0007D5 00                    1693 	.db #0x00	; 0
      0007D6 00                    1694 	.db #0x00	; 0
      0007D7 80                    1695 	.db #0x80	; 128
      0007D8 00                    1696 	.db #0x00	; 0
      0007D9 80                    1697 	.db #0x80	; 128
      0007DA 02                    1698 	.db #0x02	; 2
      0007DB 00                    1699 	.db #0x00	; 0
      0007DC 00                    1700 	.db #0x00	; 0
      0007DD 40                    1701 	.db #0x40	; 64
      0007DE 40                    1702 	.db #0x40	; 64
      0007DF 40                    1703 	.db #0x40	; 64
      0007E0 E0                    1704 	.db #0xe0	; 224
      0007E1 00                    1705 	.db #0x00	; 0
      0007E2 40                    1706 	.db #0x40	; 64
      0007E3 02                    1707 	.db #0x02	; 2
      0007E4 00                    1708 	.db #0x00	; 0
      0007E5 00                    1709 	.db #0x00	; 0
      0007E6 00                    1710 	.db #0x00	; 0
      0007E7 00                    1711 	.db #0x00	; 0
      0007E8 00                    1712 	.db #0x00	; 0
      0007E9 00                    1713 	.db #0x00	; 0
      0007EA 00                    1714 	.db #0x00	; 0
      0007EB 40                    1715 	.db #0x40	; 64
      0007EC 02                    1716 	.db #0x02	; 2
      0007ED 0D                    1717 	.db #0x0d	; 13
      0007EE 26                    1718 	.db #0x26	; 38
      0007EF 17                    1719 	.db #0x17	; 23
      0007F0 26                    1720 	.db #0x26	; 38
      0007F1 08                    1721 	.db #0x08	; 8
      0007F2 52                    1722 	.db #0x52	; 82	'R'
      0007F3 2B                    1723 	.db #0x2b	; 43
      0007F4 19                    1724 	.db #0x19	; 25
      0007F5 02                    1725 	.db #0x02	; 2
      0007F6 5D                    1726 	.db #0x5d	; 93
      0007F7 38                    1727 	.db #0x38	; 56	'8'
      0007F8 27                    1728 	.db #0x27	; 39
      0007F9 CE                    1729 	.db #0xce	; 206
      0007FA 14                    1730 	.db #0x14	; 20
      0007FB BB                    1731 	.db #0xbb	; 187
      0007FC CB                    1732 	.db #0xcb	; 203
      0007FD 87                    1733 	.db #0x87	; 135
      0007FE 02                    1734 	.db #0x02	; 2
      0007FF 96                    1735 	.db #0x96	; 150
      000800 6E                    1736 	.db #0x6e	; 110	'n'
      000801 6C                    1737 	.db #0x6c	; 108	'l'
      000802 40                    1738 	.db #0x40	; 64
      000803 D6                    1739 	.db #0xd6	; 214
      000804 34                    1740 	.db #0x34	; 52	'4'
      000805 31                    1741 	.db #0x31	; 49	'1'
      000806 BB                    1742 	.db #0xbb	; 187
      000807 02                    1743 	.db #0x02	; 2
      000808 00                    1744 	.db #0x00	; 0
      000809 00                    1745 	.db #0x00	; 0
      00080A 00                    1746 	.db #0x00	; 0
      00080B 00                    1747 	.db #0x00	; 0
      00080C 00                    1748 	.db #0x00	; 0
      00080D 80                    1749 	.db #0x80	; 128
      00080E 00                    1750 	.db #0x00	; 0
      00080F 00                    1751 	.db #0x00	; 0
      000810 02                    1752 	.db #0x02	; 2
      000811 00                    1753 	.db #0x00	; 0
      000812 00                    1754 	.db #0x00	; 0
      000813 07                    1755 	.db #0x07	; 7
      000814 0A                    1756 	.db #0x0a	; 10
      000815 00                    1757 	.db #0x00	; 0
      000816 00                    1758 	.db #0x00	; 0
      000817 00                    1759 	.db #0x00	; 0
      000818 00                    1760 	.db #0x00	; 0
      000819 02                    1761 	.db #0x02	; 2
      00081A C1                    1762 	.db #0xc1	; 193
      00081B 40                    1763 	.db #0x40	; 64
      00081C FF                    1764 	.db #0xff	; 255
      00081D AA                    1765 	.db #0xaa	; 170
      00081E 00                    1766 	.db #0x00	; 0
      00081F 40                    1767 	.db #0x40	; 64
      000820 C0                    1768 	.db #0xc0	; 192
      000821 40                    1769 	.db #0x40	; 64
      000822 02                    1770 	.db #0x02	; 2
      000823 80                    1771 	.db #0x80	; 128
      000824 80                    1772 	.db #0x80	; 128
      000825 F3                    1773 	.db #0xf3	; 243
      000826 AA                    1774 	.db #0xaa	; 170
      000827 00                    1775 	.db #0x00	; 0
      000828 40                    1776 	.db #0x40	; 64
      000829 C0                    1777 	.db #0xc0	; 192
      00082A 40                    1778 	.db #0x40	; 64
      00082B 02                    1779 	.db #0x02	; 2
      00082C C0                    1780 	.db #0xc0	; 192
      00082D 40                    1781 	.db #0x40	; 64
      00082E FF                    1782 	.db #0xff	; 255
      00082F AA                    1783 	.db #0xaa	; 170
      000830 00                    1784 	.db #0x00	; 0
      000831 40                    1785 	.db #0x40	; 64
      000832 C0                    1786 	.db #0xc0	; 192
      000833 40                    1787 	.db #0x40	; 64
      000834 02                    1788 	.db #0x02	; 2
      000835 C0                    1789 	.db #0xc0	; 192
      000836 40                    1790 	.db #0x40	; 64
      000837 F0                    1791 	.db #0xf0	; 240
      000838 A0                    1792 	.db #0xa0	; 160
      000839 00                    1793 	.db #0x00	; 0
      00083A 40                    1794 	.db #0x40	; 64
      00083B C0                    1795 	.db #0xc0	; 192
      00083C 40                    1796 	.db #0x40	; 64
      00083D 02                    1797 	.db #0x02	; 2
      00083E 44                    1798 	.db #0x44	; 68	'D'
      00083F 31                    1799 	.db #0x31	; 49	'1'
      000840 02                    1800 	.db #0x02	; 2
      000841 1A                    1801 	.db #0x1a	; 26
      000842 53                    1802 	.db #0x53	; 83	'S'
      000843 24                    1803 	.db #0x24	; 36
      000844 15                    1804 	.db #0x15	; 21
      000845 01                    1805 	.db #0x01	; 1
      000846 02                    1806 	.db #0x02	; 2
      000847 31                    1807 	.db #0x31	; 49	'1'
      000848 68                    1808 	.db #0x68	; 104	'h'
      000849 DB                    1809 	.db #0xdb	; 219
      00084A 33                    1810 	.db #0x33	; 51	'3'
      00084B 09                    1811 	.db #0x09	; 9
      00084C 59                    1812 	.db #0x59	; 89	'Y'
      00084D CC                    1813 	.db #0xcc	; 204
      00084E 63                    1814 	.db #0x63	; 99	'c'
      00084F 02                    1815 	.db #0x02	; 2
      000850 90                    1816 	.db #0x90	; 144
      000851 0E                    1817 	.db #0x0e	; 14
      000852 9C                    1818 	.db #0x9c	; 156
      000853 C9                    1819 	.db #0xc9	; 201
      000854 83                    1820 	.db #0x83	; 131
      000855 71                    1821 	.db #0x71	; 113	'q'
      000856 A6                    1822 	.db #0xa6	; 166
      000857 A8                    1823 	.db #0xa8	; 168
      000858 02                    1824 	.db #0x02	; 2
      000859 00                    1825 	.db #0x00	; 0
      00085A 00                    1826 	.db #0x00	; 0
      00085B 80                    1827 	.db #0x80	; 128
      00085C 00                    1828 	.db #0x00	; 0
      00085D 00                    1829 	.db #0x00	; 0
      00085E 80                    1830 	.db #0x80	; 128
      00085F 80                    1831 	.db #0x80	; 128
      000860 00                    1832 	.db #0x00	; 0
      000861 02                    1833 	.db #0x02	; 2
      000862 00                    1834 	.db #0x00	; 0
      000863 00                    1835 	.db #0x00	; 0
      000864 0F                    1836 	.db #0x0f	; 15
      000865 0A                    1837 	.db #0x0a	; 10
      000866 00                    1838 	.db #0x00	; 0
      000867 00                    1839 	.db #0x00	; 0
      000868 00                    1840 	.db #0x00	; 0
      000869 00                    1841 	.db #0x00	; 0
      00086A 02                    1842 	.db #0x02	; 2
      00086B C0                    1843 	.db #0xc0	; 192
      00086C 40                    1844 	.db #0x40	; 64
      00086D FD                    1845 	.db #0xfd	; 253
      00086E AC                    1846 	.db #0xac	; 172
      00086F 00                    1847 	.db #0x00	; 0
      000870 40                    1848 	.db #0x40	; 64
      000871 C0                    1849 	.db #0xc0	; 192
      000872 40                    1850 	.db #0x40	; 64
      000873 02                    1851 	.db #0x02	; 2
      000874 C0                    1852 	.db #0xc0	; 192
      000875 40                    1853 	.db #0x40	; 64
      000876 FF                    1854 	.db #0xff	; 255
      000877 AA                    1855 	.db #0xaa	; 170
      000878 00                    1856 	.db #0x00	; 0
      000879 20                    1857 	.db #0x20	; 32
      00087A 20                    1858 	.db #0x20	; 32
      00087B 20                    1859 	.db #0x20	; 32
      00087C 02                    1860 	.db #0x02	; 2
      00087D C0                    1861 	.db #0xc0	; 192
      00087E 40                    1862 	.db #0x40	; 64
      00087F F7                    1863 	.db #0xf7	; 247
      000880 A2                    1864 	.db #0xa2	; 162
      000881 00                    1865 	.db #0x00	; 0
      000882 40                    1866 	.db #0x40	; 64
      000883 C0                    1867 	.db #0xc0	; 192
      000884 40                    1868 	.db #0x40	; 64
      000885 02                    1869 	.db #0x02	; 2
      000886 1A                    1870 	.db #0x1a	; 26
      000887 03                    1871 	.db #0x03	; 3
      000888 05                    1872 	.db #0x05	; 5
      000889 00                    1873 	.db #0x00	; 0
      00088A 00                    1874 	.db #0x00	; 0
      00088B 00                    1875 	.db #0x00	; 0
      00088C 00                    1876 	.db #0x00	; 0
      00088D 00                    1877 	.db #0x00	; 0
      00088E 02                    1878 	.db #0x02	; 2
      00088F 2D                    1879 	.db #0x2d	; 45
      000890 46                    1880 	.db #0x46	; 70	'F'
      000891 28                    1881 	.db #0x28	; 40
      000892 54                    1882 	.db #0x54	; 84	'T'
      000893 1E                    1883 	.db #0x1e	; 30
      000894 3E                    1884 	.db #0x3e	; 62
      000895 7C                    1885 	.db #0x7c	; 124
      000896 BE                    1886 	.db #0xbe	; 190
      000897 02                    1887 	.db #0x02	; 2
      000898 5C                    1888 	.db #0x5c	; 92
      000899 AE                    1889 	.db #0xae	; 174
      00089A 84                    1890 	.db #0x84	; 132
      00089B 20                    1891 	.db #0x20	; 32
      00089C 00                    1892 	.db #0x00	; 0
      00089D 00                    1893 	.db #0x00	; 0
      00089E 00                    1894 	.db #0x00	; 0
      00089F 00                    1895 	.db #0x00	; 0
      0008A0 02                    1896 	.db #0x02	; 2
      0008A1 40                    1897 	.db #0x40	; 64
      0008A2 40                    1898 	.db #0x40	; 64
      0008A3 50                    1899 	.db #0x50	; 80	'P'
      0008A4 4A                    1900 	.db #0x4a	; 74	'J'
      0008A5 24                    1901 	.db #0x24	; 36
      0008A6 A6                    1902 	.db #0xa6	; 166
      0008A7 A9                    1903 	.db #0xa9	; 169
      0008A8 56                    1904 	.db #0x56	; 86	'V'
      0008A9 02                    1905 	.db #0x02	; 2
      0008AA 08                    1906 	.db #0x08	; 8
      0008AB 4A                    1907 	.db #0x4a	; 74	'J'
      0008AC 52                    1908 	.db #0x52	; 82	'R'
      0008AD 53                    1909 	.db #0x53	; 83	'S'
      0008AE A2                    1910 	.db #0xa2	; 162
      0008AF AA                    1911 	.db #0xaa	; 170
      0008B0 D3                    1912 	.db #0xd3	; 211
      0008B1 AE                    1913 	.db #0xae	; 174
      0008B2 02                    1914 	.db #0x02	; 2
      0008B3 C8                    1915 	.db #0xc8	; 200
      0008B4 44                    1916 	.db #0x44	; 68	'D'
      0008B5 22                    1917 	.db #0x22	; 34
      0008B6 AA                    1918 	.db #0xaa	; 170
      0008B7 49                    1919 	.db #0x49	; 73	'I'
      0008B8 49                    1920 	.db #0x49	; 73	'I'
      0008B9 BA                    1921 	.db #0xba	; 186
      0008BA B7                    1922 	.db #0xb7	; 183
      0008BB 02                    1923 	.db #0x02	; 2
      0008BC 60                    1924 	.db #0x60	; 96
      0008BD 60                    1925 	.db #0x60	; 96
      0008BE 50                    1926 	.db #0x50	; 80	'P'
      0008BF 4A                    1927 	.db #0x4a	; 74	'J'
      0008C0 24                    1928 	.db #0x24	; 36
      0008C1 A6                    1929 	.db #0xa6	; 166
      0008C2 A9                    1930 	.db #0xa9	; 169
      0008C3 56                    1931 	.db #0x56	; 86	'V'
      0008C4 02                    1932 	.db #0x02	; 2
      0008C5 C8                    1933 	.db #0xc8	; 200
      0008C6 4A                    1934 	.db #0x4a	; 74	'J'
      0008C7 52                    1935 	.db #0x52	; 82	'R'
      0008C8 53                    1936 	.db #0x53	; 83	'S'
      0008C9 A2                    1937 	.db #0xa2	; 162
      0008CA AA                    1938 	.db #0xaa	; 170
      0008CB D3                    1939 	.db #0xd3	; 211
      0008CC AE                    1940 	.db #0xae	; 174
      0008CD 02                    1941 	.db #0x02	; 2
      0008CE C9                    1942 	.db #0xc9	; 201
      0008CF 4A                    1943 	.db #0x4a	; 74	'J'
      0008D0 2A                    1944 	.db #0x2a	; 42
      0008D1 2C                    1945 	.db #0x2c	; 44
      0008D2 F0                    1946 	.db #0xf0	; 240
      0008D3 8D                    1947 	.db #0x8d	; 141
      0008D4 5A                    1948 	.db #0x5a	; 90	'Z'
      0008D5 B5                    1949 	.db #0xb5	; 181
      0008D6 02                    1950 	.db #0x02	; 2
      0008D7 C0                    1951 	.db #0xc0	; 192
      0008D8 40                    1952 	.db #0x40	; 64
      0008D9 50                    1953 	.db #0x50	; 80	'P'
      0008DA 4A                    1954 	.db #0x4a	; 74	'J'
      0008DB 24                    1955 	.db #0x24	; 36
      0008DC A6                    1956 	.db #0xa6	; 166
      0008DD A9                    1957 	.db #0xa9	; 169
      0008DE 56                    1958 	.db #0x56	; 86	'V'
      0008DF 02                    1959 	.db #0x02	; 2
      0008E0 09                    1960 	.db #0x09	; 9
      0008E1 4B                    1961 	.db #0x4b	; 75	'K'
      0008E2 52                    1962 	.db #0x52	; 82	'R'
      0008E3 53                    1963 	.db #0x53	; 83	'S'
      0008E4 A2                    1964 	.db #0xa2	; 162
      0008E5 AA                    1965 	.db #0xaa	; 170
      0008E6 D3                    1966 	.db #0xd3	; 211
      0008E7 AE                    1967 	.db #0xae	; 174
      0008E8 02                    1968 	.db #0x02	; 2
      0008E9 BF                    1969 	.db #0xbf	; 191
      0008EA 65                    1970 	.db #0x65	; 101	'e'
      0008EB 22                    1971 	.db #0x22	; 34
      0008EC AA                    1972 	.db #0xaa	; 170
      0008ED 49                    1973 	.db #0x49	; 73	'I'
      0008EE 49                    1974 	.db #0x49	; 73	'I'
      0008EF BA                    1975 	.db #0xba	; 186
      0008F0 B7                    1976 	.db #0xb7	; 183
      0008F1 02                    1977 	.db #0x02	; 2
      0008F2 40                    1978 	.db #0x40	; 64
      0008F3 C0                    1979 	.db #0xc0	; 192
      0008F4 50                    1980 	.db #0x50	; 80	'P'
      0008F5 4A                    1981 	.db #0x4a	; 74	'J'
      0008F6 24                    1982 	.db #0x24	; 36
      0008F7 A6                    1983 	.db #0xa6	; 166
      0008F8 A9                    1984 	.db #0xa9	; 169
      0008F9 56                    1985 	.db #0x56	; 86	'V'
      0008FA 02                    1986 	.db #0x02	; 2
      0008FB 09                    1987 	.db #0x09	; 9
      0008FC 0A                    1988 	.db #0x0a	; 10
      0008FD 2A                    1989 	.db #0x2a	; 42
      0008FE 2C                    1990 	.db #0x2c	; 44
      0008FF F0                    1991 	.db #0xf0	; 240
      000900 8D                    1992 	.db #0x8d	; 141
      000901 5A                    1993 	.db #0x5a	; 90	'Z'
      000902 B5                    1994 	.db #0xb5	; 181
      000903 02                    1995 	.db #0x02	; 2
      000904 00                    1996 	.db #0x00	; 0
      000905 00                    1997 	.db #0x00	; 0
      000906 18                    1998 	.db #0x18	; 24
      000907 20                    1999 	.db #0x20	; 32
      000908 20                    2000 	.db #0x20	; 32
      000909 40                    2001 	.db #0x40	; 64
      00090A 40                    2002 	.db #0x40	; 64
      00090B 90                    2003 	.db #0x90	; 144
      00090C 03                    2004 	.db #0x03	; 3
      00090D 30                    2005 	.db #0x30	; 48	'0'
      00090E 7E                    2006 	.db #0x7e	; 126
      00090F FE                    2007 	.db #0xfe	; 254
      000910 CF                    2008 	.db #0xcf	; 207
      000911 A5                    2009 	.db #0xa5	; 165
      000912 68                    2010 	.db #0x68	; 104	'h'
      000913 AB                    2011 	.db #0xab	; 171
      000914 9A                    2012 	.db #0x9a	; 154
      000915 03                    2013 	.db #0x03	; 3
      000916 70                    2014 	.db #0x70	; 112	'p'
      000917 FD                    2015 	.db #0xfd	; 253
      000918 F7                    2016 	.db #0xf7	; 247
      000919 75                    2017 	.db #0x75	; 117	'u'
      00091A E3                    2018 	.db #0xe3	; 227
      00091B A0                    2019 	.db #0xa0	; 160
      00091C 15                    2020 	.db #0x15	; 21
      00091D 76                    2021 	.db #0x76	; 118	'v'
      00091E 03                    2022 	.db #0x03	; 3
      00091F 38                    2023 	.db #0x38	; 56	'8'
      000920 DF                    2024 	.db #0xdf	; 223
      000921 DF                    2025 	.db #0xdf	; 223
      000922 7B                    2026 	.db #0x7b	; 123
      000923 52                    2027 	.db #0x52	; 82	'R'
      000924 8C                    2028 	.db #0x8c	; 140
      000925 D6                    2029 	.db #0xd6	; 214
      000926 54                    2030 	.db #0x54	; 84	'T'
      000927 03                    2031 	.db #0x03	; 3
      000928 38                    2032 	.db #0x38	; 56	'8'
      000929 63                    2033 	.db #0x63	; 99	'c'
      00092A CB                    2034 	.db #0xcb	; 203
      00092B AF                    2035 	.db #0xaf	; 175
      00092C E7                    2036 	.db #0xe7	; 231
      00092D 81                    2037 	.db #0x81	; 129
      00092E 2A                    2038 	.db #0x2a	; 42
      00092F EC                    2039 	.db #0xec	; 236
      000930 03                    2040 	.db #0x03	; 3
      000931 38                    2041 	.db #0x38	; 56	'8'
      000932 63                    2042 	.db #0x63	; 99	'c'
      000933 CB                    2043 	.db #0xcb	; 203
      000934 AF                    2044 	.db #0xaf	; 175
      000935 E7                    2045 	.db #0xe7	; 231
      000936 81                    2046 	.db #0x81	; 129
      000937 2B                    2047 	.db #0x2b	; 43
      000938 ED                    2048 	.db #0xed	; 237
      000939 02                    2049 	.db #0x02	; 2
      00093A A0                    2050 	.db #0xa0	; 160
      00093B A4                    2051 	.db #0xa4	; 164
      00093C 48                    2052 	.db #0x48	; 72	'H'
      00093D 28                    2053 	.db #0x28	; 40
      00093E 93                    2054 	.db #0x93	; 147
      00093F EA                    2055 	.db #0xea	; 234
      000940 ED                    2056 	.db #0xed	; 237
      000941 D6                    2057 	.db #0xd6	; 214
      000942 03                    2058 	.db #0x03	; 3
      000943 F0                    2059 	.db #0xf0	; 240
      000944 FE                    2060 	.db #0xfe	; 254
      000945 FE                    2061 	.db #0xfe	; 254
      000946 CF                    2062 	.db #0xcf	; 207
      000947 A5                    2063 	.db #0xa5	; 165
      000948 68                    2064 	.db #0x68	; 104	'h'
      000949 AB                    2065 	.db #0xab	; 171
      00094A 9A                    2066 	.db #0x9a	; 154
      00094B 02                    2067 	.db #0x02	; 2
      00094C 03                    2068 	.db #0x03	; 3
      00094D 1C                    2069 	.db #0x1c	; 28
      00094E E9                    2070 	.db #0xe9	; 233
      00094F 40                    2071 	.db #0x40	; 64
      000950 10                    2072 	.db #0x10	; 16
      000951 00                    2073 	.db #0x00	; 0
      000952 00                    2074 	.db #0x00	; 0
      000953 00                    2075 	.db #0x00	; 0
      000954 02                    2076 	.db #0x02	; 2
      000955 C0                    2077 	.db #0xc0	; 192
      000956 38                    2078 	.db #0x38	; 56	'8'
      000957 27                    2079 	.db #0x27	; 39
      000958 41                    2080 	.db #0x41	; 65	'A'
      000959 04                    2081 	.db #0x04	; 4
      00095A 00                    2082 	.db #0x00	; 0
      00095B 00                    2083 	.db #0x00	; 0
      00095C 00                    2084 	.db #0x00	; 0
      00095D 02                    2085 	.db #0x02	; 2
      00095E C0                    2086 	.db #0xc0	; 192
      00095F 38                    2087 	.db #0x38	; 56	'8'
      000960 47                    2088 	.db #0x47	; 71	'G'
      000961 12                    2089 	.db #0x12	; 18
      000962 04                    2090 	.db #0x04	; 4
      000963 00                    2091 	.db #0x00	; 0
      000964 00                    2092 	.db #0x00	; 0
      000965 00                    2093 	.db #0x00	; 0
      000966 02                    2094 	.db #0x02	; 2
      000967 03                    2095 	.db #0x03	; 3
      000968 1C                    2096 	.db #0x1c	; 28
      000969 E5                    2097 	.db #0xe5	; 229
      00096A 12                    2098 	.db #0x12	; 18
      00096B 40                    2099 	.db #0x40	; 64
      00096C 00                    2100 	.db #0x00	; 0
      00096D 00                    2101 	.db #0x00	; 0
      00096E 00                    2102 	.db #0x00	; 0
      00096F 03                    2103 	.db #0x03	; 3
      000970 DE                    2104 	.db #0xde	; 222
      000971 FA                    2105 	.db #0xfa	; 250
      000972 DF                    2106 	.db #0xdf	; 223
      000973 BB                    2107 	.db #0xbb	; 187
      000974 BB                    2108 	.db #0xbb	; 187
      000975 29                    2109 	.db #0x29	; 41
      000976 11                    2110 	.db #0x11	; 17
      000977 00                    2111 	.db #0x00	; 0
      000978 03                    2112 	.db #0x03	; 3
      000979 EA                    2113 	.db #0xea	; 234
      00097A B7                    2114 	.db #0xb7	; 183
      00097B 14                    2115 	.db #0x14	; 20
      00097C 1C                    2116 	.db #0x1c	; 28
      00097D 0C                    2117 	.db #0x0c	; 12
      00097E 0C                    2118 	.db #0x0c	; 12
      00097F 08                    2119 	.db #0x08	; 8
      000980 08                    2120 	.db #0x08	; 8
      000981 03                    2121 	.db #0x03	; 3
      000982 00                    2122 	.db #0x00	; 0
      000983 FD                    2123 	.db #0xfd	; 253
      000984 27                    2124 	.db #0x27	; 39
      000985 02                    2125 	.db #0x02	; 2
      000986 02                    2126 	.db #0x02	; 2
      000987 02                    2127 	.db #0x02	; 2
      000988 00                    2128 	.db #0x00	; 0
      000989 00                    2129 	.db #0x00	; 0
      00098A 03                    2130 	.db #0x03	; 3
      00098B 00                    2131 	.db #0x00	; 0
      00098C EE                    2132 	.db #0xee	; 238
      00098D 11                    2133 	.db #0x11	; 17
      00098E 00                    2134 	.db #0x00	; 0
      00098F 00                    2135 	.db #0x00	; 0
      000990 00                    2136 	.db #0x00	; 0
      000991 00                    2137 	.db #0x00	; 0
      000992 00                    2138 	.db #0x00	; 0
      000993 03                    2139 	.db #0x03	; 3
      000994 7C                    2140 	.db #0x7c	; 124
      000995 FB                    2141 	.db #0xfb	; 251
      000996 FF                    2142 	.db #0xff	; 255
      000997 FF                    2143 	.db #0xff	; 255
      000998 DD                    2144 	.db #0xdd	; 221
      000999 69                    2145 	.db #0x69	; 105	'i'
      00099A 28                    2146 	.db #0x28	; 40
      00099B 00                    2147 	.db #0x00	; 0
      00099C 03                    2148 	.db #0x03	; 3
      00099D 36                    2149 	.db #0x36	; 54	'6'
      00099E F9                    2150 	.db #0xf9	; 249
      00099F D5                    2151 	.db #0xd5	; 213
      0009A0 BA                    2152 	.db #0xba	; 186
      0009A1 D4                    2153 	.db #0xd4	; 212
      0009A2 4C                    2154 	.db #0x4c	; 76	'L'
      0009A3 08                    2155 	.db #0x08	; 8
      0009A4 00                    2156 	.db #0x00	; 0
      0009A5                       2157 _enemies_34_1_tiles:
      0009A5 01                    2158 	.db #0x01	; 1
      0009A6 FF                    2159 	.db #0xff	; 255
      0009A7 38                    2160 	.db #0x38	; 56	'8'
      0009A8 D7                    2161 	.db #0xd7	; 215
      0009A9 7C                    2162 	.db #0x7c	; 124
      0009AA AB                    2163 	.db #0xab	; 171
      0009AB FE                    2164 	.db #0xfe	; 254
      0009AC D3                    2165 	.db #0xd3	; 211
      0009AD FE                    2166 	.db #0xfe	; 254
      0009AE 83                    2167 	.db #0x83	; 131
      0009AF FE                    2168 	.db #0xfe	; 254
      0009B0 C6                    2169 	.db #0xc6	; 198
      0009B1 7C                    2170 	.db #0x7c	; 124
      0009B2 7C                    2171 	.db #0x7c	; 124
      0009B3 38                    2172 	.db #0x38	; 56	'8'
      0009B4 38                    2173 	.db #0x38	; 56	'8'
      0009B5 00                    2174 	.db #0x00	; 0
      0009B6                       2175 _room_4_1_map:
      0009B6 BC 00                 2176 	.dw #0x00bc
      0009B8 E4                    2177 	.db #0xe4	; 228
      0009B9 00                    2178 	.db #0x00	; 0
      0009BA 01                    2179 	.db #0x01	; 1
      0009BB 02                    2180 	.db #0x02	; 2
      0009BC 03                    2181 	.db #0x03	; 3
      0009BD 04                    2182 	.db #0x04	; 4
      0009BE D8                    2183 	.db #0xd8	; 216
      0009BF 00                    2184 	.db #0x00	; 0
      0009C0 05                    2185 	.db #0x05	; 5
      0009C1 06                    2186 	.db #0x06	; 6
      0009C2 07                    2187 	.db #0x07	; 7
      0009C3 08                    2188 	.db #0x08	; 8
      0009C4 09                    2189 	.db #0x09	; 9
      0009C5 0A                    2190 	.db #0x0a	; 10
      0009C6 0B                    2191 	.db #0x0b	; 11
      0009C7 0C                    2192 	.db #0x0c	; 12
      0009C8 D6                    2193 	.db #0xd6	; 214
      0009C9 00                    2194 	.db #0x00	; 0
      0009CA 0D                    2195 	.db #0x0d	; 13
      0009CB 0E                    2196 	.db #0x0e	; 14
      0009CC 0F                    2197 	.db #0x0f	; 15
      0009CD 10                    2198 	.db #0x10	; 16
      0009CE 11                    2199 	.db #0x11	; 17
      0009CF 12                    2200 	.db #0x12	; 18
      0009D0 13                    2201 	.db #0x13	; 19
      0009D1 14                    2202 	.db #0x14	; 20
      0009D2 FF                    2203 	.db #0xff	; 255
      0009D3 00                    2204 	.db #0x00	; 0
      0009D4 FF                    2205 	.db #0xff	; 255
      0009D5 00                    2206 	.db #0x00	; 0
      0009D6 E2                    2207 	.db #0xe2	; 226
      0009D7 00                    2208 	.db #0x00	; 0
      0009D8 15                    2209 	.db #0x15	; 21
      0009D9 16                    2210 	.db #0x16	; 22
      0009DA 17                    2211 	.db #0x17	; 23
      0009DB 18                    2212 	.db #0x18	; 24
      0009DC DA                    2213 	.db #0xda	; 218
      0009DD 00                    2214 	.db #0x00	; 0
      0009DE 19                    2215 	.db #0x19	; 25
      0009DF 1A                    2216 	.db #0x1a	; 26
      0009E0 1B                    2217 	.db #0x1b	; 27
      0009E1 1C                    2218 	.db #0x1c	; 28
      0009E2 DA                    2219 	.db #0xda	; 218
      0009E3 00                    2220 	.db #0x00	; 0
      0009E4 1D                    2221 	.db #0x1d	; 29
      0009E5 1E                    2222 	.db #0x1e	; 30
      0009E6 1F                    2223 	.db #0x1f	; 31
      0009E7 20                    2224 	.db #0x20	; 32
      0009E8 21                    2225 	.db #0x21	; 33
      0009E9 CC                    2226 	.db #0xcc	; 204
      0009EA 00                    2227 	.db #0x00	; 0
      0009EB 22                    2228 	.db #0x22	; 34
      0009EC 23                    2229 	.db #0x23	; 35
      0009ED 24                    2230 	.db #0x24	; 36
      0009EE 25                    2231 	.db #0x25	; 37
      0009EF 26                    2232 	.db #0x26	; 38
      0009F0 C2                    2233 	.db #0xc2	; 194
      0009F1 00                    2234 	.db #0x00	; 0
      0009F2 27                    2235 	.db #0x27	; 39
      0009F3 28                    2236 	.db #0x28	; 40
      0009F4 C4                    2237 	.db #0xc4	; 196
      0009F5 00                    2238 	.db #0x00	; 0
      0009F6 29                    2239 	.db #0x29	; 41
      0009F7 2A                    2240 	.db #0x2a	; 42
      0009F8 2B                    2241 	.db #0x2b	; 43
      0009F9 2C                    2242 	.db #0x2c	; 44
      0009FA 2D                    2243 	.db #0x2d	; 45
      0009FB CC                    2244 	.db #0xcc	; 204
      0009FC 00                    2245 	.db #0x00	; 0
      0009FD 2E                    2246 	.db #0x2e	; 46
      0009FE 2F                    2247 	.db #0x2f	; 47
      0009FF 30                    2248 	.db #0x30	; 48	'0'
      000A00 31                    2249 	.db #0x31	; 49	'1'
      000A01 32                    2250 	.db #0x32	; 50	'2'
      000A02 C2                    2251 	.db #0xc2	; 194
      000A03 00                    2252 	.db #0x00	; 0
      000A04 33                    2253 	.db #0x33	; 51	'3'
      000A05 34                    2254 	.db #0x34	; 52	'4'
      000A06 C3                    2255 	.db #0xc3	; 195
      000A07 00                    2256 	.db #0x00	; 0
      000A08 35                    2257 	.db #0x35	; 53	'5'
      000A09 36                    2258 	.db #0x36	; 54	'6'
      000A0A 37                    2259 	.db #0x37	; 55	'7'
      000A0B 38                    2260 	.db #0x38	; 56	'8'
      000A0C 39                    2261 	.db #0x39	; 57	'9'
      000A0D 3A                    2262 	.db #0x3a	; 58
      000A0E CB                    2263 	.db #0xcb	; 203
      000A0F 00                    2264 	.db #0x00	; 0
      000A10 3B                    2265 	.db #0x3b	; 59
      000A11 3C                    2266 	.db #0x3c	; 60
      000A12 3D                    2267 	.db #0x3d	; 61
      000A13 3E                    2268 	.db #0x3e	; 62
      000A14 3F                    2269 	.db #0x3f	; 63
      000A15 40                    2270 	.db #0x40	; 64
      000A16 C2                    2271 	.db #0xc2	; 194
      000A17 00                    2272 	.db #0x00	; 0
      000A18 41                    2273 	.db #0x41	; 65	'A'
      000A19 42                    2274 	.db #0x42	; 66	'B'
      000A1A 43                    2275 	.db #0x43	; 67	'C'
      000A1B 44                    2276 	.db #0x44	; 68	'D'
      000A1C 45                    2277 	.db #0x45	; 69	'E'
      000A1D 46                    2278 	.db #0x46	; 70	'F'
      000A1E 47                    2279 	.db #0x47	; 71	'G'
      000A1F 48                    2280 	.db #0x48	; 72	'H'
      000A20 49                    2281 	.db #0x49	; 73	'I'
      000A21 4A                    2282 	.db #0x4a	; 74	'J'
      000A22 4B                    2283 	.db #0x4b	; 75	'K'
      000A23 43                    2284 	.db #0x43	; 67	'C'
      000A24 44                    2285 	.db #0x44	; 68	'D'
      000A25 4C                    2286 	.db #0x4c	; 76	'L'
      000A26 C8                    2287 	.db #0xc8	; 200
      000A27 00                    2288 	.db #0x00	; 0
      000A28 4D                    2289 	.db #0x4d	; 77	'M'
      000A29 4E                    2290 	.db #0x4e	; 78	'N'
      000A2A 4F                    2291 	.db #0x4f	; 79	'O'
      000A2B 50                    2292 	.db #0x50	; 80	'P'
      000A2C 51                    2293 	.db #0x51	; 81	'Q'
      000A2D 52                    2294 	.db #0x52	; 82	'R'
      000A2E 4F                    2295 	.db #0x4f	; 79	'O'
      000A2F 50                    2296 	.db #0x50	; 80	'P'
      000A30 51                    2297 	.db #0x51	; 81	'Q'
      000A31 52                    2298 	.db #0x52	; 82	'R'
      000A32 4F                    2299 	.db #0x4f	; 79	'O'
      000A33 50                    2300 	.db #0x50	; 80	'P'
      000A34 51                    2301 	.db #0x51	; 81	'Q'
      000A35 52                    2302 	.db #0x52	; 82	'R'
      000A36 4F                    2303 	.db #0x4f	; 79	'O'
      000A37 50                    2304 	.db #0x50	; 80	'P'
      000A38 51                    2305 	.db #0x51	; 81	'Q'
      000A39 52                    2306 	.db #0x52	; 82	'R'
      000A3A 4F                    2307 	.db #0x4f	; 79	'O'
      000A3B 50                    2308 	.db #0x50	; 80	'P'
      000A3C 51                    2309 	.db #0x51	; 81	'Q'
      000A3D 52                    2310 	.db #0x52	; 82	'R'
      000A3E 53                    2311 	.db #0x53	; 83	'S'
      000A3F 54                    2312 	.db #0x54	; 84	'T'
      000A40 55                    2313 	.db #0x55	; 85	'U'
      000A41 56                    2314 	.db #0x56	; 86	'V'
      000A42 53                    2315 	.db #0x53	; 83	'S'
      000A43 54                    2316 	.db #0x54	; 84	'T'
      000A44 55                    2317 	.db #0x55	; 85	'U'
      000A45 56                    2318 	.db #0x56	; 86	'V'
      000A46 57                    2319 	.db #0x57	; 87	'W'
      000A47 58                    2320 	.db #0x58	; 88	'X'
      000A48 51                    2321 	.db #0x51	; 81	'Q'
      000A49 52                    2322 	.db #0x52	; 82	'R'
      000A4A 4F                    2323 	.db #0x4f	; 79	'O'
      000A4B 50                    2324 	.db #0x50	; 80	'P'
      000A4C 51                    2325 	.db #0x51	; 81	'Q'
      000A4D 52                    2326 	.db #0x52	; 82	'R'
      000A4E 4F                    2327 	.db #0x4f	; 79	'O'
      000A4F 50                    2328 	.db #0x50	; 80	'P'
      000A50 51                    2329 	.db #0x51	; 81	'Q'
      000A51 52                    2330 	.db #0x52	; 82	'R'
      000A52 4F                    2331 	.db #0x4f	; 79	'O'
      000A53 50                    2332 	.db #0x50	; 80	'P'
      000A54 51                    2333 	.db #0x51	; 81	'Q'
      000A55 52                    2334 	.db #0x52	; 82	'R'
      000A56 4F                    2335 	.db #0x4f	; 79	'O'
      000A57 50                    2336 	.db #0x50	; 80	'P'
      000A58 51                    2337 	.db #0x51	; 81	'Q'
      000A59 52                    2338 	.db #0x52	; 82	'R'
      000A5A 4F                    2339 	.db #0x4f	; 79	'O'
      000A5B 50                    2340 	.db #0x50	; 80	'P'
      000A5C C8                    2341 	.db #0xc8	; 200
      000A5D 00                    2342 	.db #0x00	; 0
      000A5E 4F                    2343 	.db #0x4f	; 79	'O'
      000A5F 50                    2344 	.db #0x50	; 80	'P'
      000A60 51                    2345 	.db #0x51	; 81	'Q'
      000A61 52                    2346 	.db #0x52	; 82	'R'
      000A62 4F                    2347 	.db #0x4f	; 79	'O'
      000A63 50                    2348 	.db #0x50	; 80	'P'
      000A64 51                    2349 	.db #0x51	; 81	'Q'
      000A65 52                    2350 	.db #0x52	; 82	'R'
      000A66 4F                    2351 	.db #0x4f	; 79	'O'
      000A67 50                    2352 	.db #0x50	; 80	'P'
      000A68 51                    2353 	.db #0x51	; 81	'Q'
      000A69 52                    2354 	.db #0x52	; 82	'R'
      000A6A 4F                    2355 	.db #0x4f	; 79	'O'
      000A6B 50                    2356 	.db #0x50	; 80	'P'
      000A6C 51                    2357 	.db #0x51	; 81	'Q'
      000A6D 52                    2358 	.db #0x52	; 82	'R'
      000A6E 4F                    2359 	.db #0x4f	; 79	'O'
      000A6F 50                    2360 	.db #0x50	; 80	'P'
      000A70 51                    2361 	.db #0x51	; 81	'Q'
      000A71 52                    2362 	.db #0x52	; 82	'R'
      000A72 4F                    2363 	.db #0x4f	; 79	'O'
      000A73 50                    2364 	.db #0x50	; 80	'P'
      000A74                       2365 _room_4_1_coll:
      000A74 31 00                 2366 	.dw #0x0031
      000A76 E4                    2367 	.db #0xe4	; 228
      000A77 00                    2368 	.db #0x00	; 0
      000A78 C4                    2369 	.db #0xc4	; 196
      000A79 05                    2370 	.db #0x05	; 5
      000A7A D8                    2371 	.db #0xd8	; 216
      000A7B 00                    2372 	.db #0x00	; 0
      000A7C C8                    2373 	.db #0xc8	; 200
      000A7D 05                    2374 	.db #0x05	; 5
      000A7E D6                    2375 	.db #0xd6	; 214
      000A7F 00                    2376 	.db #0x00	; 0
      000A80 C8                    2377 	.db #0xc8	; 200
      000A81 05                    2378 	.db #0x05	; 5
      000A82 FF                    2379 	.db #0xff	; 255
      000A83 00                    2380 	.db #0x00	; 0
      000A84 FF                    2381 	.db #0xff	; 255
      000A85 00                    2382 	.db #0x00	; 0
      000A86 E2                    2383 	.db #0xe2	; 226
      000A87 00                    2384 	.db #0x00	; 0
      000A88 C4                    2385 	.db #0xc4	; 196
      000A89 04                    2386 	.db #0x04	; 4
      000A8A DA                    2387 	.db #0xda	; 218
      000A8B 00                    2388 	.db #0x00	; 0
      000A8C C4                    2389 	.db #0xc4	; 196
      000A8D 04                    2390 	.db #0x04	; 4
      000A8E DA                    2391 	.db #0xda	; 218
      000A8F 00                    2392 	.db #0x00	; 0
      000A90 C4                    2393 	.db #0xc4	; 196
      000A91 04                    2394 	.db #0x04	; 4
      000A92 DA                    2395 	.db #0xda	; 218
      000A93 00                    2396 	.db #0x00	; 0
      000A94 C4                    2397 	.db #0xc4	; 196
      000A95 04                    2398 	.db #0x04	; 4
      000A96 DA                    2399 	.db #0xda	; 218
      000A97 00                    2400 	.db #0x00	; 0
      000A98 C4                    2401 	.db #0xc4	; 196
      000A99 04                    2402 	.db #0x04	; 4
      000A9A DA                    2403 	.db #0xda	; 218
      000A9B 00                    2404 	.db #0x00	; 0
      000A9C C4                    2405 	.db #0xc4	; 196
      000A9D 04                    2406 	.db #0x04	; 4
      000A9E CC                    2407 	.db #0xcc	; 204
      000A9F 00                    2408 	.db #0x00	; 0
      000AA0 02                    2409 	.db #0x02	; 2
      000AA1 D5                    2410 	.db #0xd5	; 213
      000AA2 01                    2411 	.db #0x01	; 1
      000AA3 C8                    2412 	.db #0xc8	; 200
      000AA4 07                    2413 	.db #0x07	; 7
      000AA5 F4                    2414 	.db #0xf4	; 244
      000AA6 01                    2415 	.db #0x01	; 1
      000AA7                       2416 _room_4_1_tiles:
      000AA7 59                    2417 	.db #0x59	; 89	'Y'
      000AA8 00                    2418 	.db #0x00	; 0
      000AA9 01                    2419 	.db #0x01	; 1
      000AAA 00                    2420 	.db #0x00	; 0
      000AAB 00                    2421 	.db #0x00	; 0
      000AAC 00                    2422 	.db #0x00	; 0
      000AAD 00                    2423 	.db #0x00	; 0
      000AAE 00                    2424 	.db #0x00	; 0
      000AAF 00                    2425 	.db #0x00	; 0
      000AB0 01                    2426 	.db #0x01	; 1
      000AB1 72                    2427 	.db #0x72	; 114	'r'
      000AB2 01                    2428 	.db #0x01	; 1
      000AB3 00                    2429 	.db #0x00	; 0
      000AB4 00                    2430 	.db #0x00	; 0
      000AB5 00                    2431 	.db #0x00	; 0
      000AB6 00                    2432 	.db #0x00	; 0
      000AB7 00                    2433 	.db #0x00	; 0
      000AB8 C0                    2434 	.db #0xc0	; 192
      000AB9 70                    2435 	.db #0x70	; 112	'p'
      000ABA B8                    2436 	.db #0xb8	; 184
      000ABB 01                    2437 	.db #0x01	; 1
      000ABC 00                    2438 	.db #0x00	; 0
      000ABD 00                    2439 	.db #0x00	; 0
      000ABE 00                    2440 	.db #0x00	; 0
      000ABF 00                    2441 	.db #0x00	; 0
      000AC0 00                    2442 	.db #0x00	; 0
      000AC1 03                    2443 	.db #0x03	; 3
      000AC2 0F                    2444 	.db #0x0f	; 15
      000AC3 07                    2445 	.db #0x07	; 7
      000AC4 01                    2446 	.db #0x01	; 1
      000AC5 00                    2447 	.db #0x00	; 0
      000AC6 00                    2448 	.db #0x00	; 0
      000AC7 00                    2449 	.db #0x00	; 0
      000AC8 00                    2450 	.db #0x00	; 0
      000AC9 00                    2451 	.db #0x00	; 0
      000ACA 00                    2452 	.db #0x00	; 0
      000ACB 80                    2453 	.db #0x80	; 128
      000ACC 80                    2454 	.db #0x80	; 128
      000ACD 01                    2455 	.db #0x01	; 1
      000ACE 00                    2456 	.db #0x00	; 0
      000ACF 00                    2457 	.db #0x00	; 0
      000AD0 00                    2458 	.db #0x00	; 0
      000AD1 00                    2459 	.db #0x00	; 0
      000AD2 00                    2460 	.db #0x00	; 0
      000AD3 03                    2461 	.db #0x03	; 3
      000AD4 07                    2462 	.db #0x07	; 7
      000AD5 1F                    2463 	.db #0x1f	; 31
      000AD6 01                    2464 	.db #0x01	; 1
      000AD7 00                    2465 	.db #0x00	; 0
      000AD8 1D                    2466 	.db #0x1d	; 29
      000AD9 3F                    2467 	.db #0x3f	; 63
      000ADA 3F                    2468 	.db #0x3f	; 63
      000ADB 17                    2469 	.db #0x17	; 23
      000ADC 2F                    2470 	.db #0x2f	; 47
      000ADD DB                    2471 	.db #0xdb	; 219
      000ADE B5                    2472 	.db #0xb5	; 181
      000ADF 01                    2473 	.db #0x01	; 1
      000AE0 FB                    2474 	.db #0xfb	; 251
      000AE1 5F                    2475 	.db #0x5f	; 95
      000AE2 AF                    2476 	.db #0xaf	; 175
      000AE3 F5                    2477 	.db #0xf5	; 245
      000AE4 FB                    2478 	.db #0xfb	; 251
      000AE5 F7                    2479 	.db #0xf7	; 247
      000AE6 FF                    2480 	.db #0xff	; 255
      000AE7 FF                    2481 	.db #0xff	; 255
      000AE8 01                    2482 	.db #0x01	; 1
      000AE9 78                    2483 	.db #0x78	; 120	'x'
      000AEA D4                    2484 	.db #0xd4	; 212
      000AEB AE                    2485 	.db #0xae	; 174
      000AEC FD                    2486 	.db #0xfd	; 253
      000AED FB                    2487 	.db #0xfb	; 251
      000AEE DF                    2488 	.db #0xdf	; 223
      000AEF B7                    2489 	.db #0xb7	; 183
      000AF0 EB                    2490 	.db #0xeb	; 235
      000AF1 01                    2491 	.db #0x01	; 1
      000AF2 2E                    2492 	.db #0x2e	; 46
      000AF3 7D                    2493 	.db #0x7d	; 125
      000AF4 7F                    2494 	.db #0x7f	; 127
      000AF5 BD                    2495 	.db #0xbd	; 189
      000AF6 7E                    2496 	.db #0x7e	; 126
      000AF7 FF                    2497 	.db #0xff	; 255
      000AF8 EF                    2498 	.db #0xef	; 239
      000AF9 D5                    2499 	.db #0xd5	; 213
      000AFA 01                    2500 	.db #0x01	; 1
      000AFB 80                    2501 	.db #0x80	; 128
      000AFC 60                    2502 	.db #0x60	; 96
      000AFD F1                    2503 	.db #0xf1	; 241
      000AFE F3                    2504 	.db #0xf3	; 243
      000AFF CF                    2505 	.db #0xcf	; 207
      000B00 F7                    2506 	.db #0xf7	; 247
      000B01 FB                    2507 	.db #0xfb	; 251
      000B02 F5                    2508 	.db #0xf5	; 245
      000B03 01                    2509 	.db #0x01	; 1
      000B04 00                    2510 	.db #0x00	; 0
      000B05 B8                    2511 	.db #0xb8	; 184
      000B06 FC                    2512 	.db #0xfc	; 252
      000B07 FC                    2513 	.db #0xfc	; 252
      000B08 E8                    2514 	.db #0xe8	; 232
      000B09 F4                    2515 	.db #0xf4	; 244
      000B0A DB                    2516 	.db #0xdb	; 219
      000B0B AD                    2517 	.db #0xad	; 173
      000B0C 01                    2518 	.db #0x01	; 1
      000B0D 00                    2519 	.db #0x00	; 0
      000B0E 00                    2520 	.db #0x00	; 0
      000B0F 00                    2521 	.db #0x00	; 0
      000B10 00                    2522 	.db #0x00	; 0
      000B11 00                    2523 	.db #0x00	; 0
      000B12 C0                    2524 	.db #0xc0	; 192
      000B13 E0                    2525 	.db #0xe0	; 224
      000B14 F8                    2526 	.db #0xf8	; 248
      000B15 01                    2527 	.db #0x01	; 1
      000B16 1F                    2528 	.db #0x1f	; 31
      000B17 1F                    2529 	.db #0x1f	; 31
      000B18 6B                    2530 	.db #0x6b	; 107	'k'
      000B19 F5                    2531 	.db #0xf5	; 245
      000B1A EF                    2532 	.db #0xef	; 239
      000B1B 7D                    2533 	.db #0x7d	; 125
      000B1C AA                    2534 	.db #0xaa	; 170
      000B1D 40                    2535 	.db #0x40	; 64
      000B1E 01                    2536 	.db #0x01	; 1
      000B1F FF                    2537 	.db #0xff	; 255
      000B20 FF                    2538 	.db #0xff	; 255
      000B21 F7                    2539 	.db #0xf7	; 247
      000B22 FF                    2540 	.db #0xff	; 255
      000B23 6E                    2541 	.db #0x6e	; 110	'n'
      000B24 B5                    2542 	.db #0xb5	; 181
      000B25 4A                    2543 	.db #0x4a	; 74	'J'
      000B26 A1                    2544 	.db #0xa1	; 161
      000B27 01                    2545 	.db #0x01	; 1
      000B28 BF                    2546 	.db #0xbf	; 191
      000B29 ED                    2547 	.db #0xed	; 237
      000B2A 5F                    2548 	.db #0x5f	; 95
      000B2B AB                    2549 	.db #0xab	; 171
      000B2C D7                    2550 	.db #0xd7	; 215
      000B2D AA                    2551 	.db #0xaa	; 170
      000B2E 75                    2552 	.db #0x75	; 117	'u'
      000B2F 22                    2553 	.db #0x22	; 34
      000B30 01                    2554 	.db #0x01	; 1
      000B31 F7                    2555 	.db #0xf7	; 247
      000B32 FD                    2556 	.db #0xfd	; 253
      000B33 B6                    2557 	.db #0xb6	; 182
      000B34 DF                    2558 	.db #0xdf	; 223
      000B35 75                    2559 	.db #0x75	; 117	'u'
      000B36 AA                    2560 	.db #0xaa	; 170
      000B37 55                    2561 	.db #0x55	; 85	'U'
      000B38 82                    2562 	.db #0x82	; 130
      000B39 01                    2563 	.db #0x01	; 1
      000B3A AB                    2564 	.db #0xab	; 171
      000B3B DF                    2565 	.db #0xdf	; 223
      000B3C F7                    2566 	.db #0xf7	; 247
      000B3D AA                    2567 	.db #0xaa	; 170
      000B3E 55                    2568 	.db #0x55	; 85	'U'
      000B3F EA                    2569 	.db #0xea	; 234
      000B40 D5                    2570 	.db #0xd5	; 213
      000B41 A0                    2571 	.db #0xa0	; 160
      000B42 01                    2572 	.db #0x01	; 1
      000B43 6E                    2573 	.db #0x6e	; 110	'n'
      000B44 FB                    2574 	.db #0xfb	; 251
      000B45 77                    2575 	.db #0x77	; 119	'w'
      000B46 AE                    2576 	.db #0xae	; 174
      000B47 55                    2577 	.db #0x55	; 85	'U'
      000B48 EA                    2578 	.db #0xea	; 234
      000B49 55                    2579 	.db #0x55	; 85	'U'
      000B4A 0A                    2580 	.db #0x0a	; 10
      000B4B 01                    2581 	.db #0x01	; 1
      000B4C FF                    2582 	.db #0xff	; 255
      000B4D FF                    2583 	.db #0xff	; 255
      000B4E EF                    2584 	.db #0xef	; 239
      000B4F FF                    2585 	.db #0xff	; 255
      000B50 76                    2586 	.db #0x76	; 118	'v'
      000B51 AD                    2587 	.db #0xad	; 173
      000B52 52                    2588 	.db #0x52	; 82	'R'
      000B53 85                    2589 	.db #0x85	; 133
      000B54 01                    2590 	.db #0x01	; 1
      000B55 F8                    2591 	.db #0xf8	; 248
      000B56 F8                    2592 	.db #0xf8	; 248
      000B57 D6                    2593 	.db #0xd6	; 214
      000B58 AF                    2594 	.db #0xaf	; 175
      000B59 F7                    2595 	.db #0xf7	; 247
      000B5A BE                    2596 	.db #0xbe	; 190
      000B5B 55                    2597 	.db #0x55	; 85	'U'
      000B5C 02                    2598 	.db #0x02	; 2
      000B5D 02                    2599 	.db #0x02	; 2
      000B5E 00                    2600 	.db #0x00	; 0
      000B5F 00                    2601 	.db #0x00	; 0
      000B60 00                    2602 	.db #0x00	; 0
      000B61 00                    2603 	.db #0x00	; 0
      000B62 06                    2604 	.db #0x06	; 6
      000B63 0B                    2605 	.db #0x0b	; 11
      000B64 03                    2606 	.db #0x03	; 3
      000B65 05                    2607 	.db #0x05	; 5
      000B66 02                    2608 	.db #0x02	; 2
      000B67 00                    2609 	.db #0x00	; 0
      000B68 06                    2610 	.db #0x06	; 6
      000B69 01                    2611 	.db #0x01	; 1
      000B6A 07                    2612 	.db #0x07	; 7
      000B6B 48                    2613 	.db #0x48	; 72	'H'
      000B6C 1F                    2614 	.db #0x1f	; 31
      000B6D 4E                    2615 	.db #0x4e	; 78	'N'
      000B6E 24                    2616 	.db #0x24	; 36
      000B6F 02                    2617 	.db #0x02	; 2
      000B70 00                    2618 	.db #0x00	; 0
      000B71 00                    2619 	.db #0x00	; 0
      000B72 F6                    2620 	.db #0xf6	; 246
      000B73 FA                    2621 	.db #0xfa	; 250
      000B74 DC                    2622 	.db #0xdc	; 220
      000B75 07                    2623 	.db #0x07	; 7
      000B76 19                    2624 	.db #0x19	; 25
      000B77 36                    2625 	.db #0x36	; 54	'6'
      000B78 02                    2626 	.db #0x02	; 2
      000B79 00                    2627 	.db #0x00	; 0
      000B7A 00                    2628 	.db #0x00	; 0
      000B7B 00                    2629 	.db #0x00	; 0
      000B7C 00                    2630 	.db #0x00	; 0
      000B7D 00                    2631 	.db #0x00	; 0
      000B7E 00                    2632 	.db #0x00	; 0
      000B7F 03                    2633 	.db #0x03	; 3
      000B80 85                    2634 	.db #0x85	; 133
      000B81 02                    2635 	.db #0x02	; 2
      000B82 01                    2636 	.db #0x01	; 1
      000B83 00                    2637 	.db #0x00	; 0
      000B84 01                    2638 	.db #0x01	; 1
      000B85 02                    2639 	.db #0x02	; 2
      000B86 01                    2640 	.db #0x01	; 1
      000B87 06                    2641 	.db #0x06	; 6
      000B88 09                    2642 	.db #0x09	; 9
      000B89 01                    2643 	.db #0x01	; 1
      000B8A 02                    2644 	.db #0x02	; 2
      000B8B B1                    2645 	.db #0xb1	; 177
      000B8C 2A                    2646 	.db #0x2a	; 42
      000B8D 51                    2647 	.db #0x51	; 81	'Q'
      000B8E 6E                    2648 	.db #0x6e	; 110	'n'
      000B8F 89                    2649 	.db #0x89	; 137
      000B90 71                    2650 	.db #0x71	; 113	'q'
      000B91 BF                    2651 	.db #0xbf	; 191
      000B92 9E                    2652 	.db #0x9e	; 158
      000B93 02                    2653 	.db #0x02	; 2
      000B94 CF                    2654 	.db #0xcf	; 207
      000B95 D7                    2655 	.db #0xd7	; 215
      000B96 AE                    2656 	.db #0xae	; 174
      000B97 5E                    2657 	.db #0x5e	; 94
      000B98 BF                    2658 	.db #0xbf	; 191
      000B99 38                    2659 	.db #0x38	; 56	'8'
      000B9A D9                    2660 	.db #0xd9	; 217
      000B9B F2                    2661 	.db #0xf2	; 242
      000B9C 02                    2662 	.db #0x02	; 2
      000B9D C5                    2663 	.db #0xc5	; 197
      000B9E AC                    2664 	.db #0xac	; 172
      000B9F 68                    2665 	.db #0x68	; 104	'h'
      000BA0 E2                    2666 	.db #0xe2	; 226
      000BA1 D6                    2667 	.db #0xd6	; 214
      000BA2 F8                    2668 	.db #0xf8	; 248
      000BA3 5C                    2669 	.db #0x5c	; 92
      000BA4 EC                    2670 	.db #0xec	; 236
      000BA5 02                    2671 	.db #0x02	; 2
      000BA6 04                    2672 	.db #0x04	; 4
      000BA7 12                    2673 	.db #0x12	; 18
      000BA8 19                    2674 	.db #0x19	; 25
      000BA9 1C                    2675 	.db #0x1c	; 28
      000BAA 20                    2676 	.db #0x20	; 32
      000BAB 3F                    2677 	.db #0x3f	; 63
      000BAC 1F                    2678 	.db #0x1f	; 31
      000BAD 0E                    2679 	.db #0x0e	; 14
      000BAE 02                    2680 	.db #0x02	; 2
      000BAF 01                    2681 	.db #0x01	; 1
      000BB0 A6                    2682 	.db #0xa6	; 166
      000BB1 06                    2683 	.db #0x06	; 6
      000BB2 78                    2684 	.db #0x78	; 120	'x'
      000BB3 0D                    2685 	.db #0x0d	; 13
      000BB4 F1                    2686 	.db #0xf1	; 241
      000BB5 FE                    2687 	.db #0xfe	; 254
      000BB6 AF                    2688 	.db #0xaf	; 175
      000BB7 02                    2689 	.db #0x02	; 2
      000BB8 B1                    2690 	.db #0xb1	; 177
      000BB9 DA                    2691 	.db #0xda	; 218
      000BBA ED                    2692 	.db #0xed	; 237
      000BBB 64                    2693 	.db #0x64	; 100	'd'
      000BBC 73                    2694 	.db #0x73	; 115	's'
      000BBD 75                    2695 	.db #0x75	; 117	'u'
      000BBE 73                    2696 	.db #0x73	; 115	's'
      000BBF F0                    2697 	.db #0xf0	; 240
      000BC0 02                    2698 	.db #0x02	; 2
      000BC1 70                    2699 	.db #0x70	; 112	'p'
      000BC2 B0                    2700 	.db #0xb0	; 176
      000BC3 70                    2701 	.db #0x70	; 112	'p'
      000BC4 F5                    2702 	.db #0xf5	; 245
      000BC5 F0                    2703 	.db #0xf0	; 240
      000BC6 E5                    2704 	.db #0xe5	; 229
      000BC7 00                    2705 	.db #0x00	; 0
      000BC8 55                    2706 	.db #0x55	; 85	'U'
      000BC9 02                    2707 	.db #0x02	; 2
      000BCA 00                    2708 	.db #0x00	; 0
      000BCB 00                    2709 	.db #0x00	; 0
      000BCC 00                    2710 	.db #0x00	; 0
      000BCD 00                    2711 	.db #0x00	; 0
      000BCE C0                    2712 	.db #0xc0	; 192
      000BCF 20                    2713 	.db #0x20	; 32
      000BD0 20                    2714 	.db #0x20	; 32
      000BD1 10                    2715 	.db #0x10	; 16
      000BD2 02                    2716 	.db #0x02	; 2
      000BD3 00                    2717 	.db #0x00	; 0
      000BD4 00                    2718 	.db #0x00	; 0
      000BD5 01                    2719 	.db #0x01	; 1
      000BD6 01                    2720 	.db #0x01	; 1
      000BD7 01                    2721 	.db #0x01	; 1
      000BD8 09                    2722 	.db #0x09	; 9
      000BD9 09                    2723 	.db #0x09	; 9
      000BDA 09                    2724 	.db #0x09	; 9
      000BDB 02                    2725 	.db #0x02	; 2
      000BDC 00                    2726 	.db #0x00	; 0
      000BDD 08                    2727 	.db #0x08	; 8
      000BDE 08                    2728 	.db #0x08	; 8
      000BDF 04                    2729 	.db #0x04	; 4
      000BE0 04                    2730 	.db #0x04	; 4
      000BE1 04                    2731 	.db #0x04	; 4
      000BE2 84                    2732 	.db #0x84	; 132
      000BE3 84                    2733 	.db #0x84	; 132
      000BE4 02                    2734 	.db #0x02	; 2
      000BE5 00                    2735 	.db #0x00	; 0
      000BE6 00                    2736 	.db #0x00	; 0
      000BE7 00                    2737 	.db #0x00	; 0
      000BE8 00                    2738 	.db #0x00	; 0
      000BE9 00                    2739 	.db #0x00	; 0
      000BEA 00                    2740 	.db #0x00	; 0
      000BEB 00                    2741 	.db #0x00	; 0
      000BEC 40                    2742 	.db #0x40	; 64
      000BED 02                    2743 	.db #0x02	; 2
      000BEE 00                    2744 	.db #0x00	; 0
      000BEF 00                    2745 	.db #0x00	; 0
      000BF0 00                    2746 	.db #0x00	; 0
      000BF1 00                    2747 	.db #0x00	; 0
      000BF2 00                    2748 	.db #0x00	; 0
      000BF3 80                    2749 	.db #0x80	; 128
      000BF4 80                    2750 	.db #0x80	; 128
      000BF5 80                    2751 	.db #0x80	; 128
      000BF6 02                    2752 	.db #0x02	; 2
      000BF7 00                    2753 	.db #0x00	; 0
      000BF8 00                    2754 	.db #0x00	; 0
      000BF9 00                    2755 	.db #0x00	; 0
      000BFA 00                    2756 	.db #0x00	; 0
      000BFB 14                    2757 	.db #0x14	; 20
      000BFC 16                    2758 	.db #0x16	; 22
      000BFD 32                    2759 	.db #0x32	; 50	'2'
      000BFE 32                    2760 	.db #0x32	; 50	'2'
      000BFF 02                    2761 	.db #0x02	; 2
      000C00 00                    2762 	.db #0x00	; 0
      000C01 10                    2763 	.db #0x10	; 16
      000C02 10                    2764 	.db #0x10	; 16
      000C03 20                    2765 	.db #0x20	; 32
      000C04 20                    2766 	.db #0x20	; 32
      000C05 20                    2767 	.db #0x20	; 32
      000C06 21                    2768 	.db #0x21	; 33
      000C07 21                    2769 	.db #0x21	; 33
      000C08 02                    2770 	.db #0x02	; 2
      000C09 00                    2771 	.db #0x00	; 0
      000C0A 00                    2772 	.db #0x00	; 0
      000C0B 80                    2773 	.db #0x80	; 128
      000C0C 80                    2774 	.db #0x80	; 128
      000C0D 80                    2775 	.db #0x80	; 128
      000C0E 90                    2776 	.db #0x90	; 144
      000C0F 90                    2777 	.db #0x90	; 144
      000C10 90                    2778 	.db #0x90	; 144
      000C11 02                    2779 	.db #0x02	; 2
      000C12 03                    2780 	.db #0x03	; 3
      000C13 10                    2781 	.db #0x10	; 16
      000C14 17                    2782 	.db #0x17	; 23
      000C15 2C                    2783 	.db #0x2c	; 44
      000C16 2E                    2784 	.db #0x2e	; 46
      000C17 2F                    2785 	.db #0x2f	; 47
      000C18 2E                    2786 	.db #0x2e	; 46
      000C19 5F                    2787 	.db #0x5f	; 95
      000C1A 02                    2788 	.db #0x02	; 2
      000C1B 47                    2789 	.db #0x47	; 71	'G'
      000C1C A0                    2790 	.db #0xa0	; 160
      000C1D 00                    2791 	.db #0x00	; 0
      000C1E 41                    2792 	.db #0x41	; 65	'A'
      000C1F AA                    2793 	.db #0xaa	; 170
      000C20 57                    2794 	.db #0x57	; 87	'W'
      000C21 3E                    2795 	.db #0x3e	; 62
      000C22 C6                    2796 	.db #0xc6	; 198
      000C23 02                    2797 	.db #0x02	; 2
      000C24 E0                    2798 	.db #0xe0	; 224
      000C25 04                    2799 	.db #0x04	; 4
      000C26 0A                    2800 	.db #0x0a	; 10
      000C27 15                    2801 	.db #0x15	; 21
      000C28 A3                    2802 	.db #0xa3	; 163
      000C29 57                    2803 	.db #0x57	; 87	'W'
      000C2A 8D                    2804 	.db #0x8d	; 141
      000C2B 5E                    2805 	.db #0x5e	; 94
      000C2C 02                    2806 	.db #0x02	; 2
      000C2D 80                    2807 	.db #0x80	; 128
      000C2E 95                    2808 	.db #0x95	; 149
      000C2F 80                    2809 	.db #0x80	; 128
      000C30 1B                    2810 	.db #0x1b	; 27
      000C31 09                    2811 	.db #0x09	; 9
      000C32 00                    2812 	.db #0x00	; 0
      000C33 3F                    2813 	.db #0x3f	; 63
      000C34 3D                    2814 	.db #0x3d	; 61
      000C35 02                    2815 	.db #0x02	; 2
      000C36 58                    2816 	.db #0x58	; 88	'X'
      000C37 08                    2817 	.db #0x08	; 8
      000C38 48                    2818 	.db #0x48	; 72	'H'
      000C39 64                    2819 	.db #0x64	; 100	'd'
      000C3A 02                    2820 	.db #0x02	; 2
      000C3B 56                    2821 	.db #0x56	; 86	'V'
      000C3C A6                    2822 	.db #0xa6	; 166
      000C3D 58                    2823 	.db #0x58	; 88	'X'
      000C3E 02                    2824 	.db #0x02	; 2
      000C3F 18                    2825 	.db #0x18	; 24
      000C40 18                    2826 	.db #0x18	; 24
      000C41 18                    2827 	.db #0x18	; 24
      000C42 98                    2828 	.db #0x98	; 152
      000C43 91                    2829 	.db #0x91	; 145
      000C44 91                    2830 	.db #0x91	; 145
      000C45 91                    2831 	.db #0x91	; 145
      000C46 91                    2832 	.db #0x91	; 145
      000C47 02                    2833 	.db #0x02	; 2
      000C48 84                    2834 	.db #0x84	; 132
      000C49 84                    2835 	.db #0x84	; 132
      000C4A 84                    2836 	.db #0x84	; 132
      000C4B A8                    2837 	.db #0xa8	; 168
      000C4C A8                    2838 	.db #0xa8	; 168
      000C4D A8                    2839 	.db #0xa8	; 168
      000C4E 18                    2840 	.db #0x18	; 24
      000C4F 18                    2841 	.db #0x18	; 24
      000C50 02                    2842 	.db #0x02	; 2
      000C51 60                    2843 	.db #0x60	; 96
      000C52 21                    2844 	.db #0x21	; 33
      000C53 21                    2845 	.db #0x21	; 33
      000C54 21                    2846 	.db #0x21	; 33
      000C55 21                    2847 	.db #0x21	; 33
      000C56 21                    2848 	.db #0x21	; 33
      000C57 45                    2849 	.db #0x45	; 69	'E'
      000C58 45                    2850 	.db #0x45	; 69	'E'
      000C59 02                    2851 	.db #0x02	; 2
      000C5A 90                    2852 	.db #0x90	; 144
      000C5B 90                    2853 	.db #0x90	; 144
      000C5C 90                    2854 	.db #0x90	; 144
      000C5D 18                    2855 	.db #0x18	; 24
      000C5E 18                    2856 	.db #0x18	; 24
      000C5F 18                    2857 	.db #0x18	; 24
      000C60 19                    2858 	.db #0x19	; 25
      000C61 89                    2859 	.db #0x89	; 137
      000C62 02                    2860 	.db #0x02	; 2
      000C63 32                    2861 	.db #0x32	; 50	'2'
      000C64 32                    2862 	.db #0x32	; 50	'2'
      000C65 32                    2863 	.db #0x32	; 50	'2'
      000C66 34                    2864 	.db #0x34	; 52	'4'
      000C67 24                    2865 	.db #0x24	; 36
      000C68 34                    2866 	.db #0x34	; 52	'4'
      000C69 14                    2867 	.db #0x14	; 20
      000C6A 14                    2868 	.db #0x14	; 20
      000C6B 02                    2869 	.db #0x02	; 2
      000C6C 21                    2870 	.db #0x21	; 33
      000C6D 21                    2871 	.db #0x21	; 33
      000C6E 21                    2872 	.db #0x21	; 33
      000C6F 15                    2873 	.db #0x15	; 21
      000C70 15                    2874 	.db #0x15	; 21
      000C71 15                    2875 	.db #0x15	; 21
      000C72 18                    2876 	.db #0x18	; 24
      000C73 18                    2877 	.db #0x18	; 24
      000C74 02                    2878 	.db #0x02	; 2
      000C75 18                    2879 	.db #0x18	; 24
      000C76 18                    2880 	.db #0x18	; 24
      000C77 18                    2881 	.db #0x18	; 24
      000C78 19                    2882 	.db #0x19	; 25
      000C79 89                    2883 	.db #0x89	; 137
      000C7A 89                    2884 	.db #0x89	; 137
      000C7B 89                    2885 	.db #0x89	; 137
      000C7C 89                    2886 	.db #0x89	; 137
      000C7D 02                    2887 	.db #0x02	; 2
      000C7E 00                    2888 	.db #0x00	; 0
      000C7F 00                    2889 	.db #0x00	; 0
      000C80 00                    2890 	.db #0x00	; 0
      000C81 01                    2891 	.db #0x01	; 1
      000C82 01                    2892 	.db #0x01	; 1
      000C83 01                    2893 	.db #0x01	; 1
      000C84 01                    2894 	.db #0x01	; 1
      000C85 01                    2895 	.db #0x01	; 1
      000C86 02                    2896 	.db #0x02	; 2
      000C87 5F                    2897 	.db #0x5f	; 95
      000C88 4F                    2898 	.db #0x4f	; 79	'O'
      000C89 97                    2899 	.db #0x97	; 151
      000C8A 2A                    2900 	.db #0x2a	; 42
      000C8B 31                    2901 	.db #0x31	; 49	'1'
      000C8C 1C                    2902 	.db #0x1c	; 28
      000C8D 06                    2903 	.db #0x06	; 6
      000C8E 00                    2904 	.db #0x00	; 0
      000C8F 02                    2905 	.db #0x02	; 2
      000C90 AA                    2906 	.db #0xaa	; 170
      000C91 C7                    2907 	.db #0xc7	; 199
      000C92 C7                    2908 	.db #0xc7	; 199
      000C93 FF                    2909 	.db #0xff	; 255
      000C94 55                    2910 	.db #0x55	; 85	'U'
      000C95 02                    2911 	.db #0x02	; 2
      000C96 A0                    2912 	.db #0xa0	; 160
      000C97 0F                    2913 	.db #0x0f	; 15
      000C98 02                    2914 	.db #0x02	; 2
      000C99 FF                    2915 	.db #0xff	; 255
      000C9A FA                    2916 	.db #0xfa	; 250
      000C9B FF                    2917 	.db #0xff	; 255
      000C9C EA                    2918 	.db #0xea	; 234
      000C9D 55                    2919 	.db #0x55	; 85	'U'
      000C9E A0                    2920 	.db #0xa0	; 160
      000C9F 05                    2921 	.db #0x05	; 5
      000CA0 E0                    2922 	.db #0xe0	; 224
      000CA1 02                    2923 	.db #0x02	; 2
      000CA2 00                    2924 	.db #0x00	; 0
      000CA3 81                    2925 	.db #0x81	; 129
      000CA4 47                    2926 	.db #0x47	; 71	'G'
      000CA5 A7                    2927 	.db #0xa7	; 167
      000CA6 47                    2928 	.db #0x47	; 71	'G'
      000CA7 13                    2929 	.db #0x13	; 19
      000CA8 47                    2930 	.db #0x47	; 71	'G'
      000CA9 0F                    2931 	.db #0x0f	; 15
      000CAA 02                    2932 	.db #0x02	; 2
      000CAB 04                    2933 	.db #0x04	; 4
      000CAC 54                    2934 	.db #0x54	; 84	'T'
      000CAD A4                    2935 	.db #0xa4	; 164
      000CAE C8                    2936 	.db #0xc8	; 200
      000CAF A8                    2937 	.db #0xa8	; 168
      000CB0 C8                    2938 	.db #0xc8	; 200
      000CB1 E8                    2939 	.db #0xe8	; 232
      000CB2 C8                    2940 	.db #0xc8	; 200
      000CB3 02                    2941 	.db #0x02	; 2
      000CB4 00                    2942 	.db #0x00	; 0
      000CB5 00                    2943 	.db #0x00	; 0
      000CB6 18                    2944 	.db #0x18	; 24
      000CB7 04                    2945 	.db #0x04	; 4
      000CB8 04                    2946 	.db #0x04	; 4
      000CB9 02                    2947 	.db #0x02	; 2
      000CBA 02                    2948 	.db #0x02	; 2
      000CBB 09                    2949 	.db #0x09	; 9
      000CBC 02                    2950 	.db #0x02	; 2
      000CBD 09                    2951 	.db #0x09	; 9
      000CBE 0D                    2952 	.db #0x0d	; 13
      000CBF 0D                    2953 	.db #0x0d	; 13
      000CC0 4D                    2954 	.db #0x4d	; 77	'M'
      000CC1 4D                    2955 	.db #0x4d	; 77	'M'
      000CC2 4D                    2956 	.db #0x4d	; 77	'M'
      000CC3 79                    2957 	.db #0x79	; 121	'y'
      000CC4 D9                    2958 	.db #0xd9	; 217
      000CC5 02                    2959 	.db #0x02	; 2
      000CC6 59                    2960 	.db #0x59	; 89	'Y'
      000CC7 59                    2961 	.db #0x59	; 89	'Y'
      000CC8 59                    2962 	.db #0x59	; 89	'Y'
      000CC9 59                    2963 	.db #0x59	; 89	'Y'
      000CCA 55                    2964 	.db #0x55	; 85	'U'
      000CCB 55                    2965 	.db #0x55	; 85	'U'
      000CCC 65                    2966 	.db #0x65	; 101	'e'
      000CCD 65                    2967 	.db #0x65	; 101	'e'
      000CCE 02                    2968 	.db #0x02	; 2
      000CCF 45                    2969 	.db #0x45	; 69	'E'
      000CD0 48                    2970 	.db #0x48	; 72	'H'
      000CD1 48                    2971 	.db #0x48	; 72	'H'
      000CD2 4A                    2972 	.db #0x4a	; 74	'J'
      000CD3 4A                    2973 	.db #0x4a	; 74	'J'
      000CD4 4A                    2974 	.db #0x4a	; 74	'J'
      000CD5 4A                    2975 	.db #0x4a	; 74	'J'
      000CD6 4A                    2976 	.db #0x4a	; 74	'J'
      000CD7 02                    2977 	.db #0x02	; 2
      000CD8 89                    2978 	.db #0x89	; 137
      000CD9 89                    2979 	.db #0x89	; 137
      000CDA 89                    2980 	.db #0x89	; 137
      000CDB 90                    2981 	.db #0x90	; 144
      000CDC B0                    2982 	.db #0xb0	; 176
      000CDD B0                    2983 	.db #0xb0	; 176
      000CDE B2                    2984 	.db #0xb2	; 178
      000CDF B2                    2985 	.db #0xb2	; 178
      000CE0 02                    2986 	.db #0x02	; 2
      000CE1 14                    2987 	.db #0x14	; 20
      000CE2 14                    2988 	.db #0x14	; 20
      000CE3 94                    2989 	.db #0x94	; 148
      000CE4 94                    2990 	.db #0x94	; 148
      000CE5 94                    2991 	.db #0x94	; 148
      000CE6 92                    2992 	.db #0x92	; 146
      000CE7 92                    2993 	.db #0x92	; 146
      000CE8 52                    2994 	.db #0x52	; 82	'R'
      000CE9 02                    2995 	.db #0x02	; 2
      000CEA 9A                    2996 	.db #0x9a	; 154
      000CEB 9A                    2997 	.db #0x9a	; 154
      000CEC 9A                    2998 	.db #0x9a	; 154
      000CED 9A                    2999 	.db #0x9a	; 154
      000CEE AA                    3000 	.db #0xaa	; 170
      000CEF AA                    3001 	.db #0xaa	; 170
      000CF0 A6                    3002 	.db #0xa6	; 166
      000CF1 A6                    3003 	.db #0xa6	; 166
      000CF2 02                    3004 	.db #0x02	; 2
      000CF3 90                    3005 	.db #0x90	; 144
      000CF4 B0                    3006 	.db #0xb0	; 176
      000CF5 B0                    3007 	.db #0xb0	; 176
      000CF6 B2                    3008 	.db #0xb2	; 178
      000CF7 B2                    3009 	.db #0xb2	; 178
      000CF8 B2                    3010 	.db #0xb2	; 178
      000CF9 9E                    3011 	.db #0x9e	; 158
      000CFA 9B                    3012 	.db #0x9b	; 155
      000CFB 02                    3013 	.db #0x02	; 2
      000CFC 40                    3014 	.db #0x40	; 64
      000CFD 40                    3015 	.db #0x40	; 64
      000CFE 50                    3016 	.db #0x50	; 80	'P'
      000CFF 4A                    3017 	.db #0x4a	; 74	'J'
      000D00 24                    3018 	.db #0x24	; 36
      000D01 A6                    3019 	.db #0xa6	; 166
      000D02 A9                    3020 	.db #0xa9	; 169
      000D03 56                    3021 	.db #0x56	; 86	'V'
      000D04 02                    3022 	.db #0x02	; 2
      000D05 08                    3023 	.db #0x08	; 8
      000D06 4A                    3024 	.db #0x4a	; 74	'J'
      000D07 52                    3025 	.db #0x52	; 82	'R'
      000D08 53                    3026 	.db #0x53	; 83	'S'
      000D09 A2                    3027 	.db #0xa2	; 162
      000D0A AA                    3028 	.db #0xaa	; 170
      000D0B D3                    3029 	.db #0xd3	; 211
      000D0C AE                    3030 	.db #0xae	; 174
      000D0D 02                    3031 	.db #0x02	; 2
      000D0E 08                    3032 	.db #0x08	; 8
      000D0F 04                    3033 	.db #0x04	; 4
      000D10 22                    3034 	.db #0x22	; 34
      000D11 AA                    3035 	.db #0xaa	; 170
      000D12 49                    3036 	.db #0x49	; 73	'I'
      000D13 49                    3037 	.db #0x49	; 73	'I'
      000D14 BA                    3038 	.db #0xba	; 186
      000D15 B7                    3039 	.db #0xb7	; 183
      000D16 02                    3040 	.db #0x02	; 2
      000D17 40                    3041 	.db #0x40	; 64
      000D18 40                    3042 	.db #0x40	; 64
      000D19 40                    3043 	.db #0x40	; 64
      000D1A 5C                    3044 	.db #0x5c	; 92
      000D1B 21                    3045 	.db #0x21	; 33
      000D1C 8B                    3046 	.db #0x8b	; 139
      000D1D AD                    3047 	.db #0xad	; 173
      000D1E 52                    3048 	.db #0x52	; 82	'R'
      000D1F 02                    3049 	.db #0x02	; 2
      000D20 87                    3050 	.db #0x87	; 135
      000D21 7D                    3051 	.db #0x7d	; 125
      000D22 00                    3052 	.db #0x00	; 0
      000D23 04                    3053 	.db #0x04	; 4
      000D24 7E                    3054 	.db #0x7e	; 126
      000D25 7E                    3055 	.db #0x7e	; 126
      000D26 BC                    3056 	.db #0xbc	; 188
      000D27 00                    3057 	.db #0x00	; 0
      000D28 02                    3058 	.db #0x02	; 2
      000D29 BC                    3059 	.db #0xbc	; 188
      000D2A 3F                    3060 	.db #0x3f	; 63
      000D2B 7D                    3061 	.db #0x7d	; 125
      000D2C 6F                    3062 	.db #0x6f	; 111	'o'
      000D2D 15                    3063 	.db #0x15	; 21
      000D2E AA                    3064 	.db #0xaa	; 170
      000D2F 05                    3065 	.db #0x05	; 5
      000D30 00                    3066 	.db #0x00	; 0
      000D31 02                    3067 	.db #0x02	; 2
      000D32 FF                    3068 	.db #0xff	; 255
      000D33 BF                    3069 	.db #0xbf	; 191
      000D34 F9                    3070 	.db #0xf9	; 249
      000D35 BF                    3071 	.db #0xbf	; 191
      000D36 17                    3072 	.db #0x17	; 23
      000D37 AA                    3073 	.db #0xaa	; 170
      000D38 55                    3074 	.db #0x55	; 85	'U'
      000D39 00                    3075 	.db #0x00	; 0
      000D3A 02                    3076 	.db #0x02	; 2
      000D3B 03                    3077 	.db #0x03	; 3
      000D3C F5                    3078 	.db #0xf5	; 245
      000D3D FD                    3079 	.db #0xfd	; 253
      000D3E E9                    3080 	.db #0xe9	; 233
      000D3F 53                    3081 	.db #0x53	; 83	'S'
      000D40 A7                    3082 	.db #0xa7	; 167
      000D41 0F                    3083 	.db #0x0f	; 15
      000D42 00                    3084 	.db #0x00	; 0
      000D43 02                    3085 	.db #0x02	; 2
      000D44 E4                    3086 	.db #0xe4	; 228
      000D45 F0                    3087 	.db #0xf0	; 240
      000D46 EA                    3088 	.db #0xea	; 234
      000D47 D8                    3089 	.db #0xd8	; 216
      000D48 DA                    3090 	.db #0xda	; 218
      000D49 B5                    3091 	.db #0xb5	; 181
      000D4A 0A                    3092 	.db #0x0a	; 10
      000D4B B7                    3093 	.db #0xb7	; 183
      000D4C 02                    3094 	.db #0x02	; 2
      000D4D 09                    3095 	.db #0x09	; 9
      000D4E 0A                    3096 	.db #0x0a	; 10
      000D4F 2A                    3097 	.db #0x2a	; 42
      000D50 2C                    3098 	.db #0x2c	; 44
      000D51 F0                    3099 	.db #0xf0	; 240
      000D52 8D                    3100 	.db #0x8d	; 141
      000D53 5A                    3101 	.db #0x5a	; 90	'Z'
      000D54 B5                    3102 	.db #0xb5	; 181
      000D55 02                    3103 	.db #0x02	; 2
      000D56 05                    3104 	.db #0x05	; 5
      000D57 25                    3105 	.db #0x25	; 37
      000D58 12                    3106 	.db #0x12	; 18
      000D59 14                    3107 	.db #0x14	; 20
      000D5A C9                    3108 	.db #0xc9	; 201
      000D5B 54                    3109 	.db #0x54	; 84	'T'
      000D5C B7                    3110 	.db #0xb7	; 183
      000D5D 6B                    3111 	.db #0x6b	; 107	'k'
      000D5E 03                    3112 	.db #0x03	; 3
      000D5F 00                    3113 	.db #0x00	; 0
      000D60 28                    3114 	.db #0x28	; 40
      000D61 69                    3115 	.db #0x69	; 105	'i'
      000D62 DD                    3116 	.db #0xdd	; 221
      000D63 FF                    3117 	.db #0xff	; 255
      000D64 FF                    3118 	.db #0xff	; 255
      000D65 FB                    3119 	.db #0xfb	; 251
      000D66 7C                    3120 	.db #0x7c	; 124
      000D67 03                    3121 	.db #0x03	; 3
      000D68 30                    3122 	.db #0x30	; 48	'0'
      000D69 7E                    3123 	.db #0x7e	; 126
      000D6A FE                    3124 	.db #0xfe	; 254
      000D6B CF                    3125 	.db #0xcf	; 207
      000D6C A5                    3126 	.db #0xa5	; 165
      000D6D 68                    3127 	.db #0x68	; 104	'h'
      000D6E AB                    3128 	.db #0xab	; 171
      000D6F 9A                    3129 	.db #0x9a	; 154
      000D70 03                    3130 	.db #0x03	; 3
      000D71 70                    3131 	.db #0x70	; 112	'p'
      000D72 FD                    3132 	.db #0xfd	; 253
      000D73 F7                    3133 	.db #0xf7	; 247
      000D74 75                    3134 	.db #0x75	; 117	'u'
      000D75 E3                    3135 	.db #0xe3	; 227
      000D76 A0                    3136 	.db #0xa0	; 160
      000D77 15                    3137 	.db #0x15	; 21
      000D78 76                    3138 	.db #0x76	; 118	'v'
      000D79 03                    3139 	.db #0x03	; 3
      000D7A 38                    3140 	.db #0x38	; 56	'8'
      000D7B DF                    3141 	.db #0xdf	; 223
      000D7C DF                    3142 	.db #0xdf	; 223
      000D7D 7B                    3143 	.db #0x7b	; 123
      000D7E 52                    3144 	.db #0x52	; 82	'R'
      000D7F 8C                    3145 	.db #0x8c	; 140
      000D80 D6                    3146 	.db #0xd6	; 214
      000D81 54                    3147 	.db #0x54	; 84	'T'
      000D82 03                    3148 	.db #0x03	; 3
      000D83 38                    3149 	.db #0x38	; 56	'8'
      000D84 63                    3150 	.db #0x63	; 99	'c'
      000D85 CB                    3151 	.db #0xcb	; 203
      000D86 AF                    3152 	.db #0xaf	; 175
      000D87 E7                    3153 	.db #0xe7	; 231
      000D88 81                    3154 	.db #0x81	; 129
      000D89 2A                    3155 	.db #0x2a	; 42
      000D8A EC                    3156 	.db #0xec	; 236
      000D8B 02                    3157 	.db #0x02	; 2
      000D8C 03                    3158 	.db #0x03	; 3
      000D8D 1C                    3159 	.db #0x1c	; 28
      000D8E E5                    3160 	.db #0xe5	; 229
      000D8F 12                    3161 	.db #0x12	; 18
      000D90 40                    3162 	.db #0x40	; 64
      000D91 00                    3163 	.db #0x00	; 0
      000D92 00                    3164 	.db #0x00	; 0
      000D93 00                    3165 	.db #0x00	; 0
      000D94 02                    3166 	.db #0x02	; 2
      000D95 C0                    3167 	.db #0xc0	; 192
      000D96 38                    3168 	.db #0x38	; 56	'8'
      000D97 27                    3169 	.db #0x27	; 39
      000D98 41                    3170 	.db #0x41	; 65	'A'
      000D99 04                    3171 	.db #0x04	; 4
      000D9A 00                    3172 	.db #0x00	; 0
      000D9B 00                    3173 	.db #0x00	; 0
      000D9C 00                    3174 	.db #0x00	; 0
      000D9D 02                    3175 	.db #0x02	; 2
      000D9E 03                    3176 	.db #0x03	; 3
      000D9F 1C                    3177 	.db #0x1c	; 28
      000DA0 E9                    3178 	.db #0xe9	; 233
      000DA1 40                    3179 	.db #0x40	; 64
      000DA2 10                    3180 	.db #0x10	; 16
      000DA3 00                    3181 	.db #0x00	; 0
      000DA4 00                    3182 	.db #0x00	; 0
      000DA5 00                    3183 	.db #0x00	; 0
      000DA6 02                    3184 	.db #0x02	; 2
      000DA7 C0                    3185 	.db #0xc0	; 192
      000DA8 38                    3186 	.db #0x38	; 56	'8'
      000DA9 47                    3187 	.db #0x47	; 71	'G'
      000DAA 12                    3188 	.db #0x12	; 18
      000DAB 04                    3189 	.db #0x04	; 4
      000DAC 00                    3190 	.db #0x00	; 0
      000DAD 00                    3191 	.db #0x00	; 0
      000DAE 00                    3192 	.db #0x00	; 0
      000DAF 03                    3193 	.db #0x03	; 3
      000DB0 33                    3194 	.db #0x33	; 51	'3'
      000DB1 7F                    3195 	.db #0x7f	; 127
      000DB2 FF                    3196 	.db #0xff	; 255
      000DB3 CF                    3197 	.db #0xcf	; 207
      000DB4 A5                    3198 	.db #0xa5	; 165
      000DB5 68                    3199 	.db #0x68	; 104	'h'
      000DB6 AB                    3200 	.db #0xab	; 171
      000DB7 9A                    3201 	.db #0x9a	; 154
      000DB8 03                    3202 	.db #0x03	; 3
      000DB9 F0                    3203 	.db #0xf0	; 240
      000DBA FD                    3204 	.db #0xfd	; 253
      000DBB F7                    3205 	.db #0xf7	; 247
      000DBC F5                    3206 	.db #0xf5	; 245
      000DBD E3                    3207 	.db #0xe3	; 227
      000DBE A0                    3208 	.db #0xa0	; 160
      000DBF 15                    3209 	.db #0x15	; 21
      000DC0 76                    3210 	.db #0x76	; 118	'v'
      000DC1                       3211 _room_5_1_map:
      000DC1 7C 01                 3212 	.dw #0x017c
      000DC3 C8                    3213 	.db #0xc8	; 200
      000DC4 00                    3214 	.db #0x00	; 0
      000DC5 01                    3215 	.db #0x01	; 1
      000DC6 02                    3216 	.db #0x02	; 2
      000DC7 03                    3217 	.db #0x03	; 3
      000DC8 04                    3218 	.db #0x04	; 4
      000DC9 05                    3219 	.db #0x05	; 5
      000DCA 06                    3220 	.db #0x06	; 6
      000DCB C6                    3221 	.db #0xc6	; 198
      000DCC 00                    3222 	.db #0x00	; 0
      000DCD C2                    3223 	.db #0xc2	; 194
      000DCE 07                    3224 	.db #0x07	; 7
      000DCF C6                    3225 	.db #0xc6	; 198
      000DD0 00                    3226 	.db #0x00	; 0
      000DD1 08                    3227 	.db #0x08	; 8
      000DD2 09                    3228 	.db #0x09	; 9
      000DD3 C7                    3229 	.db #0xc7	; 199
      000DD4 00                    3230 	.db #0x00	; 0
      000DD5 0A                    3231 	.db #0x0a	; 10
      000DD6 01                    3232 	.db #0x01	; 1
      000DD7 0B                    3233 	.db #0x0b	; 11
      000DD8 0C                    3234 	.db #0x0c	; 12
      000DD9 0D                    3235 	.db #0x0d	; 13
      000DDA 0E                    3236 	.db #0x0e	; 14
      000DDB 0F                    3237 	.db #0x0f	; 15
      000DDC 10                    3238 	.db #0x10	; 16
      000DDD CA                    3239 	.db #0xca	; 202
      000DDE 00                    3240 	.db #0x00	; 0
      000DDF 11                    3241 	.db #0x11	; 17
      000DE0 12                    3242 	.db #0x12	; 18
      000DE1 13                    3243 	.db #0x13	; 19
      000DE2 14                    3244 	.db #0x14	; 20
      000DE3 04                    3245 	.db #0x04	; 4
      000DE4 C6                    3246 	.db #0xc6	; 198
      000DE5 00                    3247 	.db #0x00	; 0
      000DE6 15                    3248 	.db #0x15	; 21
      000DE7 16                    3249 	.db #0x16	; 22
      000DE8 00                    3250 	.db #0x00	; 0
      000DE9 17                    3251 	.db #0x17	; 23
      000DEA 03                    3252 	.db #0x03	; 3
      000DEB 04                    3253 	.db #0x04	; 4
      000DEC 05                    3254 	.db #0x05	; 5
      000DED 18                    3255 	.db #0x18	; 24
      000DEE CB                    3256 	.db #0xcb	; 203
      000DEF 00                    3257 	.db #0x00	; 0
      000DF0 19                    3258 	.db #0x19	; 25
      000DF1 00                    3259 	.db #0x00	; 0
      000DF2 19                    3260 	.db #0x19	; 25
      000DF3 1A                    3261 	.db #0x1a	; 26
      000DF4 09                    3262 	.db #0x09	; 9
      000DF5 C5                    3263 	.db #0xc5	; 197
      000DF6 00                    3264 	.db #0x00	; 0
      000DF7 1B                    3265 	.db #0x1b	; 27
      000DF8 1C                    3266 	.db #0x1c	; 28
      000DF9 1D                    3267 	.db #0x1d	; 29
      000DFA 1E                    3268 	.db #0x1e	; 30
      000DFB 1F                    3269 	.db #0x1f	; 31
      000DFC 0C                    3270 	.db #0x0c	; 12
      000DFD 0D                    3271 	.db #0x0d	; 13
      000DFE 0E                    3272 	.db #0x0e	; 14
      000DFF 20                    3273 	.db #0x20	; 32
      000E00 21                    3274 	.db #0x21	; 33
      000E01 22                    3275 	.db #0x22	; 34
      000E02 C9                    3276 	.db #0xc9	; 201
      000E03 00                    3277 	.db #0x00	; 0
      000E04 C3                    3278 	.db #0xc3	; 195
      000E05 07                    3279 	.db #0x07	; 7
      000E06 23                    3280 	.db #0x23	; 35
      000E07 04                    3281 	.db #0x04	; 4
      000E08 C4                    3282 	.db #0xc4	; 196
      000E09 00                    3283 	.db #0x00	; 0
      000E0A 24                    3284 	.db #0x24	; 36
      000E0B 21                    3285 	.db #0x21	; 33
      000E0C 25                    3286 	.db #0x25	; 37
      000E0D 26                    3287 	.db #0x26	; 38
      000E0E 27                    3288 	.db #0x27	; 39
      000E0F 28                    3289 	.db #0x28	; 40
      000E10 03                    3290 	.db #0x03	; 3
      000E11 04                    3291 	.db #0x04	; 4
      000E12 05                    3292 	.db #0x05	; 5
      000E13 29                    3293 	.db #0x29	; 41
      000E14 21                    3294 	.db #0x21	; 33
      000E15 2A                    3295 	.db #0x2a	; 42
      000E16 C5                    3296 	.db #0xc5	; 197
      000E17 00                    3297 	.db #0x00	; 0
      000E18 2B                    3298 	.db #0x2b	; 43
      000E19 C6                    3299 	.db #0xc6	; 198
      000E1A 00                    3300 	.db #0x00	; 0
      000E1B 08                    3301 	.db #0x08	; 8
      000E1C 09                    3302 	.db #0x09	; 9
      000E1D C5                    3303 	.db #0xc5	; 197
      000E1E 00                    3304 	.db #0x00	; 0
      000E1F 2C                    3305 	.db #0x2c	; 44
      000E20 2D                    3306 	.db #0x2d	; 45
      000E21 C2                    3307 	.db #0xc2	; 194
      000E22 00                    3308 	.db #0x00	; 0
      000E23 2E                    3309 	.db #0x2e	; 46
      000E24 0C                    3310 	.db #0x0c	; 12
      000E25 0D                    3311 	.db #0x0d	; 13
      000E26 0E                    3312 	.db #0x0e	; 14
      000E27 2F                    3313 	.db #0x2f	; 47
      000E28 30                    3314 	.db #0x30	; 48	'0'
      000E29 C6                    3315 	.db #0xc6	; 198
      000E2A 00                    3316 	.db #0x00	; 0
      000E2B 31                    3317 	.db #0x31	; 49	'1'
      000E2C C4                    3318 	.db #0xc4	; 196
      000E2D 00                    3319 	.db #0x00	; 0
      000E2E 32                    3320 	.db #0x32	; 50	'2'
      000E2F 33                    3321 	.db #0x33	; 51	'3'
      000E30 08                    3322 	.db #0x08	; 8
      000E31 04                    3323 	.db #0x04	; 4
      000E32 C7                    3324 	.db #0xc7	; 199
      000E33 00                    3325 	.db #0x00	; 0
      000E34 34                    3326 	.db #0x34	; 52	'4'
      000E35 21                    3327 	.db #0x21	; 33
      000E36 35                    3328 	.db #0x35	; 53	'5'
      000E37 03                    3329 	.db #0x03	; 3
      000E38 04                    3330 	.db #0x04	; 4
      000E39 05                    3331 	.db #0x05	; 5
      000E3A 36                    3332 	.db #0x36	; 54	'6'
      000E3B 2A                    3333 	.db #0x2a	; 42
      000E3C C6                    3334 	.db #0xc6	; 198
      000E3D 00                    3335 	.db #0x00	; 0
      000E3E 37                    3336 	.db #0x37	; 55	'7'
      000E3F C4                    3337 	.db #0xc4	; 196
      000E40 00                    3338 	.db #0x00	; 0
      000E41 38                    3339 	.db #0x38	; 56	'8'
      000E42 39                    3340 	.db #0x39	; 57	'9'
      000E43 08                    3341 	.db #0x08	; 8
      000E44 09                    3342 	.db #0x09	; 9
      000E45 C7                    3343 	.db #0xc7	; 199
      000E46 00                    3344 	.db #0x00	; 0
      000E47 3A                    3345 	.db #0x3a	; 58
      000E48 21                    3346 	.db #0x21	; 33
      000E49 3B                    3347 	.db #0x3b	; 59
      000E4A 0C                    3348 	.db #0x0c	; 12
      000E4B 0D                    3349 	.db #0x0d	; 13
      000E4C 0E                    3350 	.db #0x0e	; 14
      000E4D 3C                    3351 	.db #0x3c	; 60
      000E4E C5                    3352 	.db #0xc5	; 197
      000E4F 00                    3353 	.db #0x00	; 0
      000E50 3D                    3354 	.db #0x3d	; 61
      000E51 3E                    3355 	.db #0x3e	; 62
      000E52 3F                    3356 	.db #0x3f	; 63
      000E53 3E                    3357 	.db #0x3e	; 62
      000E54 3F                    3358 	.db #0x3f	; 63
      000E55 3E                    3359 	.db #0x3e	; 62
      000E56 3F                    3360 	.db #0x3f	; 63
      000E57 3E                    3361 	.db #0x3e	; 62
      000E58 3F                    3362 	.db #0x3f	; 63
      000E59 40                    3363 	.db #0x40	; 64
      000E5A 04                    3364 	.db #0x04	; 4
      000E5B C8                    3365 	.db #0xc8	; 200
      000E5C 00                    3366 	.db #0x00	; 0
      000E5D 01                    3367 	.db #0x01	; 1
      000E5E 02                    3368 	.db #0x02	; 2
      000E5F 03                    3369 	.db #0x03	; 3
      000E60 04                    3370 	.db #0x04	; 4
      000E61 05                    3371 	.db #0x05	; 5
      000E62 06                    3372 	.db #0x06	; 6
      000E63 41                    3373 	.db #0x41	; 65	'A'
      000E64 42                    3374 	.db #0x42	; 66	'B'
      000E65 43                    3375 	.db #0x43	; 67	'C'
      000E66 C2                    3376 	.db #0xc2	; 194
      000E67 00                    3377 	.db #0x00	; 0
      000E68 44                    3378 	.db #0x44	; 68	'D'
      000E69 45                    3379 	.db #0x45	; 69	'E'
      000E6A 46                    3380 	.db #0x46	; 70	'F'
      000E6B 45                    3381 	.db #0x45	; 69	'E'
      000E6C 46                    3382 	.db #0x46	; 70	'F'
      000E6D 45                    3383 	.db #0x45	; 69	'E'
      000E6E 46                    3384 	.db #0x46	; 70	'F'
      000E6F 45                    3385 	.db #0x45	; 69	'E'
      000E70 46                    3386 	.db #0x46	; 70	'F'
      000E71 40                    3387 	.db #0x40	; 64
      000E72 09                    3388 	.db #0x09	; 9
      000E73 C8                    3389 	.db #0xc8	; 200
      000E74 00                    3390 	.db #0x00	; 0
      000E75 01                    3391 	.db #0x01	; 1
      000E76 0B                    3392 	.db #0x0b	; 11
      000E77 0C                    3393 	.db #0x0c	; 12
      000E78 0D                    3394 	.db #0x0d	; 13
      000E79 0E                    3395 	.db #0x0e	; 14
      000E7A 47                    3396 	.db #0x47	; 71	'G'
      000E7B 48                    3397 	.db #0x48	; 72	'H'
      000E7C C4                    3398 	.db #0xc4	; 196
      000E7D 00                    3399 	.db #0x00	; 0
      000E7E 49                    3400 	.db #0x49	; 73	'I'
      000E7F 46                    3401 	.db #0x46	; 70	'F'
      000E80 45                    3402 	.db #0x45	; 69	'E'
      000E81 46                    3403 	.db #0x46	; 70	'F'
      000E82 45                    3404 	.db #0x45	; 69	'E'
      000E83 46                    3405 	.db #0x46	; 70	'F'
      000E84 45                    3406 	.db #0x45	; 69	'E'
      000E85 46                    3407 	.db #0x46	; 70	'F'
      000E86 45                    3408 	.db #0x45	; 69	'E'
      000E87 40                    3409 	.db #0x40	; 64
      000E88 04                    3410 	.db #0x04	; 4
      000E89 C9                    3411 	.db #0xc9	; 201
      000E8A 00                    3412 	.db #0x00	; 0
      000E8B 17                    3413 	.db #0x17	; 23
      000E8C 03                    3414 	.db #0x03	; 3
      000E8D 04                    3415 	.db #0x04	; 4
      000E8E 05                    3416 	.db #0x05	; 5
      000E8F 4A                    3417 	.db #0x4a	; 74	'J'
      000E90 C5                    3418 	.db #0xc5	; 197
      000E91 00                    3419 	.db #0x00	; 0
      000E92 4B                    3420 	.db #0x4b	; 75	'K'
      000E93 4C                    3421 	.db #0x4c	; 76	'L'
      000E94 4D                    3422 	.db #0x4d	; 77	'M'
      000E95 4C                    3423 	.db #0x4c	; 76	'L'
      000E96 4D                    3424 	.db #0x4d	; 77	'M'
      000E97 4C                    3425 	.db #0x4c	; 76	'L'
      000E98 4D                    3426 	.db #0x4d	; 77	'M'
      000E99 4C                    3427 	.db #0x4c	; 76	'L'
      000E9A 4D                    3428 	.db #0x4d	; 77	'M'
      000E9B 4E                    3429 	.db #0x4e	; 78	'N'
      000E9C 09                    3430 	.db #0x09	; 9
      000E9D C9                    3431 	.db #0xc9	; 201
      000E9E 00                    3432 	.db #0x00	; 0
      000E9F 1F                    3433 	.db #0x1f	; 31
      000EA0 0C                    3434 	.db #0x0c	; 12
      000EA1 0D                    3435 	.db #0x0d	; 13
      000EA2 0E                    3436 	.db #0x0e	; 14
      000EA3 06                    3437 	.db #0x06	; 6
      000EA4 C6                    3438 	.db #0xc6	; 198
      000EA5 00                    3439 	.db #0x00	; 0
      000EA6 4F                    3440 	.db #0x4f	; 79	'O'
      000EA7 50                    3441 	.db #0x50	; 80	'P'
      000EA8 51                    3442 	.db #0x51	; 81	'Q'
      000EA9 52                    3443 	.db #0x52	; 82	'R'
      000EAA 4F                    3444 	.db #0x4f	; 79	'O'
      000EAB 52                    3445 	.db #0x52	; 82	'R'
      000EAC 4F                    3446 	.db #0x4f	; 79	'O'
      000EAD 53                    3447 	.db #0x53	; 83	'S'
      000EAE 54                    3448 	.db #0x54	; 84	'T'
      000EAF 04                    3449 	.db #0x04	; 4
      000EB0 C4                    3450 	.db #0xc4	; 196
      000EB1 00                    3451 	.db #0x00	; 0
      000EB2 55                    3452 	.db #0x55	; 85	'U'
      000EB3 56                    3453 	.db #0x56	; 86	'V'
      000EB4 57                    3454 	.db #0x57	; 87	'W'
      000EB5 C2                    3455 	.db #0xc2	; 194
      000EB6 00                    3456 	.db #0x00	; 0
      000EB7 1F                    3457 	.db #0x1f	; 31
      000EB8 03                    3458 	.db #0x03	; 3
      000EB9 04                    3459 	.db #0x04	; 4
      000EBA 05                    3460 	.db #0x05	; 5
      000EBB 06                    3461 	.db #0x06	; 6
      000EBC C6                    3462 	.db #0xc6	; 198
      000EBD 00                    3463 	.db #0x00	; 0
      000EBE 58                    3464 	.db #0x58	; 88	'X'
      000EBF 59                    3465 	.db #0x59	; 89	'Y'
      000EC0 5A                    3466 	.db #0x5a	; 90	'Z'
      000EC1 5B                    3467 	.db #0x5b	; 91
      000EC2 5C                    3468 	.db #0x5c	; 92
      000EC3 5D                    3469 	.db #0x5d	; 93
      000EC4 58                    3470 	.db #0x58	; 88	'X'
      000EC5 5E                    3471 	.db #0x5e	; 94
      000EC6 54                    3472 	.db #0x54	; 84	'T'
      000EC7 09                    3473 	.db #0x09	; 9
      000EC8 38                    3474 	.db #0x38	; 56	'8'
      000EC9 39                    3475 	.db #0x39	; 57	'9'
      000ECA 5F                    3476 	.db #0x5f	; 95
      000ECB 38                    3477 	.db #0x38	; 56	'8'
      000ECC 60                    3478 	.db #0x60	; 96
      000ECD 61                    3479 	.db #0x61	; 97	'a'
      000ECE 62                    3480 	.db #0x62	; 98	'b'
      000ECF C2                    3481 	.db #0xc2	; 194
      000ED0 00                    3482 	.db #0x00	; 0
      000ED1 1F                    3483 	.db #0x1f	; 31
      000ED2 0C                    3484 	.db #0x0c	; 12
      000ED3 0D                    3485 	.db #0x0d	; 13
      000ED4 0E                    3486 	.db #0x0e	; 14
      000ED5 06                    3487 	.db #0x06	; 6
      000ED6 C3                    3488 	.db #0xc3	; 195
      000ED7 00                    3489 	.db #0x00	; 0
      000ED8 63                    3490 	.db #0x63	; 99	'c'
      000ED9 64                    3491 	.db #0x64	; 100	'd'
      000EDA 65                    3492 	.db #0x65	; 101	'e'
      000EDB 66                    3493 	.db #0x66	; 102	'f'
      000EDC 67                    3494 	.db #0x67	; 103	'g'
      000EDD C2                    3495 	.db #0xc2	; 194
      000EDE 66                    3496 	.db #0x66	; 102	'f'
      000EDF 68                    3497 	.db #0x68	; 104	'h'
      000EE0 69                    3498 	.db #0x69	; 105	'i'
      000EE1 66                    3499 	.db #0x66	; 102	'f'
      000EE2 67                    3500 	.db #0x67	; 103	'g'
      000EE3 54                    3501 	.db #0x54	; 84	'T'
      000EE4 04                    3502 	.db #0x04	; 4
      000EE5 6A                    3503 	.db #0x6a	; 106	'j'
      000EE6 6B                    3504 	.db #0x6b	; 107	'k'
      000EE7 6C                    3505 	.db #0x6c	; 108	'l'
      000EE8 6A                    3506 	.db #0x6a	; 106	'j'
      000EE9 6B                    3507 	.db #0x6b	; 107	'k'
      000EEA 6C                    3508 	.db #0x6c	; 108	'l'
      000EEB 6B                    3509 	.db #0x6b	; 107	'k'
      000EEC 6D                    3510 	.db #0x6d	; 109	'm'
      000EED 6E                    3511 	.db #0x6e	; 110	'n'
      000EEE 1F                    3512 	.db #0x1f	; 31
      000EEF 03                    3513 	.db #0x03	; 3
      000EF0 04                    3514 	.db #0x04	; 4
      000EF1 05                    3515 	.db #0x05	; 5
      000EF2 06                    3516 	.db #0x06	; 6
      000EF3 32                    3517 	.db #0x32	; 50	'2'
      000EF4 33                    3518 	.db #0x33	; 51	'3'
      000EF5 00                    3519 	.db #0x00	; 0
      000EF6 6F                    3520 	.db #0x6f	; 111	'o'
      000EF7 70                    3521 	.db #0x70	; 112	'p'
      000EF8 71                    3522 	.db #0x71	; 113	'q'
      000EF9 4F                    3523 	.db #0x4f	; 79	'O'
      000EFA 52                    3524 	.db #0x52	; 82	'R'
      000EFB C2                    3525 	.db #0xc2	; 194
      000EFC 66                    3526 	.db #0x66	; 102	'f'
      000EFD 68                    3527 	.db #0x68	; 104	'h'
      000EFE 72                    3528 	.db #0x72	; 114	'r'
      000EFF 4F                    3529 	.db #0x4f	; 79	'O'
      000F00 52                    3530 	.db #0x52	; 82	'R'
      000F01 54                    3531 	.db #0x54	; 84	'T'
      000F02 09                    3532 	.db #0x09	; 9
      000F03 C2                    3533 	.db #0xc2	; 194
      000F04 6A                    3534 	.db #0x6a	; 106	'j'
      000F05 6B                    3535 	.db #0x6b	; 107	'k'
      000F06 6C                    3536 	.db #0x6c	; 108	'l'
      000F07 6A                    3537 	.db #0x6a	; 106	'j'
      000F08 6B                    3538 	.db #0x6b	; 107	'k'
      000F09 6C                    3539 	.db #0x6c	; 108	'l'
      000F0A 6A                    3540 	.db #0x6a	; 106	'j'
      000F0B 73                    3541 	.db #0x73	; 115	's'
      000F0C 74                    3542 	.db #0x74	; 116	't'
      000F0D 0C                    3543 	.db #0x0c	; 12
      000F0E 0D                    3544 	.db #0x0d	; 13
      000F0F 0E                    3545 	.db #0x0e	; 14
      000F10 06                    3546 	.db #0x06	; 6
      000F11 38                    3547 	.db #0x38	; 56	'8'
      000F12 39                    3548 	.db #0x39	; 57	'9'
      000F13 38                    3549 	.db #0x38	; 56	'8'
      000F14 75                    3550 	.db #0x75	; 117	'u'
      000F15 76                    3551 	.db #0x76	; 118	'v'
      000F16 00                    3552 	.db #0x00	; 0
      000F17 C2                    3553 	.db #0xc2	; 194
      000F18 66                    3554 	.db #0x66	; 102	'f'
      000F19 52                    3555 	.db #0x52	; 82	'R'
      000F1A 66                    3556 	.db #0x66	; 102	'f'
      000F1B 68                    3557 	.db #0x68	; 104	'h'
      000F1C 69                    3558 	.db #0x69	; 105	'i'
      000F1D C2                    3559 	.db #0xc2	; 194
      000F1E 66                    3560 	.db #0x66	; 102	'f'
      000F1F 54                    3561 	.db #0x54	; 84	'T'
      000F20 04                    3562 	.db #0x04	; 4
      000F21 6B                    3563 	.db #0x6b	; 107	'k'
      000F22 6C                    3564 	.db #0x6c	; 108	'l'
      000F23 6A                    3565 	.db #0x6a	; 106	'j'
      000F24 6B                    3566 	.db #0x6b	; 107	'k'
      000F25 6C                    3567 	.db #0x6c	; 108	'l'
      000F26 6A                    3568 	.db #0x6a	; 106	'j'
      000F27 6B                    3569 	.db #0x6b	; 107	'k'
      000F28 6C                    3570 	.db #0x6c	; 108	'l'
      000F29 6A                    3571 	.db #0x6a	; 106	'j'
      000F2A 6B                    3572 	.db #0x6b	; 107	'k'
      000F2B 6C                    3573 	.db #0x6c	; 108	'l'
      000F2C 6A                    3574 	.db #0x6a	; 106	'j'
      000F2D 6B                    3575 	.db #0x6b	; 107	'k'
      000F2E 6C                    3576 	.db #0x6c	; 108	'l'
      000F2F 6A                    3577 	.db #0x6a	; 106	'j'
      000F30 6B                    3578 	.db #0x6b	; 107	'k'
      000F31 6C                    3579 	.db #0x6c	; 108	'l'
      000F32 6A                    3580 	.db #0x6a	; 106	'j'
      000F33 6B                    3581 	.db #0x6b	; 107	'k'
      000F34 6C                    3582 	.db #0x6c	; 108	'l'
      000F35 6A                    3583 	.db #0x6a	; 106	'j'
      000F36 6B                    3584 	.db #0x6b	; 107	'k'
      000F37 6C                    3585 	.db #0x6c	; 108	'l'
      000F38 6A                    3586 	.db #0x6a	; 106	'j'
      000F39 6B                    3587 	.db #0x6b	; 107	'k'
      000F3A 6C                    3588 	.db #0x6c	; 108	'l'
      000F3B 6A                    3589 	.db #0x6a	; 106	'j'
      000F3C 6B                    3590 	.db #0x6b	; 107	'k'
      000F3D 6C                    3591 	.db #0x6c	; 108	'l'
      000F3E 6A                    3592 	.db #0x6a	; 106	'j'
      000F3F                       3593 _room_5_1_coll:
      000F3F 4C 00                 3594 	.dw #0x004c
      000F41 DC                    3595 	.db #0xdc	; 220
      000F42 00                    3596 	.db #0x00	; 0
      000F43 C2                    3597 	.db #0xc2	; 194
      000F44 01                    3598 	.db #0x01	; 1
      000F45 DC                    3599 	.db #0xdc	; 220
      000F46 00                    3600 	.db #0x00	; 0
      000F47 C2                    3601 	.db #0xc2	; 194
      000F48 01                    3602 	.db #0x01	; 1
      000F49 DC                    3603 	.db #0xdc	; 220
      000F4A 00                    3604 	.db #0x00	; 0
      000F4B C2                    3605 	.db #0xc2	; 194
      000F4C 01                    3606 	.db #0x01	; 1
      000F4D D9                    3607 	.db #0xd9	; 217
      000F4E 00                    3608 	.db #0x00	; 0
      000F4F 02                    3609 	.db #0x02	; 2
      000F50 C4                    3610 	.db #0xc4	; 196
      000F51 01                    3611 	.db #0x01	; 1
      000F52 DC                    3612 	.db #0xdc	; 220
      000F53 00                    3613 	.db #0x00	; 0
      000F54 C2                    3614 	.db #0xc2	; 194
      000F55 01                    3615 	.db #0x01	; 1
      000F56 DC                    3616 	.db #0xdc	; 220
      000F57 00                    3617 	.db #0x00	; 0
      000F58 C2                    3618 	.db #0xc2	; 194
      000F59 01                    3619 	.db #0x01	; 1
      000F5A DC                    3620 	.db #0xdc	; 220
      000F5B 00                    3621 	.db #0x00	; 0
      000F5C C2                    3622 	.db #0xc2	; 194
      000F5D 01                    3623 	.db #0x01	; 1
      000F5E D3                    3624 	.db #0xd3	; 211
      000F5F 00                    3625 	.db #0x00	; 0
      000F60 02                    3626 	.db #0x02	; 2
      000F61 CA                    3627 	.db #0xca	; 202
      000F62 01                    3628 	.db #0x01	; 1
      000F63 CF                    3629 	.db #0xcf	; 207
      000F64 00                    3630 	.db #0x00	; 0
      000F65 02                    3631 	.db #0x02	; 2
      000F66 01                    3632 	.db #0x01	; 1
      000F67 CB                    3633 	.db #0xcb	; 203
      000F68 00                    3634 	.db #0x00	; 0
      000F69 C2                    3635 	.db #0xc2	; 194
      000F6A 01                    3636 	.db #0x01	; 1
      000F6B CE                    3637 	.db #0xce	; 206
      000F6C 00                    3638 	.db #0x00	; 0
      000F6D C2                    3639 	.db #0xc2	; 194
      000F6E 01                    3640 	.db #0x01	; 1
      000F6F CC                    3641 	.db #0xcc	; 204
      000F70 00                    3642 	.db #0x00	; 0
      000F71 C2                    3643 	.db #0xc2	; 194
      000F72 01                    3644 	.db #0x01	; 1
      000F73 DC                    3645 	.db #0xdc	; 220
      000F74 00                    3646 	.db #0x00	; 0
      000F75 C2                    3647 	.db #0xc2	; 194
      000F76 01                    3648 	.db #0x01	; 1
      000F77 DC                    3649 	.db #0xdc	; 220
      000F78 00                    3650 	.db #0x00	; 0
      000F79 C2                    3651 	.db #0xc2	; 194
      000F7A 01                    3652 	.db #0x01	; 1
      000F7B DC                    3653 	.db #0xdc	; 220
      000F7C 00                    3654 	.db #0x00	; 0
      000F7D C2                    3655 	.db #0xc2	; 194
      000F7E 01                    3656 	.db #0x01	; 1
      000F7F DC                    3657 	.db #0xdc	; 220
      000F80 00                    3658 	.db #0x00	; 0
      000F81 C9                    3659 	.db #0xc9	; 201
      000F82 01                    3660 	.db #0x01	; 1
      000F83 02                    3661 	.db #0x02	; 2
      000F84 D4                    3662 	.db #0xd4	; 212
      000F85 00                    3663 	.db #0x00	; 0
      000F86 CA                    3664 	.db #0xca	; 202
      000F87 01                    3665 	.db #0x01	; 1
      000F88 02                    3666 	.db #0x02	; 2
      000F89 D3                    3667 	.db #0xd3	; 211
      000F8A 00                    3668 	.db #0x00	; 0
      000F8B E0                    3669 	.db #0xe0	; 224
      000F8C 01                    3670 	.db #0x01	; 1
      000F8D                       3671 _room_5_1_tiles:
      000F8D 77                    3672 	.db #0x77	; 119	'w'
      000F8E 00                    3673 	.db #0x00	; 0
      000F8F 02                    3674 	.db #0x02	; 2
      000F90 31                    3675 	.db #0x31	; 49	'1'
      000F91 54                    3676 	.db #0x54	; 84	'T'
      000F92 66                    3677 	.db #0x66	; 102	'f'
      000F93 0B                    3678 	.db #0x0b	; 11
      000F94 01                    3679 	.db #0x01	; 1
      000F95 14                    3680 	.db #0x14	; 20
      000F96 06                    3681 	.db #0x06	; 6
      000F97 0B                    3682 	.db #0x0b	; 11
      000F98 04                    3683 	.db #0x04	; 4
      000F99 08                    3684 	.db #0x08	; 8
      000F9A 88                    3685 	.db #0x88	; 136
      000F9B 01                    3686 	.db #0x01	; 1
      000F9C C1                    3687 	.db #0xc1	; 193
      000F9D 08                    3688 	.db #0x08	; 8
      000F9E 68                    3689 	.db #0x68	; 104	'h'
      000F9F 01                    3690 	.db #0x01	; 1
      000FA0 01                    3691 	.db #0x01	; 1
      000FA1 08                    3692 	.db #0x08	; 8
      000FA2 48                    3693 	.db #0x48	; 72	'H'
      000FA3 01                    3694 	.db #0x01	; 1
      000FA4 A1                    3695 	.db #0xa1	; 161
      000FA5 08                    3696 	.db #0x08	; 8
      000FA6 48                    3697 	.db #0x48	; 72	'H'
      000FA7 01                    3698 	.db #0x01	; 1
      000FA8 61                    3699 	.db #0x61	; 97	'a'
      000FA9 03                    3700 	.db #0x03	; 3
      000FAA 22                    3701 	.db #0x22	; 34
      000FAB 17                    3702 	.db #0x17	; 23
      000FAC 2A                    3703 	.db #0x2a	; 42
      000FAD 17                    3704 	.db #0x17	; 23
      000FAE 2A                    3705 	.db #0x2a	; 42
      000FAF 57                    3706 	.db #0x57	; 87	'W'
      000FB0 22                    3707 	.db #0x22	; 34
      000FB1 57                    3708 	.db #0x57	; 87	'W'
      000FB2 03                    3709 	.db #0x03	; 3
      000FB3 FA                    3710 	.db #0xfa	; 250
      000FB4 5F                    3711 	.db #0x5f	; 95
      000FB5 EA                    3712 	.db #0xea	; 234
      000FB6 4F                    3713 	.db #0x4f	; 79	'O'
      000FB7 EA                    3714 	.db #0xea	; 234
      000FB8 4F                    3715 	.db #0x4f	; 79	'O'
      000FB9 EA                    3716 	.db #0xea	; 234
      000FBA 5F                    3717 	.db #0x5f	; 95
      000FBB 03                    3718 	.db #0x03	; 3
      000FBC 66                    3719 	.db #0x66	; 102	'f'
      000FBD 54                    3720 	.db #0x54	; 84	'T'
      000FBE 66                    3721 	.db #0x66	; 102	'f'
      000FBF 54                    3722 	.db #0x54	; 84	'T'
      000FC0 EA                    3723 	.db #0xea	; 234
      000FC1 54                    3724 	.db #0x54	; 84	'T'
      000FC2 E6                    3725 	.db #0xe6	; 230
      000FC3 54                    3726 	.db #0x54	; 84	'T'
      000FC4 03                    3727 	.db #0x03	; 3
      000FC5 80                    3728 	.db #0x80	; 128
      000FC6 10                    3729 	.db #0x10	; 16
      000FC7 80                    3730 	.db #0x80	; 128
      000FC8 10                    3731 	.db #0x10	; 16
      000FC9 80                    3732 	.db #0x80	; 128
      000FCA 10                    3733 	.db #0x10	; 16
      000FCB 80                    3734 	.db #0x80	; 128
      000FCC 10                    3735 	.db #0x10	; 16
      000FCD 01                    3736 	.db #0x01	; 1
      000FCE 38                    3737 	.db #0x38	; 56	'8'
      000FCF 54                    3738 	.db #0x54	; 84	'T'
      000FD0 AA                    3739 	.db #0xaa	; 170
      000FD1 D2                    3740 	.db #0xd2	; 210
      000FD2 82                    3741 	.db #0x82	; 130
      000FD3 44                    3742 	.db #0x44	; 68	'D'
      000FD4 38                    3743 	.db #0x38	; 56	'8'
      000FD5 00                    3744 	.db #0x00	; 0
      000FD6 03                    3745 	.db #0x03	; 3
      000FD7 0A                    3746 	.db #0x0a	; 10
      000FD8 01                    3747 	.db #0x01	; 1
      000FD9 0A                    3748 	.db #0x0a	; 10
      000FDA 03                    3749 	.db #0x03	; 3
      000FDB 0A                    3750 	.db #0x0a	; 10
      000FDC 02                    3751 	.db #0x02	; 2
      000FDD 0A                    3752 	.db #0x0a	; 10
      000FDE 02                    3753 	.db #0x02	; 2
      000FDF 03                    3754 	.db #0x03	; 3
      000FE0 FA                    3755 	.db #0xfa	; 250
      000FE1 4F                    3756 	.db #0x4f	; 79	'O'
      000FE2 EA                    3757 	.db #0xea	; 234
      000FE3 5F                    3758 	.db #0x5f	; 95
      000FE4 FA                    3759 	.db #0xfa	; 250
      000FE5 5F                    3760 	.db #0x5f	; 95
      000FE6 FA                    3761 	.db #0xfa	; 250
      000FE7 53                    3762 	.db #0x53	; 83	'S'
      000FE8 03                    3763 	.db #0x03	; 3
      000FE9 00                    3764 	.db #0x00	; 0
      000FEA 00                    3765 	.db #0x00	; 0
      000FEB 00                    3766 	.db #0x00	; 0
      000FEC 00                    3767 	.db #0x00	; 0
      000FED 00                    3768 	.db #0x00	; 0
      000FEE 20                    3769 	.db #0x20	; 32
      000FEF 40                    3770 	.db #0x40	; 64
      000FF0 40                    3771 	.db #0x40	; 64
      000FF1 04                    3772 	.db #0x04	; 4
      000FF2 08                    3773 	.db #0x08	; 8
      000FF3 A8                    3774 	.db #0xa8	; 168
      000FF4 01                    3775 	.db #0x01	; 1
      000FF5 C1                    3776 	.db #0xc1	; 193
      000FF6 08                    3777 	.db #0x08	; 8
      000FF7 08                    3778 	.db #0x08	; 8
      000FF8 01                    3779 	.db #0x01	; 1
      000FF9 41                    3780 	.db #0x41	; 65	'A'
      000FFA 08                    3781 	.db #0x08	; 8
      000FFB 88                    3782 	.db #0x88	; 136
      000FFC 01                    3783 	.db #0x01	; 1
      000FFD 41                    3784 	.db #0x41	; 65	'A'
      000FFE 08                    3785 	.db #0x08	; 8
      000FFF 68                    3786 	.db #0x68	; 104	'h'
      001000 01                    3787 	.db #0x01	; 1
      001001 21                    3788 	.db #0x21	; 33
      001002 03                    3789 	.db #0x03	; 3
      001003 22                    3790 	.db #0x22	; 34
      001004 57                    3791 	.db #0x57	; 87	'W'
      001005 32                    3792 	.db #0x32	; 50	'2'
      001006 56                    3793 	.db #0x56	; 86	'V'
      001007 32                    3794 	.db #0x32	; 50	'2'
      001008 57                    3795 	.db #0x57	; 87	'W'
      001009 32                    3796 	.db #0x32	; 50	'2'
      00100A 16                    3797 	.db #0x16	; 22
      00100B 03                    3798 	.db #0x03	; 3
      00100C FA                    3799 	.db #0xfa	; 250
      00100D 5F                    3800 	.db #0x5f	; 95
      00100E FA                    3801 	.db #0xfa	; 250
      00100F 5F                    3802 	.db #0x5f	; 95
      001010 EA                    3803 	.db #0xea	; 234
      001011 4F                    3804 	.db #0x4f	; 79	'O'
      001012 EA                    3805 	.db #0xea	; 234
      001013 5F                    3806 	.db #0x5f	; 95
      001014 03                    3807 	.db #0x03	; 3
      001015 62                    3808 	.db #0x62	; 98	'b'
      001016 5C                    3809 	.db #0x5c	; 92
      001017 EA                    3810 	.db #0xea	; 234
      001018 54                    3811 	.db #0x54	; 84	'T'
      001019 E2                    3812 	.db #0xe2	; 226
      00101A 54                    3813 	.db #0x54	; 84	'T'
      00101B 66                    3814 	.db #0x66	; 102	'f'
      00101C 54                    3815 	.db #0x54	; 84	'T'
      00101D 03                    3816 	.db #0x03	; 3
      00101E 80                    3817 	.db #0x80	; 128
      00101F 10                    3818 	.db #0x10	; 16
      001020 80                    3819 	.db #0x80	; 128
      001021 10                    3820 	.db #0x10	; 16
      001022 80                    3821 	.db #0x80	; 128
      001023 10                    3822 	.db #0x10	; 16
      001024 81                    3823 	.db #0x81	; 129
      001025 13                    3824 	.db #0x13	; 19
      001026 03                    3825 	.db #0x03	; 3
      001027 00                    3826 	.db #0x00	; 0
      001028 10                    3827 	.db #0x10	; 16
      001029 A0                    3828 	.db #0xa0	; 160
      00102A 40                    3829 	.db #0x40	; 64
      00102B 40                    3830 	.db #0x40	; 64
      00102C 98                    3831 	.db #0x98	; 152
      00102D 70                    3832 	.db #0x70	; 112	'p'
      00102E 80                    3833 	.db #0x80	; 128
      00102F 01                    3834 	.db #0x01	; 1
      001030 00                    3835 	.db #0x00	; 0
      001031 30                    3836 	.db #0x30	; 48	'0'
      001032 28                    3837 	.db #0x28	; 40
      001033 30                    3838 	.db #0x30	; 48	'0'
      001034 2A                    3839 	.db #0x2a	; 42
      001035 33                    3840 	.db #0x33	; 51	'3'
      001036 28                    3841 	.db #0x28	; 40
      001037 30                    3842 	.db #0x30	; 48	'0'
      001038 01                    3843 	.db #0x01	; 1
      001039 00                    3844 	.db #0x00	; 0
      00103A 00                    3845 	.db #0x00	; 0
      00103B 00                    3846 	.db #0x00	; 0
      00103C 00                    3847 	.db #0x00	; 0
      00103D 00                    3848 	.db #0x00	; 0
      00103E 01                    3849 	.db #0x01	; 1
      00103F DB                    3850 	.db #0xdb	; 219
      001040 6C                    3851 	.db #0x6c	; 108	'l'
      001041 01                    3852 	.db #0x01	; 1
      001042 00                    3853 	.db #0x00	; 0
      001043 30                    3854 	.db #0x30	; 48	'0'
      001044 28                    3855 	.db #0x28	; 40
      001045 30                    3856 	.db #0x30	; 48	'0'
      001046 AA                    3857 	.db #0xaa	; 170
      001047 B3                    3858 	.db #0xb3	; 179
      001048 28                    3859 	.db #0x28	; 40
      001049 30                    3860 	.db #0x30	; 48	'0'
      00104A 04                    3861 	.db #0x04	; 4
      00104B 0A                    3862 	.db #0x0a	; 10
      00104C 0A                    3863 	.db #0x0a	; 10
      00104D 01                    3864 	.db #0x01	; 1
      00104E 01                    3865 	.db #0x01	; 1
      00104F 0A                    3866 	.db #0x0a	; 10
      001050 0A                    3867 	.db #0x0a	; 10
      001051 01                    3868 	.db #0x01	; 1
      001052 01                    3869 	.db #0x01	; 1
      001053 0A                    3870 	.db #0x0a	; 10
      001054 0A                    3871 	.db #0x0a	; 10
      001055 02                    3872 	.db #0x02	; 2
      001056 02                    3873 	.db #0x02	; 2
      001057 CA                    3874 	.db #0xca	; 202
      001058 0A                    3875 	.db #0x0a	; 10
      001059 61                    3876 	.db #0x61	; 97	'a'
      00105A 01                    3877 	.db #0x01	; 1
      00105B 03                    3878 	.db #0x03	; 3
      00105C 06                    3879 	.db #0x06	; 6
      00105D 03                    3880 	.db #0x03	; 3
      00105E 01                    3881 	.db #0x01	; 1
      00105F 00                    3882 	.db #0x00	; 0
      001060 00                    3883 	.db #0x00	; 0
      001061 00                    3884 	.db #0x00	; 0
      001062 00                    3885 	.db #0x00	; 0
      001063 00                    3886 	.db #0x00	; 0
      001064 03                    3887 	.db #0x03	; 3
      001065 80                    3888 	.db #0x80	; 128
      001066 80                    3889 	.db #0x80	; 128
      001067 80                    3890 	.db #0x80	; 128
      001068 C0                    3891 	.db #0xc0	; 192
      001069 60                    3892 	.db #0x60	; 96
      00106A 70                    3893 	.db #0x70	; 112	'p'
      00106B 38                    3894 	.db #0x38	; 56	'8'
      00106C 2C                    3895 	.db #0x2c	; 44
      00106D 04                    3896 	.db #0x04	; 4
      00106E 08                    3897 	.db #0x08	; 8
      00106F 08                    3898 	.db #0x08	; 8
      001070 01                    3899 	.db #0x01	; 1
      001071 41                    3900 	.db #0x41	; 65	'A'
      001072 08                    3901 	.db #0x08	; 8
      001073 88                    3902 	.db #0x88	; 136
      001074 01                    3903 	.db #0x01	; 1
      001075 E1                    3904 	.db #0xe1	; 225
      001076 08                    3905 	.db #0x08	; 8
      001077 08                    3906 	.db #0x08	; 8
      001078 01                    3907 	.db #0x01	; 1
      001079 21                    3908 	.db #0x21	; 33
      00107A 08                    3909 	.db #0x08	; 8
      00107B 08                    3910 	.db #0x08	; 8
      00107C 01                    3911 	.db #0x01	; 1
      00107D 01                    3912 	.db #0x01	; 1
      00107E 04                    3913 	.db #0x04	; 4
      00107F 85                    3914 	.db #0x85	; 133
      001080 85                    3915 	.db #0x85	; 133
      001081 12                    3916 	.db #0x12	; 18
      001082 12                    3917 	.db #0x12	; 18
      001083 84                    3918 	.db #0x84	; 132
      001084 84                    3919 	.db #0x84	; 132
      001085 10                    3920 	.db #0x10	; 16
      001086 10                    3921 	.db #0x10	; 16
      001087 80                    3922 	.db #0x80	; 128
      001088 80                    3923 	.db #0x80	; 128
      001089 10                    3924 	.db #0x10	; 16
      00108A 10                    3925 	.db #0x10	; 16
      00108B 80                    3926 	.db #0x80	; 128
      00108C 80                    3927 	.db #0x80	; 128
      00108D 10                    3928 	.db #0x10	; 16
      00108E 11                    3929 	.db #0x11	; 17
      00108F 01                    3930 	.db #0x01	; 1
      001090 28                    3931 	.db #0x28	; 40
      001091 30                    3932 	.db #0x30	; 48	'0'
      001092 28                    3933 	.db #0x28	; 40
      001093 30                    3934 	.db #0x30	; 48	'0'
      001094 28                    3935 	.db #0x28	; 40
      001095 30                    3936 	.db #0x30	; 48	'0'
      001096 28                    3937 	.db #0x28	; 40
      001097 00                    3938 	.db #0x00	; 0
      001098 03                    3939 	.db #0x03	; 3
      001099 0A                    3940 	.db #0x0a	; 10
      00109A 01                    3941 	.db #0x01	; 1
      00109B 0A                    3942 	.db #0x0a	; 10
      00109C 02                    3943 	.db #0x02	; 2
      00109D 0A                    3944 	.db #0x0a	; 10
      00109E 02                    3945 	.db #0x02	; 2
      00109F 0A                    3946 	.db #0x0a	; 10
      0010A0 00                    3947 	.db #0x00	; 0
      0010A1 02                    3948 	.db #0x02	; 2
      0010A2 00                    3949 	.db #0x00	; 0
      0010A3 00                    3950 	.db #0x00	; 0
      0010A4 00                    3951 	.db #0x00	; 0
      0010A5 00                    3952 	.db #0x00	; 0
      0010A6 10                    3953 	.db #0x10	; 16
      0010A7 9B                    3954 	.db #0x9b	; 155
      0010A8 2D                    3955 	.db #0x2d	; 45
      0010A9 D0                    3956 	.db #0xd0	; 208
      0010AA 02                    3957 	.db #0x02	; 2
      0010AB 01                    3958 	.db #0x01	; 1
      0010AC 02                    3959 	.db #0x02	; 2
      0010AD 00                    3960 	.db #0x00	; 0
      0010AE 00                    3961 	.db #0x00	; 0
      0010AF 00                    3962 	.db #0x00	; 0
      0010B0 00                    3963 	.db #0x00	; 0
      0010B1 80                    3964 	.db #0x80	; 128
      0010B2 40                    3965 	.db #0x40	; 64
      0010B3 03                    3966 	.db #0x03	; 3
      0010B4 E6                    3967 	.db #0xe6	; 230
      0010B5 1B                    3968 	.db #0x1b	; 27
      0010B6 0D                    3969 	.db #0x0d	; 13
      0010B7 06                    3970 	.db #0x06	; 6
      0010B8 04                    3971 	.db #0x04	; 4
      0010B9 03                    3972 	.db #0x03	; 3
      0010BA 21                    3973 	.db #0x21	; 33
      0010BB 10                    3974 	.db #0x10	; 16
      0010BC 03                    3975 	.db #0x03	; 3
      0010BD 10                    3976 	.db #0x10	; 16
      0010BE 30                    3977 	.db #0x30	; 48	'0'
      0010BF B0                    3978 	.db #0xb0	; 176
      0010C0 F0                    3979 	.db #0xf0	; 240
      0010C1 70                    3980 	.db #0x70	; 112	'p'
      0010C2 2C                    3981 	.db #0x2c	; 44
      0010C3 16                    3982 	.db #0x16	; 22
      0010C4 8F                    3983 	.db #0x8f	; 143
      0010C5 03                    3984 	.db #0x03	; 3
      0010C6 08                    3985 	.db #0x08	; 8
      0010C7 01                    3986 	.db #0x01	; 1
      0010C8 08                    3987 	.db #0x08	; 8
      0010C9 01                    3988 	.db #0x01	; 1
      0010CA 08                    3989 	.db #0x08	; 8
      0010CB 01                    3990 	.db #0x01	; 1
      0010CC 08                    3991 	.db #0x08	; 8
      0010CD 01                    3992 	.db #0x01	; 1
      0010CE 04                    3993 	.db #0x04	; 4
      0010CF 80                    3994 	.db #0x80	; 128
      0010D0 83                    3995 	.db #0x83	; 131
      0010D1 10                    3996 	.db #0x10	; 16
      0010D2 14                    3997 	.db #0x14	; 20
      0010D3 80                    3998 	.db #0x80	; 128
      0010D4 84                    3999 	.db #0x84	; 132
      0010D5 10                    4000 	.db #0x10	; 16
      0010D6 11                    4001 	.db #0x11	; 17
      0010D7 80                    4002 	.db #0x80	; 128
      0010D8 84                    4003 	.db #0x84	; 132
      0010D9 10                    4004 	.db #0x10	; 16
      0010DA 16                    4005 	.db #0x16	; 22
      0010DB 80                    4006 	.db #0x80	; 128
      0010DC 84                    4007 	.db #0x84	; 132
      0010DD 10                    4008 	.db #0x10	; 16
      0010DE 11                    4009 	.db #0x11	; 17
      0010DF 02                    4010 	.db #0x02	; 2
      0010E0 2B                    4011 	.db #0x2b	; 43
      0010E1 1C                    4012 	.db #0x1c	; 28
      0010E2 C2                    4013 	.db #0xc2	; 194
      0010E3 31                    4014 	.db #0x31	; 49	'1'
      0010E4 4A                    4015 	.db #0x4a	; 74	'J'
      0010E5 2D                    4016 	.db #0x2d	; 45
      0010E6 D0                    4017 	.db #0xd0	; 208
      0010E7 9A                    4018 	.db #0x9a	; 154
      0010E8 02                    4019 	.db #0x02	; 2
      0010E9 00                    4020 	.db #0x00	; 0
      0010EA 00                    4021 	.db #0x00	; 0
      0010EB 40                    4022 	.db #0x40	; 64
      0010EC A0                    4023 	.db #0xa0	; 160
      0010ED 80                    4024 	.db #0x80	; 128
      0010EE 20                    4025 	.db #0x20	; 32
      0010EF 60                    4026 	.db #0x60	; 96
      0010F0 D0                    4027 	.db #0xd0	; 208
      0010F1 04                    4028 	.db #0x04	; 4
      0010F2 2A                    4029 	.db #0x2a	; 42
      0010F3 0A                    4030 	.db #0x0a	; 10
      0010F4 41                    4031 	.db #0x41	; 65	'A'
      0010F5 01                    4032 	.db #0x01	; 1
      0010F6 AA                    4033 	.db #0xaa	; 170
      0010F7 0A                    4034 	.db #0x0a	; 10
      0010F8 C1                    4035 	.db #0xc1	; 193
      0010F9 01                    4036 	.db #0x01	; 1
      0010FA 8A                    4037 	.db #0x8a	; 138
      0010FB 0A                    4038 	.db #0x0a	; 10
      0010FC 41                    4039 	.db #0x41	; 65	'A'
      0010FD 01                    4040 	.db #0x01	; 1
      0010FE 2A                    4041 	.db #0x2a	; 42
      0010FF 0A                    4042 	.db #0x0a	; 10
      001100 01                    4043 	.db #0x01	; 1
      001101 01                    4044 	.db #0x01	; 1
      001102 02                    4045 	.db #0x02	; 2
      001103 07                    4046 	.db #0x07	; 7
      001104 04                    4047 	.db #0x04	; 4
      001105 02                    4048 	.db #0x02	; 2
      001106 0D                    4049 	.db #0x0d	; 13
      001107 08                    4050 	.db #0x08	; 8
      001108 03                    4051 	.db #0x03	; 3
      001109 04                    4052 	.db #0x04	; 4
      00110A 02                    4053 	.db #0x02	; 2
      00110B 04                    4054 	.db #0x04	; 4
      00110C 00                    4055 	.db #0x00	; 0
      00110D 00                    4056 	.db #0x00	; 0
      00110E 00                    4057 	.db #0x00	; 0
      00110F A0                    4058 	.db #0xa0	; 160
      001110 00                    4059 	.db #0x00	; 0
      001111 00                    4060 	.db #0x00	; 0
      001112 03                    4061 	.db #0x03	; 3
      001113 B3                    4062 	.db #0xb3	; 179
      001114 00                    4063 	.db #0x00	; 0
      001115 60                    4064 	.db #0x60	; 96
      001116 00                    4065 	.db #0x00	; 0
      001117 B0                    4066 	.db #0xb0	; 176
      001118 00                    4067 	.db #0x00	; 0
      001119 40                    4068 	.db #0x40	; 64
      00111A 00                    4069 	.db #0x00	; 0
      00111B 00                    4070 	.db #0x00	; 0
      00111C 03                    4071 	.db #0x03	; 3
      00111D 09                    4072 	.db #0x09	; 9
      00111E 1F                    4073 	.db #0x1f	; 31
      00111F 60                    4074 	.db #0x60	; 96
      001120 80                    4075 	.db #0x80	; 128
      001121 00                    4076 	.db #0x00	; 0
      001122 00                    4077 	.db #0x00	; 0
      001123 00                    4078 	.db #0x00	; 0
      001124 00                    4079 	.db #0x00	; 0
      001125 03                    4080 	.db #0x03	; 3
      001126 43                    4081 	.db #0x43	; 67	'C'
      001127 A1                    4082 	.db #0xa1	; 161
      001128 70                    4083 	.db #0x70	; 112	'p'
      001129 0C                    4084 	.db #0x0c	; 12
      00112A 02                    4085 	.db #0x02	; 2
      00112B 01                    4086 	.db #0x01	; 1
      00112C 00                    4087 	.db #0x00	; 0
      00112D 00                    4088 	.db #0x00	; 0
      00112E 03                    4089 	.db #0x03	; 3
      00112F 88                    4090 	.db #0x88	; 136
      001130 61                    4091 	.db #0x61	; 97	'a'
      001131 A8                    4092 	.db #0xa8	; 168
      001132 41                    4093 	.db #0x41	; 65	'A'
      001133 28                    4094 	.db #0x28	; 40
      001134 01                    4095 	.db #0x01	; 1
      001135 88                    4096 	.db #0x88	; 136
      001136 61                    4097 	.db #0x61	; 97	'a'
      001137 04                    4098 	.db #0x04	; 4
      001138 80                    4099 	.db #0x80	; 128
      001139 81                    4100 	.db #0x81	; 129
      00113A 10                    4101 	.db #0x10	; 16
      00113B 14                    4102 	.db #0x14	; 20
      00113C 80                    4103 	.db #0x80	; 128
      00113D 81                    4104 	.db #0x81	; 129
      00113E 10                    4105 	.db #0x10	; 16
      00113F 16                    4106 	.db #0x16	; 22
      001140 80                    4107 	.db #0x80	; 128
      001141 80                    4108 	.db #0x80	; 128
      001142 10                    4109 	.db #0x10	; 16
      001143 10                    4110 	.db #0x10	; 16
      001144 80                    4111 	.db #0x80	; 128
      001145 85                    4112 	.db #0x85	; 133
      001146 10                    4113 	.db #0x10	; 16
      001147 14                    4114 	.db #0x14	; 20
      001148 02                    4115 	.db #0x02	; 2
      001149 A0                    4116 	.db #0xa0	; 160
      00114A 00                    4117 	.db #0x00	; 0
      00114B A0                    4118 	.db #0xa0	; 160
      00114C C0                    4119 	.db #0xc0	; 192
      00114D 40                    4120 	.db #0x40	; 64
      00114E 30                    4121 	.db #0x30	; 48	'0'
      00114F A0                    4122 	.db #0xa0	; 160
      001150 00                    4123 	.db #0x00	; 0
      001151 01                    4124 	.db #0x01	; 1
      001152 00                    4125 	.db #0x00	; 0
      001153 00                    4126 	.db #0x00	; 0
      001154 00                    4127 	.db #0x00	; 0
      001155 3C                    4128 	.db #0x3c	; 60
      001156 7E                    4129 	.db #0x7e	; 126
      001157 7E                    4130 	.db #0x7e	; 126
      001158 3C                    4131 	.db #0x3c	; 60
      001159 00                    4132 	.db #0x00	; 0
      00115A 02                    4133 	.db #0x02	; 2
      00115B 37                    4134 	.db #0x37	; 55	'7'
      00115C 00                    4135 	.db #0x00	; 0
      00115D CD                    4136 	.db #0xcd	; 205
      00115E 91                    4137 	.db #0x91	; 145
      00115F 00                    4138 	.db #0x00	; 0
      001160 00                    4139 	.db #0x00	; 0
      001161 00                    4140 	.db #0x00	; 0
      001162 00                    4141 	.db #0x00	; 0
      001163 02                    4142 	.db #0x02	; 2
      001164 40                    4143 	.db #0x40	; 64
      001165 E0                    4144 	.db #0xe0	; 224
      001166 00                    4145 	.db #0x00	; 0
      001167 00                    4146 	.db #0x00	; 0
      001168 00                    4147 	.db #0x00	; 0
      001169 00                    4148 	.db #0x00	; 0
      00116A 00                    4149 	.db #0x00	; 0
      00116B 00                    4150 	.db #0x00	; 0
      00116C 04                    4151 	.db #0x04	; 4
      00116D 28                    4152 	.db #0x28	; 40
      00116E 28                    4153 	.db #0x28	; 40
      00116F 01                    4154 	.db #0x01	; 1
      001170 01                    4155 	.db #0x01	; 1
      001171 08                    4156 	.db #0x08	; 8
      001172 08                    4157 	.db #0x08	; 8
      001173 01                    4158 	.db #0x01	; 1
      001174 01                    4159 	.db #0x01	; 1
      001175 08                    4160 	.db #0x08	; 8
      001176 08                    4161 	.db #0x08	; 8
      001177 01                    4162 	.db #0x01	; 1
      001178 01                    4163 	.db #0x01	; 1
      001179 08                    4164 	.db #0x08	; 8
      00117A 08                    4165 	.db #0x08	; 8
      00117B 01                    4166 	.db #0x01	; 1
      00117C 81                    4167 	.db #0x81	; 129
      00117D 04                    4168 	.db #0x04	; 4
      00117E 80                    4169 	.db #0x80	; 128
      00117F 81                    4170 	.db #0x81	; 129
      001180 10                    4171 	.db #0x10	; 16
      001181 13                    4172 	.db #0x13	; 19
      001182 80                    4173 	.db #0x80	; 128
      001183 82                    4174 	.db #0x82	; 130
      001184 10                    4175 	.db #0x10	; 16
      001185 10                    4176 	.db #0x10	; 16
      001186 80                    4177 	.db #0x80	; 128
      001187 86                    4178 	.db #0x86	; 134
      001188 10                    4179 	.db #0x10	; 16
      001189 15                    4180 	.db #0x15	; 21
      00118A 80                    4181 	.db #0x80	; 128
      00118B 80                    4182 	.db #0x80	; 128
      00118C 10                    4183 	.db #0x10	; 16
      00118D 13                    4184 	.db #0x13	; 19
      00118E 02                    4185 	.db #0x02	; 2
      00118F 20                    4186 	.db #0x20	; 32
      001190 5C                    4187 	.db #0x5c	; 92
      001191 30                    4188 	.db #0x30	; 48	'0'
      001192 00                    4189 	.db #0x00	; 0
      001193 00                    4190 	.db #0x00	; 0
      001194 00                    4191 	.db #0x00	; 0
      001195 00                    4192 	.db #0x00	; 0
      001196 40                    4193 	.db #0x40	; 64
      001197 01                    4194 	.db #0x01	; 1
      001198 10                    4195 	.db #0x10	; 16
      001199 18                    4196 	.db #0x18	; 24
      00119A 18                    4197 	.db #0x18	; 24
      00119B 18                    4198 	.db #0x18	; 24
      00119C 18                    4199 	.db #0x18	; 24
      00119D 18                    4200 	.db #0x18	; 24
      00119E 18                    4201 	.db #0x18	; 24
      00119F 18                    4202 	.db #0x18	; 24
      0011A0 02                    4203 	.db #0x02	; 2
      0011A1 00                    4204 	.db #0x00	; 0
      0011A2 00                    4205 	.db #0x00	; 0
      0011A3 18                    4206 	.db #0x18	; 24
      0011A4 04                    4207 	.db #0x04	; 4
      0011A5 04                    4208 	.db #0x04	; 4
      0011A6 02                    4209 	.db #0x02	; 2
      0011A7 02                    4210 	.db #0x02	; 2
      0011A8 09                    4211 	.db #0x09	; 9
      0011A9 02                    4212 	.db #0x02	; 2
      0011AA 08                    4213 	.db #0x08	; 8
      0011AB 14                    4214 	.db #0x14	; 20
      0011AC 20                    4215 	.db #0x20	; 32
      0011AD 20                    4216 	.db #0x20	; 32
      0011AE 40                    4217 	.db #0x40	; 64
      0011AF 40                    4218 	.db #0x40	; 64
      0011B0 40                    4219 	.db #0x40	; 64
      0011B1 40                    4220 	.db #0x40	; 64
      0011B2 02                    4221 	.db #0x02	; 2
      0011B3 00                    4222 	.db #0x00	; 0
      0011B4 00                    4223 	.db #0x00	; 0
      0011B5 02                    4224 	.db #0x02	; 2
      0011B6 05                    4225 	.db #0x05	; 5
      0011B7 01                    4226 	.db #0x01	; 1
      0011B8 04                    4227 	.db #0x04	; 4
      0011B9 06                    4228 	.db #0x06	; 6
      0011BA 0B                    4229 	.db #0x0b	; 11
      0011BB 04                    4230 	.db #0x04	; 4
      0011BC 08                    4231 	.db #0x08	; 8
      0011BD C8                    4232 	.db #0xc8	; 200
      0011BE 01                    4233 	.db #0x01	; 1
      0011BF 21                    4234 	.db #0x21	; 33
      0011C0 08                    4235 	.db #0x08	; 8
      0011C1 28                    4236 	.db #0x28	; 40
      0011C2 01                    4237 	.db #0x01	; 1
      0011C3 81                    4238 	.db #0x81	; 129
      0011C4 08                    4239 	.db #0x08	; 8
      0011C5 28                    4240 	.db #0x28	; 40
      0011C6 01                    4241 	.db #0x01	; 1
      0011C7 61                    4242 	.db #0x61	; 97	'a'
      0011C8 08                    4243 	.db #0x08	; 8
      0011C9 28                    4244 	.db #0x28	; 40
      0011CA 01                    4245 	.db #0x01	; 1
      0011CB 81                    4246 	.db #0x81	; 129
      0011CC 04                    4247 	.db #0x04	; 4
      0011CD 80                    4248 	.db #0x80	; 128
      0011CE 84                    4249 	.db #0x84	; 132
      0011CF 10                    4250 	.db #0x10	; 16
      0011D0 10                    4251 	.db #0x10	; 16
      0011D1 80                    4252 	.db #0x80	; 128
      0011D2 85                    4253 	.db #0x85	; 133
      0011D3 10                    4254 	.db #0x10	; 16
      0011D4 16                    4255 	.db #0x16	; 22
      0011D5 80                    4256 	.db #0x80	; 128
      0011D6 82                    4257 	.db #0x82	; 130
      0011D7 10                    4258 	.db #0x10	; 16
      0011D8 14                    4259 	.db #0x14	; 20
      0011D9 80                    4260 	.db #0x80	; 128
      0011DA 83                    4261 	.db #0x83	; 131
      0011DB 10                    4262 	.db #0x10	; 16
      0011DC 15                    4263 	.db #0x15	; 21
      0011DD 01                    4264 	.db #0x01	; 1
      0011DE 18                    4265 	.db #0x18	; 24
      0011DF 18                    4266 	.db #0x18	; 24
      0011E0 18                    4267 	.db #0x18	; 24
      0011E1 18                    4268 	.db #0x18	; 24
      0011E2 18                    4269 	.db #0x18	; 24
      0011E3 18                    4270 	.db #0x18	; 24
      0011E4 18                    4271 	.db #0x18	; 24
      0011E5 00                    4272 	.db #0x00	; 0
      0011E6 02                    4273 	.db #0x02	; 2
      0011E7 05                    4274 	.db #0x05	; 5
      0011E8 25                    4275 	.db #0x25	; 37
      0011E9 12                    4276 	.db #0x12	; 18
      0011EA 14                    4277 	.db #0x14	; 20
      0011EB C9                    4278 	.db #0xc9	; 201
      0011EC 54                    4279 	.db #0x54	; 84	'T'
      0011ED B6                    4280 	.db #0xb6	; 182
      0011EE 6B                    4281 	.db #0x6b	; 107	'k'
      0011EF 02                    4282 	.db #0x02	; 2
      0011F0 40                    4283 	.db #0x40	; 64
      0011F1 A2                    4284 	.db #0xa2	; 162
      0011F2 A4                    4285 	.db #0xa4	; 164
      0011F3 98                    4286 	.db #0x98	; 152
      0011F4 14                    4287 	.db #0x14	; 20
      0011F5 B5                    4288 	.db #0xb5	; 181
      0011F6 EE                    4289 	.db #0xee	; 238
      0011F7 B5                    4290 	.db #0xb5	; 181
      0011F8 02                    4291 	.db #0x02	; 2
      0011F9 01                    4292 	.db #0x01	; 1
      0011FA 04                    4293 	.db #0x04	; 4
      0011FB 06                    4294 	.db #0x06	; 6
      0011FC 0B                    4295 	.db #0x0b	; 11
      0011FD 0C                    4296 	.db #0x0c	; 12
      0011FE 01                    4297 	.db #0x01	; 1
      0011FF 01                    4298 	.db #0x01	; 1
      001200 02                    4299 	.db #0x02	; 2
      001201 04                    4300 	.db #0x04	; 4
      001202 08                    4301 	.db #0x08	; 8
      001203 88                    4302 	.db #0x88	; 136
      001204 01                    4303 	.db #0x01	; 1
      001205 21                    4304 	.db #0x21	; 33
      001206 08                    4305 	.db #0x08	; 8
      001207 88                    4306 	.db #0x88	; 136
      001208 01                    4307 	.db #0x01	; 1
      001209 61                    4308 	.db #0x61	; 97	'a'
      00120A 08                    4309 	.db #0x08	; 8
      00120B 08                    4310 	.db #0x08	; 8
      00120C 01                    4311 	.db #0x01	; 1
      00120D 01                    4312 	.db #0x01	; 1
      00120E 08                    4313 	.db #0x08	; 8
      00120F A8                    4314 	.db #0xa8	; 168
      001210 01                    4315 	.db #0x01	; 1
      001211 21                    4316 	.db #0x21	; 33
      001212 04                    4317 	.db #0x04	; 4
      001213 80                    4318 	.db #0x80	; 128
      001214 80                    4319 	.db #0x80	; 128
      001215 10                    4320 	.db #0x10	; 16
      001216 16                    4321 	.db #0x16	; 22
      001217 80                    4322 	.db #0x80	; 128
      001218 85                    4323 	.db #0x85	; 133
      001219 10                    4324 	.db #0x10	; 16
      00121A 12                    4325 	.db #0x12	; 18
      00121B 80                    4326 	.db #0x80	; 128
      00121C 84                    4327 	.db #0x84	; 132
      00121D 10                    4328 	.db #0x10	; 16
      00121E 14                    4329 	.db #0x14	; 20
      00121F 80                    4330 	.db #0x80	; 128
      001220 80                    4331 	.db #0x80	; 128
      001221 10                    4332 	.db #0x10	; 16
      001222 10                    4333 	.db #0x10	; 16
      001223 01                    4334 	.db #0x01	; 1
      001224 01                    4335 	.db #0x01	; 1
      001225 03                    4336 	.db #0x03	; 3
      001226 02                    4337 	.db #0x02	; 2
      001227 05                    4338 	.db #0x05	; 5
      001228 05                    4339 	.db #0x05	; 5
      001229 0A                    4340 	.db #0x0a	; 10
      00122A 0B                    4341 	.db #0x0b	; 11
      00122B 1A                    4342 	.db #0x1a	; 26
      00122C 01                    4343 	.db #0x01	; 1
      00122D 3B                    4344 	.db #0x3b	; 59
      00122E 56                    4345 	.db #0x56	; 86	'V'
      00122F D4                    4346 	.db #0xd4	; 212
      001230 F5                    4347 	.db #0xf5	; 245
      001231 B5                    4348 	.db #0xb5	; 181
      001232 B5                    4349 	.db #0xb5	; 181
      001233 D6                    4350 	.db #0xd6	; 214
      001234 DE                    4351 	.db #0xde	; 222
      001235 01                    4352 	.db #0x01	; 1
      001236 77                    4353 	.db #0x77	; 119	'w'
      001237 8B                    4354 	.db #0x8b	; 139
      001238 B7                    4355 	.db #0xb7	; 183
      001239 AA                    4356 	.db #0xaa	; 170
      00123A AA                    4357 	.db #0xaa	; 170
      00123B AA                    4358 	.db #0xaa	; 170
      00123C EE                    4359 	.db #0xee	; 238
      00123D DD                    4360 	.db #0xdd	; 221
      00123E 04                    4361 	.db #0x04	; 4
      00123F 4A                    4362 	.db #0x4a	; 74	'J'
      001240 0A                    4363 	.db #0x0a	; 10
      001241 41                    4364 	.db #0x41	; 65	'A'
      001242 01                    4365 	.db #0x01	; 1
      001243 CA                    4366 	.db #0xca	; 202
      001244 0A                    4367 	.db #0x0a	; 10
      001245 E3                    4368 	.db #0xe3	; 227
      001246 03                    4369 	.db #0x03	; 3
      001247 EA                    4370 	.db #0xea	; 234
      001248 0A                    4371 	.db #0x0a	; 10
      001249 62                    4372 	.db #0x62	; 98	'b'
      00124A 02                    4373 	.db #0x02	; 2
      00124B 6A                    4374 	.db #0x6a	; 106	'j'
      00124C 0A                    4375 	.db #0x0a	; 10
      00124D 42                    4376 	.db #0x42	; 66	'B'
      00124E 02                    4377 	.db #0x02	; 2
      00124F 03                    4378 	.db #0x03	; 3
      001250 00                    4379 	.db #0x00	; 0
      001251 00                    4380 	.db #0x00	; 0
      001252 00                    4381 	.db #0x00	; 0
      001253 00                    4382 	.db #0x00	; 0
      001254 00                    4383 	.db #0x00	; 0
      001255 41                    4384 	.db #0x41	; 65	'A'
      001256 23                    4385 	.db #0x23	; 35
      001257 2E                    4386 	.db #0x2e	; 46
      001258 03                    4387 	.db #0x03	; 3
      001259 00                    4388 	.db #0x00	; 0
      00125A 01                    4389 	.db #0x01	; 1
      00125B 07                    4390 	.db #0x07	; 7
      00125C 1A                    4391 	.db #0x1a	; 26
      00125D 74                    4392 	.db #0x74	; 116	't'
      00125E A0                    4393 	.db #0xa0	; 160
      00125F 40                    4394 	.db #0x40	; 64
      001260 B8                    4395 	.db #0xb8	; 184
      001261 03                    4396 	.db #0x03	; 3
      001262 70                    4397 	.db #0x70	; 112	'p'
      001263 C0                    4398 	.db #0xc0	; 192
      001264 00                    4399 	.db #0x00	; 0
      001265 00                    4400 	.db #0x00	; 0
      001266 00                    4401 	.db #0x00	; 0
      001267 00                    4402 	.db #0x00	; 0
      001268 00                    4403 	.db #0x00	; 0
      001269 00                    4404 	.db #0x00	; 0
      00126A 01                    4405 	.db #0x01	; 1
      00126B 12                    4406 	.db #0x12	; 18
      00126C 1A                    4407 	.db #0x1a	; 26
      00126D 35                    4408 	.db #0x35	; 53	'5'
      00126E 35                    4409 	.db #0x35	; 53	'5'
      00126F 25                    4410 	.db #0x25	; 37
      001270 2D                    4411 	.db #0x2d	; 45
      001271 25                    4412 	.db #0x25	; 37
      001272 55                    4413 	.db #0x55	; 85	'U'
      001273 01                    4414 	.db #0x01	; 1
      001274 AA                    4415 	.db #0xaa	; 170
      001275 BA                    4416 	.db #0xba	; 186
      001276 AA                    4417 	.db #0xaa	; 170
      001277 AB                    4418 	.db #0xab	; 171
      001278 AA                    4419 	.db #0xaa	; 170
      001279 A2                    4420 	.db #0xa2	; 162
      00127A A2                    4421 	.db #0xa2	; 162
      00127B 22                    4422 	.db #0x22	; 34
      00127C 01                    4423 	.db #0x01	; 1
      00127D 55                    4424 	.db #0x55	; 85	'U'
      00127E 55                    4425 	.db #0x55	; 85	'U'
      00127F 55                    4426 	.db #0x55	; 85	'U'
      001280 6A                    4427 	.db #0x6a	; 106	'j'
      001281 6A                    4428 	.db #0x6a	; 106	'j'
      001282 6A                    4429 	.db #0x6a	; 106	'j'
      001283 22                    4430 	.db #0x22	; 34
      001284 20                    4431 	.db #0x20	; 32
      001285 03                    4432 	.db #0x03	; 3
      001286 80                    4433 	.db #0x80	; 128
      001287 10                    4434 	.db #0x10	; 16
      001288 80                    4435 	.db #0x80	; 128
      001289 11                    4436 	.db #0x11	; 17
      00128A 87                    4437 	.db #0x87	; 135
      00128B 12                    4438 	.db #0x12	; 18
      00128C 85                    4439 	.db #0x85	; 133
      00128D 12                    4440 	.db #0x12	; 18
      00128E 03                    4441 	.db #0x03	; 3
      00128F 35                    4442 	.db #0x35	; 53	'5'
      001290 68                    4443 	.db #0x68	; 104	'h'
      001291 D0                    4444 	.db #0xd0	; 208
      001292 A0                    4445 	.db #0xa0	; 160
      001293 40                    4446 	.db #0x40	; 64
      001294 80                    4447 	.db #0x80	; 128
      001295 00                    4448 	.db #0x00	; 0
      001296 00                    4449 	.db #0x00	; 0
      001297 01                    4450 	.db #0x01	; 1
      001298 55                    4451 	.db #0x55	; 85	'U'
      001299 6D                    4452 	.db #0x6d	; 109	'm'
      00129A 6D                    4453 	.db #0x6d	; 109	'm'
      00129B 25                    4454 	.db #0x25	; 37
      00129C AD                    4455 	.db #0xad	; 173
      00129D ED                    4456 	.db #0xed	; 237
      00129E AB                    4457 	.db #0xab	; 171
      00129F AB                    4458 	.db #0xab	; 171
      0012A0 03                    4459 	.db #0x03	; 3
      0012A1 84                    4460 	.db #0x84	; 132
      0012A2 10                    4461 	.db #0x10	; 16
      0012A3 80                    4462 	.db #0x80	; 128
      0012A4 10                    4463 	.db #0x10	; 16
      0012A5 80                    4464 	.db #0x80	; 128
      0012A6 10                    4465 	.db #0x10	; 16
      0012A7 80                    4466 	.db #0x80	; 128
      0012A8 10                    4467 	.db #0x10	; 16
      0012A9 01                    4468 	.db #0x01	; 1
      0012AA FF                    4469 	.db #0xff	; 255
      0012AB AF                    4470 	.db #0xaf	; 175
      0012AC DA                    4471 	.db #0xda	; 218
      0012AD AE                    4472 	.db #0xae	; 174
      0012AE 0A                    4473 	.db #0x0a	; 10
      0012AF 10                    4474 	.db #0x10	; 16
      0012B0 00                    4475 	.db #0x00	; 0
      0012B1 00                    4476 	.db #0x00	; 0
      0012B2 04                    4477 	.db #0x04	; 4
      0012B3 FF                    4478 	.db #0xff	; 255
      0012B4 00                    4479 	.db #0x00	; 0
      0012B5 BF                    4480 	.db #0xbf	; 191
      0012B6 00                    4481 	.db #0x00	; 0
      0012B7 EA                    4482 	.db #0xea	; 234
      0012B8 00                    4483 	.db #0x00	; 0
      0012B9 A7                    4484 	.db #0xa7	; 167
      0012BA 00                    4485 	.db #0x00	; 0
      0012BB 7A                    4486 	.db #0x7a	; 122	'z'
      0012BC 68                    4487 	.db #0x68	; 104	'h'
      0012BD 55                    4488 	.db #0x55	; 85	'U'
      0012BE 55                    4489 	.db #0x55	; 85	'U'
      0012BF 72                    4490 	.db #0x72	; 114	'r'
      0012C0 72                    4491 	.db #0x72	; 114	'r'
      0012C1 55                    4492 	.db #0x55	; 85	'U'
      0012C2 55                    4493 	.db #0x55	; 85	'U'
      0012C3 04                    4494 	.db #0x04	; 4
      0012C4 FF                    4495 	.db #0xff	; 255
      0012C5 00                    4496 	.db #0x00	; 0
      0012C6 EB                    4497 	.db #0xeb	; 235
      0012C7 00                    4498 	.db #0x00	; 0
      0012C8 BA                    4499 	.db #0xba	; 186
      0012C9 00                    4500 	.db #0x00	; 0
      0012CA 28                    4501 	.db #0x28	; 40
      0012CB 00                    4502 	.db #0x00	; 0
      0012CC 47                    4503 	.db #0x47	; 71	'G'
      0012CD 46                    4504 	.db #0x46	; 70	'F'
      0012CE 55                    4505 	.db #0x55	; 85	'U'
      0012CF 55                    4506 	.db #0x55	; 85	'U'
      0012D0 70                    4507 	.db #0x70	; 112	'p'
      0012D1 70                    4508 	.db #0x70	; 112	'p'
      0012D2 55                    4509 	.db #0x55	; 85	'U'
      0012D3 55                    4510 	.db #0x55	; 85	'U'
      0012D4 04                    4511 	.db #0x04	; 4
      0012D5 EA                    4512 	.db #0xea	; 234
      0012D6 0A                    4513 	.db #0x0a	; 10
      0012D7 E1                    4514 	.db #0xe1	; 225
      0012D8 01                    4515 	.db #0x01	; 1
      0012D9 AA                    4516 	.db #0xaa	; 170
      0012DA 0A                    4517 	.db #0x0a	; 10
      0012DB 02                    4518 	.db #0x02	; 2
      0012DC 02                    4519 	.db #0x02	; 2
      0012DD 6A                    4520 	.db #0x6a	; 106	'j'
      0012DE 6A                    4521 	.db #0x6a	; 106	'j'
      0012DF 42                    4522 	.db #0x42	; 66	'B'
      0012E0 42                    4523 	.db #0x42	; 66	'B'
      0012E1 6A                    4524 	.db #0x6a	; 106	'j'
      0012E2 6A                    4525 	.db #0x6a	; 106	'j'
      0012E3 40                    4526 	.db #0x40	; 64
      0012E4 40                    4527 	.db #0x40	; 64
      0012E5 03                    4528 	.db #0x03	; 3
      0012E6 70                    4529 	.db #0x70	; 112	'p'
      0012E7 55                    4530 	.db #0x55	; 85	'U'
      0012E8 78                    4531 	.db #0x78	; 120	'x'
      0012E9 55                    4532 	.db #0x55	; 85	'U'
      0012EA 7C                    4533 	.db #0x7c	; 124
      0012EB 55                    4534 	.db #0x55	; 85	'U'
      0012EC 6C                    4535 	.db #0x6c	; 108	'l'
      0012ED 45                    4536 	.db #0x45	; 69	'E'
      0012EE 01                    4537 	.db #0x01	; 1
      0012EF 00                    4538 	.db #0x00	; 0
      0012F0 7F                    4539 	.db #0x7f	; 127
      0012F1 7F                    4540 	.db #0x7f	; 127
      0012F2 2A                    4541 	.db #0x2a	; 42
      0012F3 00                    4542 	.db #0x00	; 0
      0012F4 70                    4543 	.db #0x70	; 112	'p'
      0012F5 60                    4544 	.db #0x60	; 96
      0012F6 30                    4545 	.db #0x30	; 48	'0'
      0012F7 01                    4546 	.db #0x01	; 1
      0012F8 00                    4547 	.db #0x00	; 0
      0012F9 EF                    4548 	.db #0xef	; 239
      0012FA FF                    4549 	.db #0xff	; 255
      0012FB AA                    4550 	.db #0xaa	; 170
      0012FC 00                    4551 	.db #0x00	; 0
      0012FD 07                    4552 	.db #0x07	; 7
      0012FE 06                    4553 	.db #0x06	; 6
      0012FF 0F                    4554 	.db #0x0f	; 15
      001300 03                    4555 	.db #0x03	; 3
      001301 78                    4556 	.db #0x78	; 120	'x'
      001302 55                    4557 	.db #0x55	; 85	'U'
      001303 7A                    4558 	.db #0x7a	; 122	'z'
      001304 55                    4559 	.db #0x55	; 85	'U'
      001305 66                    4560 	.db #0x66	; 102	'f'
      001306 55                    4561 	.db #0x55	; 85	'U'
      001307 66                    4562 	.db #0x66	; 102	'f'
      001308 55                    4563 	.db #0x55	; 85	'U'
      001309 01                    4564 	.db #0x01	; 1
      00130A 00                    4565 	.db #0x00	; 0
      00130B 55                    4566 	.db #0x55	; 85	'U'
      00130C FF                    4567 	.db #0xff	; 255
      00130D FF                    4568 	.db #0xff	; 255
      00130E 00                    4569 	.db #0x00	; 0
      00130F 60                    4570 	.db #0x60	; 96
      001310 E0                    4571 	.db #0xe0	; 224
      001311 60                    4572 	.db #0x60	; 96
      001312 03                    4573 	.db #0x03	; 3
      001313 6A                    4574 	.db #0x6a	; 106	'j'
      001314 41                    4575 	.db #0x41	; 65	'A'
      001315 6A                    4576 	.db #0x6a	; 106	'j'
      001316 42                    4577 	.db #0x42	; 66	'B'
      001317 6A                    4578 	.db #0x6a	; 106	'j'
      001318 42                    4579 	.db #0x42	; 66	'B'
      001319 6A                    4580 	.db #0x6a	; 106	'j'
      00131A 40                    4581 	.db #0x40	; 64
      00131B 03                    4582 	.db #0x03	; 3
      00131C 00                    4583 	.db #0x00	; 0
      00131D 00                    4584 	.db #0x00	; 0
      00131E 03                    4585 	.db #0x03	; 3
      00131F 07                    4586 	.db #0x07	; 7
      001320 0F                    4587 	.db #0x0f	; 15
      001321 1F                    4588 	.db #0x1f	; 31
      001322 1F                    4589 	.db #0x1f	; 31
      001323 1F                    4590 	.db #0x1f	; 31
      001324 03                    4591 	.db #0x03	; 3
      001325 00                    4592 	.db #0x00	; 0
      001326 FF                    4593 	.db #0xff	; 255
      001327 E8                    4594 	.db #0xe8	; 232
      001328 F0                    4595 	.db #0xf0	; 240
      001329 EA                    4596 	.db #0xea	; 234
      00132A D1                    4597 	.db #0xd1	; 209
      00132B AA                    4598 	.db #0xaa	; 170
      00132C 75                    4599 	.db #0x75	; 117	'u'
      00132D 03                    4600 	.db #0x03	; 3
      00132E 00                    4601 	.db #0x00	; 0
      00132F 80                    4602 	.db #0x80	; 128
      001330 60                    4603 	.db #0x60	; 96
      001331 10                    4604 	.db #0x10	; 16
      001332 08                    4605 	.db #0x08	; 8
      001333 44                    4606 	.db #0x44	; 68	'D'
      001334 04                    4607 	.db #0x04	; 4
      001335 44                    4608 	.db #0x44	; 68	'D'
      001336 03                    4609 	.db #0x03	; 3
      001337 6E                    4610 	.db #0x6e	; 110	'n'
      001338 41                    4611 	.db #0x41	; 65	'A'
      001339 6A                    4612 	.db #0x6a	; 106	'j'
      00133A 51                    4613 	.db #0x51	; 81	'Q'
      00133B 7A                    4614 	.db #0x7a	; 122	'z'
      00133C 55                    4615 	.db #0x55	; 85	'U'
      00133D 6C                    4616 	.db #0x6c	; 108	'l'
      00133E 45                    4617 	.db #0x45	; 69	'E'
      00133F 01                    4618 	.db #0x01	; 1
      001340 60                    4619 	.db #0x60	; 96
      001341 70                    4620 	.db #0x70	; 112	'p'
      001342 60                    4621 	.db #0x60	; 96
      001343 00                    4622 	.db #0x00	; 0
      001344 7E                    4623 	.db #0x7e	; 126
      001345 7F                    4624 	.db #0x7f	; 127
      001346 2A                    4625 	.db #0x2a	; 42
      001347 00                    4626 	.db #0x00	; 0
      001348 01                    4627 	.db #0x01	; 1
      001349 06                    4628 	.db #0x06	; 6
      00134A 07                    4629 	.db #0x07	; 7
      00134B 06                    4630 	.db #0x06	; 6
      00134C 00                    4631 	.db #0x00	; 0
      00134D FF                    4632 	.db #0xff	; 255
      00134E FF                    4633 	.db #0xff	; 255
      00134F AA                    4634 	.db #0xaa	; 170
      001350 00                    4635 	.db #0x00	; 0
      001351 03                    4636 	.db #0x03	; 3
      001352 66                    4637 	.db #0x66	; 102	'f'
      001353 55                    4638 	.db #0x55	; 85	'U'
      001354 46                    4639 	.db #0x46	; 70	'F'
      001355 55                    4640 	.db #0x55	; 85	'U'
      001356 3A                    4641 	.db #0x3a	; 58
      001357 55                    4642 	.db #0x55	; 85	'U'
      001358 7E                    4643 	.db #0x7e	; 126
      001359 55                    4644 	.db #0x55	; 85	'U'
      00135A 01                    4645 	.db #0x01	; 1
      00135B 00                    4646 	.db #0x00	; 0
      00135C 7E                    4647 	.db #0x7e	; 126
      00135D 7F                    4648 	.db #0x7f	; 127
      00135E 2A                    4649 	.db #0x2a	; 42
      00135F 00                    4650 	.db #0x00	; 0
      001360 70                    4651 	.db #0x70	; 112	'p'
      001361 60                    4652 	.db #0x60	; 96
      001362 30                    4653 	.db #0x30	; 48	'0'
      001363 01                    4654 	.db #0x01	; 1
      001364 00                    4655 	.db #0x00	; 0
      001365 FF                    4656 	.db #0xff	; 255
      001366 FF                    4657 	.db #0xff	; 255
      001367 AA                    4658 	.db #0xaa	; 170
      001368 00                    4659 	.db #0x00	; 0
      001369 07                    4660 	.db #0x07	; 7
      00136A 06                    4661 	.db #0x06	; 6
      00136B 0F                    4662 	.db #0x0f	; 15
      00136C 01                    4663 	.db #0x01	; 1
      00136D F0                    4664 	.db #0xf0	; 240
      00136E 60                    4665 	.db #0x60	; 96
      00136F E0                    4666 	.db #0xe0	; 224
      001370 00                    4667 	.db #0x00	; 0
      001371 55                    4668 	.db #0x55	; 85	'U'
      001372 FF                    4669 	.db #0xff	; 255
      001373 F7                    4670 	.db #0xf7	; 247
      001374 00                    4671 	.db #0x00	; 0
      001375 02                    4672 	.db #0x02	; 2
      001376 08                    4673 	.db #0x08	; 8
      001377 4A                    4674 	.db #0x4a	; 74	'J'
      001378 52                    4675 	.db #0x52	; 82	'R'
      001379 53                    4676 	.db #0x53	; 83	'S'
      00137A A2                    4677 	.db #0xa2	; 162
      00137B AA                    4678 	.db #0xaa	; 170
      00137C D3                    4679 	.db #0xd3	; 211
      00137D AE                    4680 	.db #0xae	; 174
      00137E 03                    4681 	.db #0x03	; 3
      00137F 0A                    4682 	.db #0x0a	; 10
      001380 00                    4683 	.db #0x00	; 0
      001381 00                    4684 	.db #0x00	; 0
      001382 00                    4685 	.db #0x00	; 0
      001383 00                    4686 	.db #0x00	; 0
      001384 00                    4687 	.db #0x00	; 0
      001385 00                    4688 	.db #0x00	; 0
      001386 00                    4689 	.db #0x00	; 0
      001387 03                    4690 	.db #0x03	; 3
      001388 AA                    4691 	.db #0xaa	; 170
      001389 00                    4692 	.db #0x00	; 0
      00138A 34                    4693 	.db #0x34	; 52	'4'
      00138B 3A                    4694 	.db #0x3a	; 58
      00138C 34                    4695 	.db #0x34	; 52	'4'
      00138D 3A                    4696 	.db #0x3a	; 58
      00138E 75                    4697 	.db #0x75	; 117	'u'
      00138F FB                    4698 	.db #0xfb	; 251
      001390 03                    4699 	.db #0x03	; 3
      001391 A8                    4700 	.db #0xa8	; 168
      001392 00                    4701 	.db #0x00	; 0
      001393 00                    4702 	.db #0x00	; 0
      001394 00                    4703 	.db #0x00	; 0
      001395 00                    4704 	.db #0x00	; 0
      001396 00                    4705 	.db #0x00	; 0
      001397 00                    4706 	.db #0x00	; 0
      001398 80                    4707 	.db #0x80	; 128
      001399 01                    4708 	.db #0x01	; 1
      00139A 00                    4709 	.db #0x00	; 0
      00139B 00                    4710 	.db #0x00	; 0
      00139C 00                    4711 	.db #0x00	; 0
      00139D 00                    4712 	.db #0x00	; 0
      00139E 00                    4713 	.db #0x00	; 0
      00139F 00                    4714 	.db #0x00	; 0
      0013A0 01                    4715 	.db #0x01	; 1
      0013A1 03                    4716 	.db #0x03	; 3
      0013A2 01                    4717 	.db #0x01	; 1
      0013A3 00                    4718 	.db #0x00	; 0
      0013A4 00                    4719 	.db #0x00	; 0
      0013A5 00                    4720 	.db #0x00	; 0
      0013A6 00                    4721 	.db #0x00	; 0
      0013A7 00                    4722 	.db #0x00	; 0
      0013A8 6C                    4723 	.db #0x6c	; 108	'l'
      0013A9 D7                    4724 	.db #0xd7	; 215
      0013AA 7F                    4725 	.db #0x7f	; 127
      0013AB 01                    4726 	.db #0x01	; 1
      0013AC 00                    4727 	.db #0x00	; 0
      0013AD 00                    4728 	.db #0x00	; 0
      0013AE 00                    4729 	.db #0x00	; 0
      0013AF 00                    4730 	.db #0x00	; 0
      0013B0 00                    4731 	.db #0x00	; 0
      0013B1 00                    4732 	.db #0x00	; 0
      0013B2 00                    4733 	.db #0x00	; 0
      0013B3 80                    4734 	.db #0x80	; 128
      0013B4 03                    4735 	.db #0x03	; 3
      0013B5 6C                    4736 	.db #0x6c	; 108	'l'
      0013B6 45                    4737 	.db #0x45	; 69	'E'
      0013B7 6E                    4738 	.db #0x6e	; 110	'n'
      0013B8 55                    4739 	.db #0x55	; 85	'U'
      0013B9 7A                    4740 	.db #0x7a	; 122	'z'
      0013BA 55                    4741 	.db #0x55	; 85	'U'
      0013BB 72                    4742 	.db #0x72	; 114	'r'
      0013BC 55                    4743 	.db #0x55	; 85	'U'
      0013BD 03                    4744 	.db #0x03	; 3
      0013BE 7E                    4745 	.db #0x7e	; 126
      0013BF 55                    4746 	.db #0x55	; 85	'U'
      0013C0 76                    4747 	.db #0x76	; 118	'v'
      0013C1 55                    4748 	.db #0x55	; 85	'U'
      0013C2 46                    4749 	.db #0x46	; 70	'F'
      0013C3 55                    4750 	.db #0x55	; 85	'U'
      0013C4 70                    4751 	.db #0x70	; 112	'p'
      0013C5 55                    4752 	.db #0x55	; 85	'U'
      0013C6 01                    4753 	.db #0x01	; 1
      0013C7 60                    4754 	.db #0x60	; 96
      0013C8 70                    4755 	.db #0x70	; 112	'p'
      0013C9 60                    4756 	.db #0x60	; 96
      0013CA 70                    4757 	.db #0x70	; 112	'p'
      0013CB 60                    4758 	.db #0x60	; 96
      0013CC 70                    4759 	.db #0x70	; 112	'p'
      0013CD 60                    4760 	.db #0x60	; 96
      0013CE B0                    4761 	.db #0xb0	; 176
      0013CF 01                    4762 	.db #0x01	; 1
      0013D0 06                    4763 	.db #0x06	; 6
      0013D1 07                    4764 	.db #0x07	; 7
      0013D2 06                    4765 	.db #0x06	; 6
      0013D3 07                    4766 	.db #0x07	; 7
      0013D4 06                    4767 	.db #0x06	; 6
      0013D5 03                    4768 	.db #0x03	; 3
      0013D6 06                    4769 	.db #0x06	; 6
      0013D7 07                    4770 	.db #0x07	; 7
      0013D8 03                    4771 	.db #0x03	; 3
      0013D9 38                    4772 	.db #0x38	; 56	'8'
      0013DA DF                    4773 	.db #0xdf	; 223
      0013DB DF                    4774 	.db #0xdf	; 223
      0013DC 7B                    4775 	.db #0x7b	; 123
      0013DD 52                    4776 	.db #0x52	; 82	'R'
      0013DE 8C                    4777 	.db #0x8c	; 140
      0013DF D6                    4778 	.db #0xd6	; 214
      0013E0 54                    4779 	.db #0x54	; 84	'T'
      0013E1 03                    4780 	.db #0x03	; 3
      0013E2 F4                    4781 	.db #0xf4	; 244
      0013E3 7C                    4782 	.db #0x7c	; 124
      0013E4 7D                    4783 	.db #0x7d	; 125
      0013E5 EF                    4784 	.db #0xef	; 239
      0013E6 4B                    4785 	.db #0x4b	; 75	'K'
      0013E7 33                    4786 	.db #0x33	; 51	'3'
      0013E8 5B                    4787 	.db #0x5b	; 91
      0013E9 51                    4788 	.db #0x51	; 81	'Q'
      0013EA 03                    4789 	.db #0x03	; 3
      0013EB C0                    4790 	.db #0xc0	; 192
      0013EC F7                    4791 	.db #0xf7	; 247
      0013ED DF                    4792 	.db #0xdf	; 223
      0013EE D5                    4793 	.db #0xd5	; 213
      0013EF 8D                    4794 	.db #0x8d	; 141
      0013F0 82                    4795 	.db #0x82	; 130
      0013F1 57                    4796 	.db #0x57	; 87	'W'
      0013F2 D9                    4797 	.db #0xd9	; 217
      0013F3 03                    4798 	.db #0x03	; 3
      0013F4 00                    4799 	.db #0x00	; 0
      0013F5 00                    4800 	.db #0x00	; 0
      0013F6 80                    4801 	.db #0x80	; 128
      0013F7 C0                    4802 	.db #0xc0	; 192
      0013F8 C1                    4803 	.db #0xc1	; 193
      0013F9 EF                    4804 	.db #0xef	; 239
      0013FA EF                    4805 	.db #0xef	; 239
      0013FB DE                    4806 	.db #0xde	; 222
      0013FC 03                    4807 	.db #0x03	; 3
      0013FD 00                    4808 	.db #0x00	; 0
      0013FE 00                    4809 	.db #0x00	; 0
      0013FF 00                    4810 	.db #0x00	; 0
      001400 00                    4811 	.db #0x00	; 0
      001401 80                    4812 	.db #0x80	; 128
      001402 C0                    4813 	.db #0xc0	; 192
      001403 E0                    4814 	.db #0xe0	; 224
      001404 60                    4815 	.db #0x60	; 96
      001405 01                    4816 	.db #0x01	; 1
      001406 02                    4817 	.db #0x02	; 2
      001407 07                    4818 	.db #0x07	; 7
      001408 05                    4819 	.db #0x05	; 5
      001409 03                    4820 	.db #0x03	; 3
      00140A 0D                    4821 	.db #0x0d	; 13
      00140B 1D                    4822 	.db #0x1d	; 29
      00140C 1D                    4823 	.db #0x1d	; 29
      00140D 1B                    4824 	.db #0x1b	; 27
      00140E 01                    4825 	.db #0x01	; 1
      00140F FE                    4826 	.db #0xfe	; 254
      001410 93                    4827 	.db #0x93	; 147
      001411 55                    4828 	.db #0x55	; 85	'U'
      001412 11                    4829 	.db #0x11	; 17
      001413 FF                    4830 	.db #0xff	; 255
      001414 FF                    4831 	.db #0xff	; 255
      001415 BB                    4832 	.db #0xbb	; 187
      001416 C7                    4833 	.db #0xc7	; 199
      001417 01                    4834 	.db #0x01	; 1
      001418 80                    4835 	.db #0x80	; 128
      001419 40                    4836 	.db #0x40	; 64
      00141A C0                    4837 	.db #0xc0	; 192
      00141B 80                    4838 	.db #0x80	; 128
      00141C 90                    4839 	.db #0x90	; 144
      00141D B8                    4840 	.db #0xb8	; 184
      00141E 78                    4841 	.db #0x78	; 120	'x'
      00141F 70                    4842 	.db #0x70	; 112	'p'
      001420 01                    4843 	.db #0x01	; 1
      001421 06                    4844 	.db #0x06	; 6
      001422 07                    4845 	.db #0x07	; 7
      001423 06                    4846 	.db #0x06	; 6
      001424 07                    4847 	.db #0x07	; 7
      001425 06                    4848 	.db #0x06	; 6
      001426 0F                    4849 	.db #0x0f	; 15
      001427 06                    4850 	.db #0x06	; 6
      001428 07                    4851 	.db #0x07	; 7
      001429 03                    4852 	.db #0x03	; 3
      00142A A0                    4853 	.db #0xa0	; 160
      00142B A0                    4854 	.db #0xa0	; 160
      00142C A4                    4855 	.db #0xa4	; 164
      00142D 75                    4856 	.db #0x75	; 117	'u'
      00142E FF                    4857 	.db #0xff	; 255
      00142F FF                    4858 	.db #0xff	; 255
      001430 EE                    4859 	.db #0xee	; 238
      001431 F0                    4860 	.db #0xf0	; 240
      001432 03                    4861 	.db #0x03	; 3
      001433 08                    4862 	.db #0x08	; 8
      001434 01                    4863 	.db #0x01	; 1
      001435 08                    4864 	.db #0x08	; 8
      001436 81                    4865 	.db #0x81	; 129
      001437 C8                    4866 	.db #0xc8	; 200
      001438 E1                    4867 	.db #0xe1	; 225
      001439 68                    4868 	.db #0x68	; 104	'h'
      00143A A1                    4869 	.db #0xa1	; 161
      00143B 01                    4870 	.db #0x01	; 1
      00143C 01                    4871 	.db #0x01	; 1
      00143D 01                    4872 	.db #0x01	; 1
      00143E 00                    4873 	.db #0x00	; 0
      00143F 00                    4874 	.db #0x00	; 0
      001440 01                    4875 	.db #0x01	; 1
      001441 01                    4876 	.db #0x01	; 1
      001442 00                    4877 	.db #0x00	; 0
      001443 00                    4878 	.db #0x00	; 0
      001444 01                    4879 	.db #0x01	; 1
      001445 FF                    4880 	.db #0xff	; 255
      001446 FF                    4881 	.db #0xff	; 255
      001447 7C                    4882 	.db #0x7c	; 124
      001448 82                    4883 	.db #0x82	; 130
      001449 66                    4884 	.db #0x66	; 102	'f'
      00144A EB                    4885 	.db #0xeb	; 235
      00144B 0F                    4886 	.db #0x0f	; 15
      00144C 00                    4887 	.db #0x00	; 0
                                   4888 	.area _INITIALIZER
      000000                       4889 __xinit__float_move_timer:
      000000 00                    4890 	.db #0x00	; 0
      000001                       4891 __xinit__float3_move:
      000001 01                    4892 	.db #0x01	; 1
      000002                       4893 __xinit__float4_move:
      000002 00                    4894 	.db #0x00	; 0
      000003                       4895 __xinit__float3_pos_x:
      000003 68 00                 4896 	.dw #0x0068
      000005                       4897 __xinit__float3_dir:
      000005 01 00                 4898 	.dw #0x0001
      000007                       4899 __xinit__float4_pos_x:
      000007 E0 FF                 4900 	.dw #0xffe0
      000009                       4901 __xinit__float4_dir:
      000009 01 00                 4902 	.dw #0x0001
                                   4903 	.area _CABS (ABS)
