                                      1 ;--------------------------------------------------------
                                      2 ; File Created by SDCC : free open source ANSI-C Compiler
                                      3 ; Version 4.1.6 #12533 (MINGW32)
                                      4 ;--------------------------------------------------------
                                      5 	.module 02_rooms_gfx_data0
                                      6 	.optsdcc -mgbz80
                                      7 	
                                      8 ;--------------------------------------------------------
                                      9 ; Public variables in this module
                                     10 ;--------------------------------------------------------
                                     11 	.globl _room_5_0_tiles
                                     12 	.globl _room_5_0_coll
                                     13 	.globl _room_5_0_map
                                     14 	.globl _enemies_4_0_tiles
                                     15 	.globl _room_4_0_tiles
                                     16 	.globl _room_4_0_coll
                                     17 	.globl _room_4_0_map
                                     18 	.globl _room_3_0_tiles
                                     19 	.globl _room_3_0_coll
                                     20 	.globl _room_3_0_map
                                     21 	.globl _enemies_2_0_tiles
                                     22 	.globl _room_2_0_tiles
                                     23 	.globl _room_2_0_coll
                                     24 	.globl _room_2_0_map
                                     25 	.globl _room_1_0_tiles
                                     26 	.globl _room_1_0_coll
                                     27 	.globl _room_1_0_map
                                     28 	.globl _room_0_0_tiles
                                     29 	.globl _room_0_0_coll
                                     30 	.globl _room_0_0_map
                                     31 	.globl _grand_gets_pie
                                     32 	.globl _dizzy_catches_firefly
                                     33 	.globl _find_firefly
                                     34 	.globl _draw_flies4_0
                                     35 	.globl _move_flies4_0
                                     36 	.globl _init_room4_0
                                     37 	.globl _coll_spider
                                     38 	.globl _draw_spider
                                     39 	.globl _move_spider
                                     40 	.globl _init_room2_0
                                     41 	.globl _multiple_set_sprite_tiles
                                     42 	.globl _multiple_move_sprites_limits
                                     43 	.globl _multiple_move_sprites
                                     44 	.globl _default_drop
                                     45 	.globl _find_by_id
                                     46 	.globl _pop_by_id
                                     47 	.globl _push_last
                                     48 	.globl _show_dialog_window
                                     49 	.globl _set_sprite_data
                                     50 	.globl _spider_pos_y
                                     51 	.globl _spider_dir
                                     52 	.globl _spider_phase
                                     53 	.globl _fly_phase
                                     54 	.globl _fly_ptr
                                     55 	.globl _flies
                                     56 	.globl _spider0
                                     57 	.globl _spidertn
                                     58 	.globl _spidernettn
                                     59 	.globl _spider_offsets
                                     60 	.globl _spider_net_ofs
                                     61 ;--------------------------------------------------------
                                     62 ; special function registers
                                     63 ;--------------------------------------------------------
                                     64 ;--------------------------------------------------------
                                     65 ; ram data
                                     66 ;--------------------------------------------------------
                                     67 	.area _DATA
      000000                         68 _flies::
      000000                         69 	.ds 12
      00000C                         70 _fly_ptr::
      00000C                         71 	.ds 2
      00000E                         72 _fly_phase::
      00000E                         73 	.ds 1
                                     74 ;--------------------------------------------------------
                                     75 ; ram data
                                     76 ;--------------------------------------------------------
                                     77 	.area _INITIALIZED
      000000                         78 _spider_phase::
      000000                         79 	.ds 1
      000001                         80 _spider_dir::
      000001                         81 	.ds 1
      000002                         82 _spider_pos_y::
      000002                         83 	.ds 2
                                     84 ;--------------------------------------------------------
                                     85 ; absolute external ram data
                                     86 ;--------------------------------------------------------
                                     87 	.area _DABS (ABS)
                                     88 ;--------------------------------------------------------
                                     89 ; global & static initialisations
                                     90 ;--------------------------------------------------------
                                     91 	.area _HOME
                                     92 	.area _GSINIT
                                     93 	.area _GSFINAL
                                     94 	.area _GSINIT
                                     95 ;--------------------------------------------------------
                                     96 ; Home
                                     97 ;--------------------------------------------------------
                                     98 	.area _HOME
                                     99 	.area _HOME
                                    100 ;--------------------------------------------------------
                                    101 ; code
                                    102 ;--------------------------------------------------------
                                    103 	.area _CODE_3
                                    104 ;src/rooms/room_2_0.h:22: void init_room2_0() {
                                    105 ;	---------------------------------
                                    106 ; Function init_room2_0
                                    107 ; ---------------------------------
      000000                        108 _init_room2_0::
                                    109 ;src/rooms/room_2_0.h:23: set_sprite_data(evil_sprites_tileoffset, current_room->raw_enemies_tiles->count, current_room->raw_enemies_tiles->data);
      000000 21r00r00               110 	ld	hl, #_current_room
      000003 2A                     111 	ld	a, (hl+)
      000004 4F                     112 	ld	c, a
      000005 46                     113 	ld	b, (hl)
      000006 21 07 00               114 	ld	hl, #0x0007
      000009 09                     115 	add	hl, bc
      00000A 2A                     116 	ld	a, (hl+)
      00000B 4F                     117 	ld	c, a
      00000C 46                     118 	ld	b, (hl)
      00000D 59                     119 	ld	e, c
      00000E 50                     120 	ld	d, b
      00000F 13                     121 	inc	de
      000010 0A                     122 	ld	a, (bc)
      000011 D5                     123 	push	de
      000012 67                     124 	ld	h, a
      000013 2E 09                  125 	ld	l, #0x09
      000015 E5                     126 	push	hl
      000016 CDr00r00               127 	call	_set_sprite_data
      000019 E8 04                  128 	add	sp, #4
                                    129 ;src/rooms/room_2_0.h:24: multiple_set_sprite_tiles(spider_net_sprite_offset, spider_net_sprite_count, spidernettn);
      00001B 11r51r00               130 	ld	de, #_spidernettn
      00001E D5                     131 	push	de
      00001F 21 0D 06               132 	ld	hl, #0x60d
      000022 E5                     133 	push	hl
      000023 CDr00r00               134 	call	_multiple_set_sprite_tiles
      000026 E8 04                  135 	add	sp, #4
                                    136 ;src/rooms/room_2_0.h:25: }
      000028 C9                     137 	ret
      000029                        138 _spider_net_ofs:
      000029 00                     139 	.db #0x00	; 0
      00002A 58                     140 	.db #0x58	; 88	'X'
      00002B FF                     141 	.db #0xff	; 255
      00002C 08                     142 	.db #0x08	; 8
      00002D 00                     143 	.db #0x00	; 0
      00002E FF                     144 	.db #0xff	; 255
      00002F 08                     145 	.db #0x08	; 8
      000030 58                     146 	.db #0x58	; 88	'X'
      000031 FF                     147 	.db #0xff	; 255
      000032 08                     148 	.db #0x08	; 8
      000033 00                     149 	.db #0x00	; 0
      000034 FF                     150 	.db #0xff	; 255
      000035 10                     151 	.db #0x10	; 16
      000036 58                     152 	.db #0x58	; 88	'X'
      000037 FF                     153 	.db #0xff	; 255
      000038 08                     154 	.db #0x08	; 8
      000039 00                     155 	.db #0x00	; 0
      00003A FF                     156 	.db #0xff	; 255
      00003B 18                     157 	.db #0x18	; 24
      00003C 58                     158 	.db #0x58	; 88	'X'
      00003D FF                     159 	.db #0xff	; 255
      00003E 08                     160 	.db #0x08	; 8
      00003F 00                     161 	.db #0x00	; 0
      000040 FF                     162 	.db #0xff	; 255
      000041 20                     163 	.db #0x20	; 32
      000042 58                     164 	.db #0x58	; 88	'X'
      000043 FF                     165 	.db #0xff	; 255
      000044 08                     166 	.db #0x08	; 8
      000045 00                     167 	.db #0x00	; 0
      000046 FF                     168 	.db #0xff	; 255
      000047 28                     169 	.db #0x28	; 40
      000048 58                     170 	.db #0x58	; 88	'X'
      000049 FF                     171 	.db #0xff	; 255
      00004A 08                     172 	.db #0x08	; 8
      00004B 00                     173 	.db #0x00	; 0
      00004C FF                     174 	.db #0xff	; 255
      00004D                        175 _spider_offsets:
      00004D 28                     176 	.db #0x28	; 40
      00004E 08                     177 	.db #0x08	; 8
      00004F 28                     178 	.db #0x28	; 40
      000050 10                     179 	.db #0x10	; 16
      000051                        180 _spidernettn:
      000051 0D                     181 	.db #0x0d	; 13
      000052 0D                     182 	.db #0x0d	; 13
      000053 0D                     183 	.db #0x0d	; 13
      000054 0D                     184 	.db #0x0d	; 13
      000055 0D                     185 	.db #0x0d	; 13
      000056 0D                     186 	.db #0x0d	; 13
      000057 0D                     187 	.db #0x0d	; 13
      000058                        188 _spidertn:
      000058 09                     189 	.db #0x09	; 9
      000059 0A                     190 	.db #0x0a	; 10
      00005A 0B                     191 	.db #0x0b	; 11
      00005B 0C                     192 	.db #0x0c	; 12
      00005C                        193 _spider0:
      00005Cr58r00                  194 	.dw (_spidertn + 0)
      00005Er5Ar00                  195 	.dw (_spidertn + 2)
                                    196 ;src/rooms/room_2_0.h:31: void move_spider() {
                                    197 ;	---------------------------------
                                    198 ; Function move_spider
                                    199 ; ---------------------------------
      000060                        200 _move_spider::
                                    201 ;src/rooms/room_2_0.h:32: if (spider_phase & 1) {
      000060 FAr00r00               202 	ld	a, (#_spider_phase)
      000063 0F                     203 	rrca
      000064 D0                     204 	ret	NC
                                    205 ;src/rooms/room_2_0.h:33: if (spider_dir) {
      000065 FAr01r00               206 	ld	a, (#_spider_dir)
      000068 B7                     207 	or	a, a
      000069 28 2B                  208 	jr	Z, 00106$
                                    209 ;src/rooms/room_2_0.h:34: spider_pos_y += 2; if (spider_pos_y >= spider_max_y) spider_dir = 0;
      00006B 21r02r00               210 	ld	hl, #_spider_pos_y
      00006E 7E                     211 	ld	a, (hl)
      00006F C6 02                  212 	add	a, #0x02
      000071 22                     213 	ld	(hl+), a
      000072 7E                     214 	ld	a, (hl)
      000073 CE 00                  215 	adc	a, #0x00
      000075 32                     216 	ld	(hl-), a
      000076 2A                     217 	ld	a, (hl+)
      000077 D6 5E                  218 	sub	a, #0x5e
      000079 7E                     219 	ld	a, (hl)
      00007A DE 00                  220 	sbc	a, #0x00
      00007C 56                     221 	ld	d, (hl)
      00007D 3E 00                  222 	ld	a, #0x00
      00007F CB 7F                  223 	bit	7,a
      000081 28 07                  224 	jr	Z, 00133$
      000083 CB 7A                  225 	bit	7, d
      000085 20 08                  226 	jr	NZ, 00134$
      000087 BF                     227 	cp	a, a
      000088 18 05                  228 	jr	00134$
      00008A                        229 00133$:
      00008A CB 7A                  230 	bit	7, d
      00008C 28 01                  231 	jr	Z, 00134$
      00008E 37                     232 	scf
      00008F                        233 00134$:
      00008F D8                     234 	ret	C
      000090 21r01r00               235 	ld	hl, #_spider_dir
      000093 36 00                  236 	ld	(hl), #0x00
      000095 C9                     237 	ret
      000096                        238 00106$:
                                    239 ;src/rooms/room_2_0.h:36: spider_pos_y--; if (spider_pos_y <= spider_min_y) spider_dir = 1;
      000096 21r02r00               240 	ld	hl, #_spider_pos_y
      000099 2A                     241 	ld	a, (hl+)
      00009A 5F                     242 	ld	e, a
      00009B 3A                     243 	ld	a, (hl-)
      00009C 57                     244 	ld	d, a
      00009D 1B                     245 	dec	de
      00009E 7B                     246 	ld	a, e
      00009F 22                     247 	ld	(hl+), a
      0000A0 7A                     248 	ld	a, d
      0000A1 32                     249 	ld	(hl-), a
      0000A2 3E 38                  250 	ld	a, #0x38
      0000A4 96                     251 	sub	a, (hl)
      0000A5 23                     252 	inc	hl
      0000A6 3E 00                  253 	ld	a, #0x00
      0000A8 9E                     254 	sbc	a, (hl)
      0000A9 3E 00                  255 	ld	a, #0x00
      0000AB 57                     256 	ld	d, a
      0000AC CB 7E                  257 	bit	7, (hl)
      0000AE 28 07                  258 	jr	Z, 00135$
      0000B0 CB 7A                  259 	bit	7, d
      0000B2 20 08                  260 	jr	NZ, 00136$
      0000B4 BF                     261 	cp	a, a
      0000B5 18 05                  262 	jr	00136$
      0000B7                        263 00135$:
      0000B7 CB 7A                  264 	bit	7, d
      0000B9 28 01                  265 	jr	Z, 00136$
      0000BB 37                     266 	scf
      0000BC                        267 00136$:
      0000BC D8                     268 	ret	C
      0000BD 21r01r00               269 	ld	hl, #_spider_dir
      0000C0 36 01                  270 	ld	(hl), #0x01
                                    271 ;src/rooms/room_2_0.h:39: }
      0000C2 C9                     272 	ret
                                    273 ;src/rooms/room_2_0.h:41: void draw_spider() {
                                    274 ;	---------------------------------
                                    275 ; Function draw_spider
                                    276 ; ---------------------------------
      0000C3                        277 _draw_spider::
                                    278 ;src/rooms/room_2_0.h:42: if (spider_phase == 0) {
      0000C3 FAr00r00               279 	ld	a, (#_spider_phase)
      0000C6 B7                     280 	or	a, a
      0000C7 20 12                  281 	jr	NZ, 00104$
                                    282 ;src/rooms/room_2_0.h:43: multiple_set_sprite_tiles(evil_sprite_offset, spider_sprite_count, spider0[0]);        
      0000C9 21r5Cr00               283 	ld	hl, #_spider0
      0000CC 2A                     284 	ld	a, (hl+)
      0000CD 4F                     285 	ld	c, a
      0000CE 46                     286 	ld	b, (hl)
      0000CF C5                     287 	push	bc
      0000D0 21 09 02               288 	ld	hl, #0x209
      0000D3 E5                     289 	push	hl
      0000D4 CDr00r00               290 	call	_multiple_set_sprite_tiles
      0000D7 E8 04                  291 	add	sp, #4
      0000D9 18 17                  292 	jr	00105$
      0000DB                        293 00104$:
                                    294 ;src/rooms/room_2_0.h:44: } else if (spider_phase == 4) {
      0000DB FAr00r00               295 	ld	a, (#_spider_phase)
      0000DE D6 04                  296 	sub	a, #0x04
      0000E0 20 10                  297 	jr	NZ, 00105$
                                    298 ;src/rooms/room_2_0.h:45: multiple_set_sprite_tiles(evil_sprite_offset, spider_sprite_count, spider0[1]);        
      0000E2 21r5Er00               299 	ld	hl, #(_spider0 + 2)
      0000E5 2A                     300 	ld	a, (hl+)
      0000E6 4F                     301 	ld	c, a
      0000E7 46                     302 	ld	b, (hl)
      0000E8 C5                     303 	push	bc
      0000E9 21 09 02               304 	ld	hl, #0x209
      0000EC E5                     305 	push	hl
      0000ED CDr00r00               306 	call	_multiple_set_sprite_tiles
      0000F0 E8 04                  307 	add	sp, #4
      0000F2                        308 00105$:
                                    309 ;src/rooms/room_2_0.h:47: spider_phase++; spider_phase &= 7;
      0000F2 21r00r00               310 	ld	hl, #_spider_phase
      0000F5 34                     311 	inc	(hl)
      0000F6 7E                     312 	ld	a, (hl)
      0000F7 E6 07                  313 	and	a, #0x07
      0000F9 77                     314 	ld	(hl), a
                                    315 ;src/rooms/room_2_0.h:51: -bkg_scroll_x_target, -bkg_scroll_y_target);    
      0000FA AF                     316 	xor	a, a
      0000FB 21r00r00               317 	ld	hl, #_bkg_scroll_y_target
      0000FE 96                     318 	sub	a, (hl)
      0000FF 4F                     319 	ld	c, a
      000100 AF                     320 	xor	a, a
      000101 21r00r00               321 	ld	hl, #_bkg_scroll_x_target
      000104 96                     322 	sub	a, (hl)
      000105 47                     323 	ld	b, a
                                    324 ;src/rooms/room_2_0.h:50: (unsigned char *)spider_net_ofs, 
      000106 11r29r00               325 	ld	de, #_spider_net_ofs
                                    326 ;src/rooms/room_2_0.h:49: spider_pos_x, (spider_pos_y & 0xFFF8), 
      000109 FAr02r00               327 	ld	a, (#_spider_pos_y)
      00010C E6 F8                  328 	and	a, #0xf8
                                    329 ;src/rooms/room_2_0.h:48: multiple_move_sprites_limits(spider_net_sprite_offset, spider_net_sprite_count, 
      00010E 61                     330 	ld	h, c
                                    331 ;	spillPairReg hl
                                    332 ;	spillPairReg hl
      00010F 68                     333 	ld	l, b
      000110 E5                     334 	push	hl
      000111 D5                     335 	push	de
      000112 67                     336 	ld	h, a
      000113 2E 98                  337 	ld	l, #0x98
      000115 E5                     338 	push	hl
      000116 21 0D 06               339 	ld	hl, #0x60d
      000119 E5                     340 	push	hl
      00011A CDr00r00               341 	call	_multiple_move_sprites_limits
      00011D E8 08                  342 	add	sp, #8
                                    343 ;src/rooms/room_2_0.h:54: (unsigned char *)spider_offsets);    
                                    344 ;src/rooms/room_2_0.h:53: spider_pos_x - bkg_scroll_x_target, spider_pos_y - bkg_scroll_y_target, 
      00011F FAr02r00               345 	ld	a, (#_spider_pos_y)
      000122 21r00r00               346 	ld	hl, #_bkg_scroll_y_target
      000125 4E                     347 	ld	c, (hl)
      000126 91                     348 	sub	a, c
      000127 47                     349 	ld	b, a
      000128 3E 98                  350 	ld	a, #0x98
      00012A 21r00r00               351 	ld	hl, #_bkg_scroll_x_target
      00012D 96                     352 	sub	a, (hl)
                                    353 ;src/rooms/room_2_0.h:52: multiple_move_sprites(spider_sprite_offset, spider_sprite_count, 
      00012E 11r4Dr00               354 	ld	de, #_spider_offsets
      000131 D5                     355 	push	de
      000132 C5                     356 	push	bc
      000133 33                     357 	inc	sp
      000134 67                     358 	ld	h, a
      000135 2E 02                  359 	ld	l, #0x02
      000137 E5                     360 	push	hl
      000138 3E 09                  361 	ld	a, #0x09
      00013A F5                     362 	push	af
      00013B 33                     363 	inc	sp
      00013C CDr00r00               364 	call	_multiple_move_sprites
      00013F E8 06                  365 	add	sp, #6
                                    366 ;src/rooms/room_2_0.h:55: }
      000141 C9                     367 	ret
                                    368 ;src/rooms/room_2_0.h:57: void coll_spider(WORD x, WORD y) {
                                    369 ;	---------------------------------
                                    370 ; Function coll_spider
                                    371 ; ---------------------------------
      000142                        372 _coll_spider::
                                    373 ;src/rooms/room_2_0.h:58: if (!((spider_pos_x > x + 16) || 
      000142 F8 02                  374 	ldhl	sp,#2
      000144 2A                     375 	ld	a, (hl+)
      000145 5F                     376 	ld	e, a
      000146 56                     377 	ld	d, (hl)
      000147 21 10 00               378 	ld	hl, #0x0010
      00014A 19                     379 	add	hl, de
      00014B 4D                     380 	ld	c, l
      00014C 44                     381 	ld	b, h
      00014D 79                     382 	ld	a, c
      00014E D6 98                  383 	sub	a, #0x98
      000150 78                     384 	ld	a, b
      000151 17                     385 	rla
      000152 3F                     386 	ccf
      000153 1F                     387 	rra
      000154 DE 80                  388 	sbc	a, #0x80
      000156 D8                     389 	ret	C
                                    390 ;src/rooms/room_2_0.h:59: (spider_pos_x + 16 < x) ||
      000157 F8 02                  391 	ldhl	sp,	#2
      000159 3E A8                  392 	ld	a, #0xa8
      00015B 96                     393 	sub	a, (hl)
      00015C 23                     394 	inc	hl
      00015D 3E 00                  395 	ld	a, #0x00
      00015F 9E                     396 	sbc	a, (hl)
      000160 3E 00                  397 	ld	a, #0x00
      000162 57                     398 	ld	d, a
      000163 CB 7E                  399 	bit	7, (hl)
      000165 28 07                  400 	jr	Z, 00128$
      000167 CB 7A                  401 	bit	7, d
      000169 20 08                  402 	jr	NZ, 00129$
      00016B BF                     403 	cp	a, a
      00016C 18 05                  404 	jr	00129$
      00016E                        405 00128$:
      00016E CB 7A                  406 	bit	7, d
      000170 28 01                  407 	jr	Z, 00129$
      000172 37                     408 	scf
      000173                        409 00129$:
      000173 D8                     410 	ret	C
                                    411 ;src/rooms/room_2_0.h:60: (spider_pos_y > y + 20) ||
      000174 F8 04                  412 	ldhl	sp,#4
      000176 2A                     413 	ld	a, (hl+)
      000177 5F                     414 	ld	e, a
      000178 56                     415 	ld	d, (hl)
      000179 21 14 00               416 	ld	hl, #0x0014
      00017C 19                     417 	add	hl, de
      00017D 4D                     418 	ld	c, l
      00017E 44                     419 	ld	b, h
      00017F 21r02r00               420 	ld	hl, #_spider_pos_y
      000182 79                     421 	ld	a, c
      000183 96                     422 	sub	a, (hl)
      000184 23                     423 	inc	hl
      000185 78                     424 	ld	a, b
      000186 9E                     425 	sbc	a, (hl)
      000187 78                     426 	ld	a, b
      000188 57                     427 	ld	d, a
      000189 CB 7E                  428 	bit	7, (hl)
      00018B 28 07                  429 	jr	Z, 00130$
      00018D CB 7A                  430 	bit	7, d
      00018F 20 08                  431 	jr	NZ, 00131$
      000191 BF                     432 	cp	a, a
      000192 18 05                  433 	jr	00131$
      000194                        434 00130$:
      000194 CB 7A                  435 	bit	7, d
      000196 28 01                  436 	jr	Z, 00131$
      000198 37                     437 	scf
      000199                        438 00131$:
      000199 D8                     439 	ret	C
                                    440 ;src/rooms/room_2_0.h:61: (spider_pos_y + 8 < y))) {
      00019A 21r02r00               441 	ld	hl, #_spider_pos_y
      00019D 2A                     442 	ld	a, (hl+)
      00019E C6 08                  443 	add	a, #0x08
      0001A0 4F                     444 	ld	c, a
      0001A1 7E                     445 	ld	a, (hl)
      0001A2 CE 00                  446 	adc	a, #0x00
      0001A4 47                     447 	ld	b, a
      0001A5 F8 04                  448 	ldhl	sp,	#4
      0001A7 79                     449 	ld	a, c
      0001A8 96                     450 	sub	a, (hl)
      0001A9 23                     451 	inc	hl
      0001AA 78                     452 	ld	a, b
      0001AB 9E                     453 	sbc	a, (hl)
      0001AC 78                     454 	ld	a, b
      0001AD 57                     455 	ld	d, a
      0001AE CB 7E                  456 	bit	7, (hl)
      0001B0 28 07                  457 	jr	Z, 00132$
      0001B2 CB 7A                  458 	bit	7, d
      0001B4 20 08                  459 	jr	NZ, 00133$
      0001B6 BF                     460 	cp	a, a
      0001B7 18 05                  461 	jr	00133$
      0001B9                        462 00132$:
      0001B9 CB 7A                  463 	bit	7, d
      0001BB 28 01                  464 	jr	Z, 00133$
      0001BD 37                     465 	scf
      0001BE                        466 00133$:
      0001BE D8                     467 	ret	C
                                    468 ;src/rooms/room_2_0.h:62: dec_energy += 3;
      0001BF 21r00r00               469 	ld	hl, #_dec_energy
      0001C2 7E                     470 	ld	a, (hl)
      0001C3 C6 03                  471 	add	a, #0x03
      0001C5 77                     472 	ld	(hl), a
                                    473 ;src/rooms/room_2_0.h:64: }
      0001C6 C9                     474 	ret
                                    475 ;src/rooms/room_4_0.h:7: void init_room4_0() {
                                    476 ;	---------------------------------
                                    477 ; Function init_room4_0
                                    478 ; ---------------------------------
      0001C7                        479 _init_room4_0::
                                    480 ;src/rooms/room_4_0.h:8: set_sprite_data(evil_sprites_tileoffset, current_room->raw_enemies_tiles->count, current_room->raw_enemies_tiles->data);
      0001C7 21r00r00               481 	ld	hl, #_current_room
      0001CA 2A                     482 	ld	a, (hl+)
      0001CB 4F                     483 	ld	c, a
      0001CC 46                     484 	ld	b, (hl)
      0001CD 21 07 00               485 	ld	hl, #0x0007
      0001D0 09                     486 	add	hl, bc
      0001D1 2A                     487 	ld	a, (hl+)
      0001D2 4F                     488 	ld	c, a
      0001D3 46                     489 	ld	b, (hl)
      0001D4 59                     490 	ld	e, c
      0001D5 50                     491 	ld	d, b
      0001D6 13                     492 	inc	de
      0001D7 0A                     493 	ld	a, (bc)
      0001D8 D5                     494 	push	de
      0001D9 67                     495 	ld	h, a
      0001DA 2E 09                  496 	ld	l, #0x09
      0001DC E5                     497 	push	hl
      0001DD CDr00r00               498 	call	_set_sprite_data
      0001E0 E8 04                  499 	add	sp, #4
                                    500 ;src/rooms/room_4_0.h:9: }
      0001E2 C9                     501 	ret
                                    502 ;src/rooms/room_4_0.h:11: void move_flies4_0() {
                                    503 ;	---------------------------------
                                    504 ; Function move_flies4_0
                                    505 ; ---------------------------------
      0001E3                        506 _move_flies4_0::
      0001E3 E8 FC                  507 	add	sp, #-4
                                    508 ;src/rooms/room_4_0.h:12: for (__temp_i = 0; __temp_i < 3; __temp_i++) {
      0001E5 21r00r00               509 	ld	hl, #___temp_i
      0001E8 36 00                  510 	ld	(hl), #0x00
      0001EA                        511 00115$:
                                    512 ;src/rooms/room_4_0.h:13: fly_ptr = &flies[__temp_i];
      0001EA 21r00r00               513 	ld	hl, #___temp_i
      0001ED 6E                     514 	ld	l, (hl)
                                    515 ;	spillPairReg hl
                                    516 ;	spillPairReg hl
      0001EE 26 00                  517 	ld	h, #0x00
                                    518 ;	spillPairReg hl
                                    519 ;	spillPairReg hl
      0001F0 29                     520 	add	hl, hl
      0001F1 29                     521 	add	hl, hl
      0001F2 11r00r00               522 	ld	de, #_flies
      0001F5 19                     523 	add	hl, de
      0001F6 5D                     524 	ld	e, l
      0001F7 54                     525 	ld	d, h
      0001F8 21r0Cr00               526 	ld	hl, #_fly_ptr
      0001FB 7B                     527 	ld	a, e
      0001FC 22                     528 	ld	(hl+), a
      0001FD 72                     529 	ld	(hl), d
                                    530 ;src/rooms/room_4_0.h:14: if (fly_phase & 1) {
      0001FE FAr0Er00               531 	ld	a, (#_fly_phase)
      000201 F8 03                  532 	ldhl	sp,	#3
      000203 77                     533 	ld	(hl), a
                                    534 ;src/rooms/room_4_0.h:15: fly_ptr->x += fly_delta[(*(ptr_div_reg)) & 7];
      000204 FAr0Cr00               535 	ld	a, (#_fly_ptr)
      000207 F8 00                  536 	ldhl	sp,	#0
      000209 77                     537 	ld	(hl), a
      00020A FAr0Dr00               538 	ld	a, (#_fly_ptr + 1)
      00020D F8 01                  539 	ldhl	sp,	#1
      00020F 77                     540 	ld	(hl), a
      000210 21r00r00               541 	ld	hl, #_ptr_div_reg
      000213 6E                     542 	ld	l, (hl)
                                    543 ;	spillPairReg hl
                                    544 ;	spillPairReg hl
      000214 FAr01r00               545 	ld	a, (_ptr_div_reg + 1)
      000217 67                     546 	ld	h, a
                                    547 ;	spillPairReg hl
                                    548 ;	spillPairReg hl
      000218 7E                     549 	ld	a, (hl)
      000219 E6 07                  550 	and	a, #0x07
      00021B 6F                     551 	ld	l, a
                                    552 ;	spillPairReg hl
                                    553 ;	spillPairReg hl
      00021C 26 00                  554 	ld	h, #0x00
                                    555 ;	spillPairReg hl
                                    556 ;	spillPairReg hl
      00021E 29                     557 	add	hl, hl
      00021F 11r00r00               558 	ld	de, #_fly_delta
      000222 19                     559 	add	hl, de
      000223 2A                     560 	ld	a, (hl+)
      000224 4F                     561 	ld	c, a
      000225 46                     562 	ld	b, (hl)
                                    563 ;src/rooms/room_4_0.h:14: if (fly_phase & 1) {
      000226 E5                     564 	push	hl
      000227 F8 05                  565 	ldhl	sp,	#5
      000229 CB 46                  566 	bit	0, (hl)
      00022B E1                     567 	pop	hl
      00022C 28 48                  568 	jr	Z, 00112$
                                    569 ;src/rooms/room_4_0.h:15: fly_ptr->x += fly_delta[(*(ptr_div_reg)) & 7];
      00022E D1                     570 	pop	de
      00022F D5                     571 	push	de
      000230 1A                     572 	ld	a, (de)
      000231 6F                     573 	ld	l, a
                                    574 ;	spillPairReg hl
                                    575 ;	spillPairReg hl
      000232 13                     576 	inc	de
      000233 1A                     577 	ld	a, (de)
      000234 67                     578 	ld	h, a
                                    579 ;	spillPairReg hl
                                    580 ;	spillPairReg hl
      000235 09                     581 	add	hl, bc
      000236 4D                     582 	ld	c, l
      000237 44                     583 	ld	b, h
      000238 E1                     584 	pop	hl
      000239 E5                     585 	push	hl
      00023A 79                     586 	ld	a, c
      00023B 22                     587 	ld	(hl+), a
      00023C 70                     588 	ld	(hl), b
      00023D 21r0Cr00               589 	ld	hl, #_fly_ptr
      000240 2A                     590 	ld	a, (hl+)
      000241 4F                     591 	ld	c, a
      000242 46                     592 	ld	b, (hl)
      000243 69                     593 	ld	l, c
      000244 60                     594 	ld	h, b
      000245 2A                     595 	ld	a,	(hl+)
      000246 66                     596 	ld	h, (hl)
                                    597 ;	spillPairReg hl
      000247 6F                     598 	ld	l, a
                                    599 ;	spillPairReg hl
                                    600 ;	spillPairReg hl
                                    601 ;src/rooms/room_4_0.h:16: if (fly_ptr->x < 0) fly_ptr->x = 0; 
      000248 CB 7C                  602 	bit	7, h
      00024A 28 07                  603 	jr	Z, 00104$
      00024C AF                     604 	xor	a, a
      00024D 02                     605 	ld	(bc), a
      00024E 03                     606 	inc	bc
      00024F 02                     607 	ld	(bc), a
      000250 C3rD1r02               608 	jp	00116$
      000253                        609 00104$:
                                    610 ;src/rooms/room_4_0.h:17: else if (fly_ptr->x > (room_width * 8)) fly_ptr->x = ((room_width * 8) - 1);
      000253 5C                     611 	ld	e, h
      000254 16 00                  612 	ld	d, #0x00
      000256 3E F0                  613 	ld	a, #0xf0
      000258 BD                     614 	cp	a, l
      000259 3E 00                  615 	ld	a, #0x00
      00025B 9C                     616 	sbc	a, h
      00025C CB 7B                  617 	bit	7, e
      00025E 28 07                  618 	jr	Z, 00150$
      000260 CB 7A                  619 	bit	7, d
      000262 20 08                  620 	jr	NZ, 00151$
      000264 BF                     621 	cp	a, a
      000265 18 05                  622 	jr	00151$
      000267                        623 00150$:
      000267 CB 7A                  624 	bit	7, d
      000269 28 01                  625 	jr	Z, 00151$
      00026B 37                     626 	scf
      00026C                        627 00151$:
      00026C 30 63                  628 	jr	NC, 00116$
      00026E 3E EF                  629 	ld	a, #0xef
      000270 02                     630 	ld	(bc), a
      000271 03                     631 	inc	bc
      000272 AF                     632 	xor	a, a
      000273 02                     633 	ld	(bc), a
      000274 18 5B                  634 	jr	00116$
      000276                        635 00112$:
                                    636 ;src/rooms/room_4_0.h:19: fly_ptr->y += fly_delta[(*(ptr_div_reg)) & 7];
      000276 D1                     637 	pop	de
      000277 D5                     638 	push	de
      000278 21 02 00               639 	ld	hl, #0x0002
      00027B 19                     640 	add	hl, de
      00027C E5                     641 	push	hl
      00027D 7D                     642 	ld	a, l
      00027E F8 04                  643 	ldhl	sp,	#4
      000280 77                     644 	ld	(hl), a
      000281 E1                     645 	pop	hl
      000282 7C                     646 	ld	a, h
      000283 F8 03                  647 	ldhl	sp,	#3
      000285 32                     648 	ld	(hl-), a
      000286 2A                     649 	ld	a, (hl+)
      000287 5F                     650 	ld	e, a
      000288 56                     651 	ld	d, (hl)
      000289 1A                     652 	ld	a, (de)
      00028A 6F                     653 	ld	l, a
                                    654 ;	spillPairReg hl
                                    655 ;	spillPairReg hl
      00028B 13                     656 	inc	de
      00028C 1A                     657 	ld	a, (de)
      00028D 67                     658 	ld	h, a
                                    659 ;	spillPairReg hl
                                    660 ;	spillPairReg hl
      00028E 09                     661 	add	hl, bc
      00028F 4D                     662 	ld	c, l
      000290 44                     663 	ld	b, h
      000291 F8 02                  664 	ldhl	sp,	#2
      000293 2A                     665 	ld	a,	(hl+)
      000294 66                     666 	ld	h, (hl)
      000295 6F                     667 	ld	l, a
      000296 79                     668 	ld	a, c
      000297 22                     669 	ld	(hl+), a
      000298 70                     670 	ld	(hl), b
                                    671 ;src/rooms/room_4_0.h:15: fly_ptr->x += fly_delta[(*(ptr_div_reg)) & 7];
      000299 21r0Cr00               672 	ld	hl, #_fly_ptr
      00029C 2A                     673 	ld	a, (hl+)
      00029D 4F                     674 	ld	c, a
      00029E 46                     675 	ld	b, (hl)
                                    676 ;src/rooms/room_4_0.h:19: fly_ptr->y += fly_delta[(*(ptr_div_reg)) & 7];
      00029F 03                     677 	inc	bc
      0002A0 03                     678 	inc	bc
      0002A1 69                     679 	ld	l, c
      0002A2 60                     680 	ld	h, b
      0002A3 2A                     681 	ld	a,	(hl+)
      0002A4 66                     682 	ld	h, (hl)
                                    683 ;	spillPairReg hl
      0002A5 6F                     684 	ld	l, a
                                    685 ;	spillPairReg hl
                                    686 ;	spillPairReg hl
                                    687 ;src/rooms/room_4_0.h:20: if (fly_ptr->y < 0) fly_ptr->y = 0; 
      0002A6 CB 7C                  688 	bit	7, h
      0002A8 28 06                  689 	jr	Z, 00109$
      0002AA AF                     690 	xor	a, a
      0002AB 02                     691 	ld	(bc), a
      0002AC 03                     692 	inc	bc
      0002AD 02                     693 	ld	(bc), a
      0002AE 18 21                  694 	jr	00116$
      0002B0                        695 00109$:
                                    696 ;src/rooms/room_4_0.h:21: else if (fly_ptr->y > (room_height * 8)) fly_ptr->y = ((room_height * 8) - 1);
      0002B0 5C                     697 	ld	e, h
      0002B1 16 00                  698 	ld	d, #0x00
      0002B3 3E 88                  699 	ld	a, #0x88
      0002B5 BD                     700 	cp	a, l
      0002B6 3E 00                  701 	ld	a, #0x00
      0002B8 9C                     702 	sbc	a, h
      0002B9 CB 7B                  703 	bit	7, e
      0002BB 28 07                  704 	jr	Z, 00152$
      0002BD CB 7A                  705 	bit	7, d
      0002BF 20 08                  706 	jr	NZ, 00153$
      0002C1 BF                     707 	cp	a, a
      0002C2 18 05                  708 	jr	00153$
      0002C4                        709 00152$:
      0002C4 CB 7A                  710 	bit	7, d
      0002C6 28 01                  711 	jr	Z, 00153$
      0002C8 37                     712 	scf
      0002C9                        713 00153$:
      0002C9 30 06                  714 	jr	NC, 00116$
      0002CB 3E 87                  715 	ld	a, #0x87
      0002CD 02                     716 	ld	(bc), a
      0002CE 03                     717 	inc	bc
      0002CF AF                     718 	xor	a, a
      0002D0 02                     719 	ld	(bc), a
      0002D1                        720 00116$:
                                    721 ;src/rooms/room_4_0.h:12: for (__temp_i = 0; __temp_i < 3; __temp_i++) {
      0002D1 21r00r00               722 	ld	hl, #___temp_i
      0002D4 34                     723 	inc	(hl)
      0002D5 7E                     724 	ld	a, (hl)
      0002D6 D6 03                  725 	sub	a, #0x03
      0002D8 DArEAr01               726 	jp	C, 00115$
                                    727 ;src/rooms/room_4_0.h:24: }
      0002DB E8 04                  728 	add	sp, #4
      0002DD C9                     729 	ret
                                    730 ;src/rooms/room_4_0.h:26: void draw_flies4_0() {
                                    731 ;	---------------------------------
                                    732 ; Function draw_flies4_0
                                    733 ; ---------------------------------
      0002DE                        734 _draw_flies4_0::
                                    735 ;src/rooms/room_4_0.h:27: switch (fly_phase) {
      0002DE 3E 06                  736 	ld	a, #0x06
      0002E0 21r0Er00               737 	ld	hl, #_fly_phase
      0002E3 96                     738 	sub	a, (hl)
      0002E4 38 47                  739 	jr	C, 00107$
      0002E6 4E                     740 	ld	c, (hl)
      0002E7 06 00                  741 	ld	b, #0x00
      0002E9 21rF0r02               742 	ld	hl, #00129$
      0002EC 09                     743 	add	hl, bc
      0002ED 09                     744 	add	hl, bc
      0002EE 09                     745 	add	hl, bc
      0002EF E9                     746 	jp	(hl)
      0002F0                        747 00129$:
      0002F0 C3r05r03               748 	jp	00101$
      0002F3 C3r0Cr03               749 	jp	00102$
      0002F6 C3r13r03               750 	jp	00103$
      0002F9 C3r2Dr03               751 	jp	00107$
      0002FC C3r1Ar03               752 	jp	00104$
      0002FF C3r21r03               753 	jp	00105$
      000302 C3r28r03               754 	jp	00106$
                                    755 ;src/rooms/room_4_0.h:28: case 0 : set_sprite_tile(fly_sprite_offset0,     evil_sprites_tileoffset); break;
      000305                        756 00101$:
                                    757 ;c:/gb/gbdk/include/gb/gb.h:1185: shadow_OAM[nb].tile=tile;
      000305 21r26r00               758 	ld	hl, #(_shadow_OAM + 38)
      000308 36 09                  759 	ld	(hl), #0x09
                                    760 ;src/rooms/room_4_0.h:28: case 0 : set_sprite_tile(fly_sprite_offset0,     evil_sprites_tileoffset); break;
      00030A 18 21                  761 	jr	00107$
                                    762 ;src/rooms/room_4_0.h:29: case 1 : set_sprite_tile(fly_sprite_offset0 + 1, evil_sprites_tileoffset); break;
      00030C                        763 00102$:
                                    764 ;c:/gb/gbdk/include/gb/gb.h:1185: shadow_OAM[nb].tile=tile;
      00030C 21r2Ar00               765 	ld	hl, #(_shadow_OAM + 42)
      00030F 36 09                  766 	ld	(hl), #0x09
                                    767 ;src/rooms/room_4_0.h:29: case 1 : set_sprite_tile(fly_sprite_offset0 + 1, evil_sprites_tileoffset); break;
      000311 18 1A                  768 	jr	00107$
                                    769 ;src/rooms/room_4_0.h:30: case 2 : set_sprite_tile(fly_sprite_offset0 + 2, evil_sprites_tileoffset); break;
      000313                        770 00103$:
                                    771 ;c:/gb/gbdk/include/gb/gb.h:1185: shadow_OAM[nb].tile=tile;
      000313 21r2Er00               772 	ld	hl, #(_shadow_OAM + 46)
      000316 36 09                  773 	ld	(hl), #0x09
                                    774 ;src/rooms/room_4_0.h:30: case 2 : set_sprite_tile(fly_sprite_offset0 + 2, evil_sprites_tileoffset); break;
      000318 18 13                  775 	jr	00107$
                                    776 ;src/rooms/room_4_0.h:32: case 4 : set_sprite_tile(fly_sprite_offset0,     (evil_sprites_tileoffset + 1)); break;
      00031A                        777 00104$:
                                    778 ;c:/gb/gbdk/include/gb/gb.h:1185: shadow_OAM[nb].tile=tile;
      00031A 21r26r00               779 	ld	hl, #(_shadow_OAM + 38)
      00031D 36 0A                  780 	ld	(hl), #0x0a
                                    781 ;src/rooms/room_4_0.h:32: case 4 : set_sprite_tile(fly_sprite_offset0,     (evil_sprites_tileoffset + 1)); break;
      00031F 18 0C                  782 	jr	00107$
                                    783 ;src/rooms/room_4_0.h:33: case 5 : set_sprite_tile(fly_sprite_offset0 + 1, (evil_sprites_tileoffset + 1)); break;
      000321                        784 00105$:
                                    785 ;c:/gb/gbdk/include/gb/gb.h:1185: shadow_OAM[nb].tile=tile;
      000321 21r2Ar00               786 	ld	hl, #(_shadow_OAM + 42)
      000324 36 0A                  787 	ld	(hl), #0x0a
                                    788 ;src/rooms/room_4_0.h:33: case 5 : set_sprite_tile(fly_sprite_offset0 + 1, (evil_sprites_tileoffset + 1)); break;
      000326 18 05                  789 	jr	00107$
                                    790 ;src/rooms/room_4_0.h:34: case 6 : set_sprite_tile(fly_sprite_offset0 + 2, (evil_sprites_tileoffset + 1)); break;
      000328                        791 00106$:
                                    792 ;c:/gb/gbdk/include/gb/gb.h:1185: shadow_OAM[nb].tile=tile;
      000328 21r2Er00               793 	ld	hl, #(_shadow_OAM + 46)
      00032B 36 0A                  794 	ld	(hl), #0x0a
                                    795 ;src/rooms/room_4_0.h:35: }
      00032D                        796 00107$:
                                    797 ;src/rooms/room_4_0.h:36: fly_phase++; fly_phase &= 7;
      00032D 21r0Er00               798 	ld	hl, #_fly_phase
      000330 34                     799 	inc	(hl)
      000331 7E                     800 	ld	a, (hl)
      000332 E6 07                  801 	and	a, #0x07
      000334 77                     802 	ld	(hl), a
                                    803 ;src/rooms/room_4_0.h:37: for (__temp_i = 0; __temp_i < 3; __temp_i++) {
      000335 21r00r00               804 	ld	hl, #___temp_i
      000338 36 00                  805 	ld	(hl), #0x00
      00033A                        806 00115$:
                                    807 ;src/rooms/room_4_0.h:38: fly_ptr = &flies[__temp_i];
      00033A 21r00r00               808 	ld	hl, #___temp_i
      00033D 6E                     809 	ld	l, (hl)
                                    810 ;	spillPairReg hl
                                    811 ;	spillPairReg hl
      00033E 26 00                  812 	ld	h, #0x00
                                    813 ;	spillPairReg hl
                                    814 ;	spillPairReg hl
      000340 29                     815 	add	hl, hl
      000341 29                     816 	add	hl, hl
      000342 11r00r00               817 	ld	de, #_flies
      000345 19                     818 	add	hl, de
      000346 5D                     819 	ld	e, l
      000347 54                     820 	ld	d, h
      000348 21r0Cr00               821 	ld	hl, #_fly_ptr
      00034B 7B                     822 	ld	a, e
      00034C 22                     823 	ld	(hl+), a
      00034D 72                     824 	ld	(hl), d
                                    825 ;src/rooms/room_4_0.h:41: (unsigned char *)fly_offsets);
                                    826 ;src/rooms/room_4_0.h:40: fly_ptr->x - bkg_scroll_x_target, fly_ptr->y - bkg_scroll_y_target,
      00034E 21r0Cr00               827 	ld	hl, #_fly_ptr
      000351 2A                     828 	ld	a, (hl+)
      000352 5F                     829 	ld	e, a
      000353 56                     830 	ld	d, (hl)
      000354 4B                     831 	ld	c, e
      000355 42                     832 	ld	b, d
      000356 03                     833 	inc	bc
      000357 03                     834 	inc	bc
      000358 0A                     835 	ld	a, (bc)
      000359 21r00r00               836 	ld	hl, #_bkg_scroll_y_target
      00035C 4E                     837 	ld	c, (hl)
      00035D 91                     838 	sub	a, c
      00035E 47                     839 	ld	b, a
      00035F 1A                     840 	ld	a, (de)
      000360 21r00r00               841 	ld	hl, #_bkg_scroll_x_target
      000363 4E                     842 	ld	c, (hl)
      000364 91                     843 	sub	a, c
      000365 4F                     844 	ld	c, a
                                    845 ;src/rooms/room_4_0.h:39: multiple_move_sprites(fly_sprite_offset0 + __temp_i, 1, 
      000366 21r00r00               846 	ld	hl, #___temp_i
      000369 7E                     847 	ld	a, (hl)
      00036A C6 09                  848 	add	a, #0x09
      00036C 11r00r00               849 	ld	de, #_fly_offsets
      00036F D5                     850 	push	de
      000370 C5                     851 	push	bc
      000371 33                     852 	inc	sp
      000372 61                     853 	ld	h, c
                                    854 ;	spillPairReg hl
                                    855 ;	spillPairReg hl
      000373 E5                     856 	push	hl
      000374 33                     857 	inc	sp
      000375 26 01                  858 	ld	h, #0x01
                                    859 ;	spillPairReg hl
                                    860 ;	spillPairReg hl
      000377 E5                     861 	push	hl
      000378 33                     862 	inc	sp
      000379 F5                     863 	push	af
      00037A 33                     864 	inc	sp
      00037B CDr00r00               865 	call	_multiple_move_sprites
      00037E E8 06                  866 	add	sp, #6
                                    867 ;src/rooms/room_4_0.h:37: for (__temp_i = 0; __temp_i < 3; __temp_i++) {
      000380 21r00r00               868 	ld	hl, #___temp_i
      000383 34                     869 	inc	(hl)
      000384 7E                     870 	ld	a, (hl)
      000385 D6 03                  871 	sub	a, #0x03
      000387 38 B1                  872 	jr	C, 00115$
                                    873 ;src/rooms/room_4_0.h:43: }
      000389 C9                     874 	ret
                                    875 ;src/rooms/room_4_0.h:45: fly_coord_t * find_firefly(UBYTE tile_x, UBYTE tile_y) {
                                    876 ;	---------------------------------
                                    877 ; Function find_firefly
                                    878 ; ---------------------------------
      00038A                        879 _find_firefly::
      00038A E8 FD                  880 	add	sp, #-3
                                    881 ;src/rooms/room_4_0.h:47: for (__temp_i = 0; __temp_i < 3; __temp_i++) {
      00038C 21r00r00               882 	ld	hl, #___temp_i
      00038F 36 00                  883 	ld	(hl), #0x00
      000391                        884 00107$:
                                    885 ;src/rooms/room_4_0.h:48: fly_ptr = &flies[__temp_i];
      000391 21r00r00               886 	ld	hl, #___temp_i
      000394 6E                     887 	ld	l, (hl)
                                    888 ;	spillPairReg hl
                                    889 ;	spillPairReg hl
      000395 26 00                  890 	ld	h, #0x00
                                    891 ;	spillPairReg hl
                                    892 ;	spillPairReg hl
      000397 29                     893 	add	hl, hl
      000398 29                     894 	add	hl, hl
      000399 11r00r00               895 	ld	de, #_flies
      00039C 19                     896 	add	hl, de
      00039D 5D                     897 	ld	e, l
      00039E 54                     898 	ld	d, h
      00039F 21r0Cr00               899 	ld	hl, #_fly_ptr
      0003A2 7B                     900 	ld	a, e
      0003A3 22                     901 	ld	(hl+), a
      0003A4 72                     902 	ld	(hl), d
                                    903 ;src/rooms/room_4_0.h:50: ff_tile_x = fly_ptr->x >> 3, ff_tile_y = fly_ptr->y >> 3;        
      0003A5 21r0Cr00               904 	ld	hl, #_fly_ptr
      0003A8 2A                     905 	ld	a, (hl+)
      0003A9 4F                     906 	ld	c, a
      0003AA 46                     907 	ld	b, (hl)
      0003AB 69                     908 	ld	l, c
      0003AC 60                     909 	ld	h, b
      0003AD 2A                     910 	ld	a,	(hl+)
      0003AE 66                     911 	ld	h, (hl)
                                    912 ;	spillPairReg hl
                                    913 ;	spillPairReg hl
                                    914 ;	spillPairReg hl
      0003AF 5F                     915 	ld	e, a
      0003B0 54                     916 	ld	d, h
      0003B1 CB 2A                  917 	sra	d
      0003B3 CB 1B                  918 	rr	e
      0003B5 CB 2A                  919 	sra	d
      0003B7 CB 1B                  920 	rr	e
      0003B9 CB 2A                  921 	sra	d
      0003BB CB 1B                  922 	rr	e
      0003BD F8 02                  923 	ldhl	sp,	#2
      0003BF 73                     924 	ld	(hl), e
      0003C0 69                     925 	ld	l, c
      0003C1 60                     926 	ld	h, b
      0003C2 23                     927 	inc	hl
      0003C3 23                     928 	inc	hl
      0003C4 2A                     929 	ld	a, (hl+)
      0003C5 4F                     930 	ld	c, a
      0003C6 46                     931 	ld	b, (hl)
      0003C7 CB 28                  932 	sra	b
      0003C9 CB 19                  933 	rr	c
      0003CB CB 28                  934 	sra	b
      0003CD CB 19                  935 	rr	c
      0003CF CB 28                  936 	sra	b
      0003D1 CB 19                  937 	rr	c
      0003D3 F8 00                  938 	ldhl	sp,	#0
                                    939 ;src/rooms/room_4_0.h:52: if ((ff_tile_x >= tile_x) && (ff_tile_x <= tile_x + 2) &&
      0003D5 79                     940 	ld	a, c
      0003D6 22                     941 	ld	(hl+), a
      0003D7 23                     942 	inc	hl
      0003D8 7E                     943 	ld	a, (hl)
      0003D9 F8 05                  944 	ldhl	sp,	#5
      0003DB 96                     945 	sub	a, (hl)
      0003DC 38 57                  946 	jr	C, 00108$
      0003DE 4E                     947 	ld	c, (hl)
      0003DF 06 00                  948 	ld	b, #0x00
      0003E1 03                     949 	inc	bc
      0003E2 03                     950 	inc	bc
      0003E3 F8 02                  951 	ldhl	sp,	#2
      0003E5 3A                     952 	ld	a, (hl-)
      0003E6 22                     953 	ld	(hl+), a
      0003E7 AF                     954 	xor	a, a
      0003E8 32                     955 	ld	(hl-), a
      0003E9 79                     956 	ld	a, c
      0003EA 96                     957 	sub	a, (hl)
      0003EB 23                     958 	inc	hl
      0003EC 78                     959 	ld	a, b
      0003ED 9E                     960 	sbc	a, (hl)
      0003EE 78                     961 	ld	a, b
      0003EF 57                     962 	ld	d, a
      0003F0 CB 7E                  963 	bit	7, (hl)
      0003F2 28 07                  964 	jr	Z, 00141$
      0003F4 CB 7A                  965 	bit	7, d
      0003F6 20 08                  966 	jr	NZ, 00142$
      0003F8 BF                     967 	cp	a, a
      0003F9 18 05                  968 	jr	00142$
      0003FB                        969 00141$:
      0003FB CB 7A                  970 	bit	7, d
      0003FD 28 01                  971 	jr	Z, 00142$
      0003FF 37                     972 	scf
      000400                        973 00142$:
      000400 38 33                  974 	jr	C, 00108$
                                    975 ;src/rooms/room_4_0.h:53: (ff_tile_y >= tile_y) && (ff_tile_y <= tile_y + 1)) return fly_ptr;
      000402 F8 00                  976 	ldhl	sp,	#0
      000404 7E                     977 	ld	a, (hl)
      000405 F8 06                  978 	ldhl	sp,	#6
      000407 96                     979 	sub	a, (hl)
      000408 38 2B                  980 	jr	C, 00108$
      00040A 4E                     981 	ld	c, (hl)
      00040B 06 00                  982 	ld	b, #0x00
      00040D 03                     983 	inc	bc
      00040E F8 00                  984 	ldhl	sp,	#0
      000410 2A                     985 	ld	a, (hl+)
      000411 22                     986 	ld	(hl+), a
      000412 AF                     987 	xor	a, a
      000413 32                     988 	ld	(hl-), a
      000414 79                     989 	ld	a, c
      000415 96                     990 	sub	a, (hl)
      000416 23                     991 	inc	hl
      000417 78                     992 	ld	a, b
      000418 9E                     993 	sbc	a, (hl)
      000419 78                     994 	ld	a, b
      00041A 57                     995 	ld	d, a
      00041B CB 7E                  996 	bit	7, (hl)
      00041D 28 07                  997 	jr	Z, 00143$
      00041F CB 7A                  998 	bit	7, d
      000421 20 08                  999 	jr	NZ, 00144$
      000423 BF                    1000 	cp	a, a
      000424 18 05                 1001 	jr	00144$
      000426                       1002 00143$:
      000426 CB 7A                 1003 	bit	7, d
      000428 28 01                 1004 	jr	Z, 00144$
      00042A 37                    1005 	scf
      00042B                       1006 00144$:
      00042B 38 08                 1007 	jr	C, 00108$
      00042D 21r0Cr00              1008 	ld	hl, #_fly_ptr
      000430 2A                    1009 	ld	a, (hl+)
      000431 5F                    1010 	ld	e, a
      000432 56                    1011 	ld	d, (hl)
      000433 18 0D                 1012 	jr	00109$
      000435                       1013 00108$:
                                   1014 ;src/rooms/room_4_0.h:47: for (__temp_i = 0; __temp_i < 3; __temp_i++) {
      000435 21r00r00              1015 	ld	hl, #___temp_i
      000438 34                    1016 	inc	(hl)
      000439 7E                    1017 	ld	a, (hl)
      00043A D6 03                 1018 	sub	a, #0x03
      00043C DAr91r03              1019 	jp	C, 00107$
                                   1020 ;src/rooms/room_4_0.h:55: return 0;
      00043F 11 00 00              1021 	ld	de, #0x0000
      000442                       1022 00109$:
                                   1023 ;src/rooms/room_4_0.h:56: }
      000442 E8 03                 1024 	add	sp, #3
      000444 C9                    1025 	ret
                                   1026 ;src/rooms/room_4_0.h:58: UBYTE dizzy_catches_firefly(UBYTE tile_x, UBYTE tile_y, UBYTE id) {
                                   1027 ;	---------------------------------
                                   1028 ; Function dizzy_catches_firefly
                                   1029 ; ---------------------------------
      000445                       1030 _dizzy_catches_firefly::
                                   1031 ;src/rooms/room_4_0.h:61: if (id == ID_LID) {
      000445 F8 04                 1032 	ldhl	sp,	#4
      000447 7E                    1033 	ld	a, (hl)
      000448 D6 07                 1034 	sub	a, #0x07
      00044A C2rE0r04              1035 	jp	NZ,00112$
                                   1036 ;src/rooms/room_4_0.h:62: temp_item = find_by_id(&inventory_item_list, ID_JAR);
      00044D 3E 06                 1037 	ld	a, #0x06
      00044F F5                    1038 	push	af
      000450 33                    1039 	inc	sp
      000451 11r00r00              1040 	ld	de, #_inventory_item_list
      000454 D5                    1041 	push	de
      000455 CDr00r00              1042 	call	_find_by_id
      000458 E8 03                 1043 	add	sp, #3
      00045A 7B                    1044 	ld	a, e
                                   1045 ;src/rooms/room_4_0.h:63: if (temp_item) {
      00045B B2                    1046 	or	a, d
      00045C CArE0r04              1047 	jp	Z, 00112$
                                   1048 ;src/rooms/room_4_0.h:64: temp_fly = find_firefly(tile_x, tile_y);
      00045F F8 03                 1049 	ldhl	sp,	#3
      000461 3A                    1050 	ld	a, (hl-)
      000462 57                    1051 	ld	d, a
      000463 5E                    1052 	ld	e, (hl)
      000464 D5                    1053 	push	de
      000465 CDr8Ar03              1054 	call	_find_firefly
      000468 E1                    1055 	pop	hl
      000469 4B                    1056 	ld	c, e
      00046A 42                    1057 	ld	b, d
                                   1058 ;src/rooms/room_4_0.h:65: if (temp_fly) {
      00046B 78                    1059 	ld	a, b
      00046C B1                    1060 	or	a, c
      00046D 28 71                 1061 	jr	Z, 00112$
                                   1062 ;src/rooms/room_4_0.h:67: temp_item = pop_by_id(&inventory_item_list, ID_JAR);
      00046F C5                    1063 	push	bc
      000470 3E 06                 1064 	ld	a, #0x06
      000472 F5                    1065 	push	af
      000473 33                    1066 	inc	sp
      000474 11r00r00              1067 	ld	de, #_inventory_item_list
      000477 D5                    1068 	push	de
      000478 CDr00r00              1069 	call	_pop_by_id
      00047B E8 03                 1070 	add	sp, #3
      00047D C1                    1071 	pop	bc
                                   1072 ;src/rooms/room_4_0.h:68: if (temp_item) push_last(&item_stack, temp_item);
      00047E 7A                    1073 	ld	a, d
      00047F B3                    1074 	or	a, e
      000480 28 0C                 1075 	jr	Z, 00102$
      000482 C5                    1076 	push	bc
      000483 D5                    1077 	push	de
      000484 11r00r00              1078 	ld	de, #_item_stack
      000487 D5                    1079 	push	de
      000488 CDr00r00              1080 	call	_push_last
      00048B E8 04                 1081 	add	sp, #4
      00048D C1                    1082 	pop	bc
      00048E                       1083 00102$:
                                   1084 ;src/rooms/room_4_0.h:70: temp_item = pop_by_id(&game_item_list, ID_FIREFLY);
      00048E C5                    1085 	push	bc
      00048F 3E 08                 1086 	ld	a, #0x08
      000491 F5                    1087 	push	af
      000492 33                    1088 	inc	sp
      000493 11r00r00              1089 	ld	de, #_game_item_list
      000496 D5                    1090 	push	de
      000497 CDr00r00              1091 	call	_pop_by_id
      00049A E8 03                 1092 	add	sp, #3
      00049C C1                    1093 	pop	bc
                                   1094 ;src/rooms/room_4_0.h:71: if (!temp_item) temp_item = pop_by_id(&item_stack, ID_FIREFLY);
      00049D 7A                    1095 	ld	a, d
      00049E B3                    1096 	or	a, e
      00049F 20 0F                 1097 	jr	NZ, 00104$
      0004A1 C5                    1098 	push	bc
      0004A2 3E 08                 1099 	ld	a, #0x08
      0004A4 F5                    1100 	push	af
      0004A5 33                    1101 	inc	sp
      0004A6 11r00r00              1102 	ld	de, #_item_stack
      0004A9 D5                    1103 	push	de
      0004AA CDr00r00              1104 	call	_pop_by_id
      0004AD E8 03                 1105 	add	sp, #3
      0004AF C1                    1106 	pop	bc
      0004B0                       1107 00104$:
                                   1108 ;src/rooms/room_4_0.h:72: if (temp_item) push_last(&inventory_item_list, temp_item);                
      0004B0 7A                    1109 	ld	a, d
      0004B1 B3                    1110 	or	a, e
      0004B2 28 0C                 1111 	jr	Z, 00106$
      0004B4 C5                    1112 	push	bc
      0004B5 D5                    1113 	push	de
      0004B6 11r00r00              1114 	ld	de, #_inventory_item_list
      0004B9 D5                    1115 	push	de
      0004BA CDr00r00              1116 	call	_push_last
      0004BD E8 04                 1117 	add	sp, #4
      0004BF C1                    1118 	pop	bc
      0004C0                       1119 00106$:
                                   1120 ;src/rooms/room_4_0.h:74: temp_fly->x = 8, temp_fly->y = 8;
      0004C0 69                    1121 	ld	l, c
      0004C1 60                    1122 	ld	h, b
      0004C2 3E 08                 1123 	ld	a, #0x08
      0004C4 22                    1124 	ld	(hl+), a
      0004C5 36 00                 1125 	ld	(hl), #0x00
      0004C7 03                    1126 	inc	bc
      0004C8 03                    1127 	inc	bc
      0004C9 3E 08                 1128 	ld	a, #0x08
      0004CB 02                    1129 	ld	(bc), a
      0004CC 03                    1130 	inc	bc
      0004CD 3E 00                 1131 	ld	a, #0x00
      0004CF 02                    1132 	ld	(bc), a
                                   1133 ;src/rooms/room_4_0.h:76: show_dialog_window(2, &firefly_caught);
      0004D0 11r00r00              1134 	ld	de, #_firefly_caught
      0004D3 D5                    1135 	push	de
      0004D4 3E 02                 1136 	ld	a, #0x02
      0004D6 F5                    1137 	push	af
      0004D7 33                    1138 	inc	sp
      0004D8 CDr00r00              1139 	call	_show_dialog_window
      0004DB E8 03                 1140 	add	sp, #3
                                   1141 ;src/rooms/room_4_0.h:78: return ID_ITEM_USED;
      0004DD 1E 0F                 1142 	ld	e, #0x0f
      0004DF C9                    1143 	ret
      0004E0                       1144 00112$:
                                   1145 ;src/rooms/room_4_0.h:82: return default_drop(id);
      0004E0 F8 04                 1146 	ldhl	sp,	#4
      0004E2 7E                    1147 	ld	a, (hl)
      0004E3 F5                    1148 	push	af
      0004E4 33                    1149 	inc	sp
      0004E5 CDr00r00              1150 	call	_default_drop
      0004E8 33                    1151 	inc	sp
                                   1152 ;src/rooms/room_4_0.h:83: }
      0004E9 C9                    1153 	ret
                                   1154 ;src/rooms/room_5_0.h:1: UBYTE grand_gets_pie(UBYTE tile_x, UBYTE tile_y, UBYTE id) {
                                   1155 ;	---------------------------------
                                   1156 ; Function grand_gets_pie
                                   1157 ; ---------------------------------
      0004EA                       1158 _grand_gets_pie::
                                   1159 ;src/rooms/room_5_0.h:2: if (id == ID_PIE) {
      0004EA F8 04                 1160 	ldhl	sp,	#4
      0004EC 7E                    1161 	ld	a, (hl)
      0004ED D6 05                 1162 	sub	a, #0x05
      0004EF 20 23                 1163 	jr	NZ, 00106$
                                   1164 ;src/rooms/room_5_0.h:3: if ((tile_y == 7) && (tile_x > 18) && (tile_x < 22)) {
      0004F1 F8 03                 1165 	ldhl	sp,	#3
      0004F3 7E                    1166 	ld	a, (hl)
      0004F4 D6 07                 1167 	sub	a, #0x07
      0004F6 20 1C                 1168 	jr	NZ, 00106$
      0004F8 3E 12                 1169 	ld	a, #0x12
      0004FA F8 02                 1170 	ldhl	sp,	#2
      0004FC 96                    1171 	sub	a, (hl)
      0004FD 30 15                 1172 	jr	NC, 00106$
      0004FF 7E                    1173 	ld	a, (hl)
      000500 D6 16                 1174 	sub	a, #0x16
      000502 30 10                 1175 	jr	NC, 00106$
                                   1176 ;src/rooms/room_5_0.h:4: show_dialog_window(6, &grandpa_thanks);
      000504 11r00r00              1177 	ld	de, #_grandpa_thanks
      000507 D5                    1178 	push	de
      000508 3E 06                 1179 	ld	a, #0x06
      00050A F5                    1180 	push	af
      00050B 33                    1181 	inc	sp
      00050C CDr00r00              1182 	call	_show_dialog_window
      00050F E8 03                 1183 	add	sp, #3
                                   1184 ;src/rooms/room_5_0.h:5: return ID_ITEM_USED;
      000511 1E 0F                 1185 	ld	e, #0x0f
      000513 C9                    1186 	ret
      000514                       1187 00106$:
                                   1188 ;src/rooms/room_5_0.h:8: return default_drop(id);
      000514 F8 04                 1189 	ldhl	sp,	#4
      000516 7E                    1190 	ld	a, (hl)
      000517 F5                    1191 	push	af
      000518 33                    1192 	inc	sp
      000519 CDr00r00              1193 	call	_default_drop
      00051C 33                    1194 	inc	sp
                                   1195 ;src/rooms/room_5_0.h:9: }
      00051D C9                    1196 	ret
                                   1197 	.area _CODE_3
      00051E                       1198 _room_0_0_map:
      00051E FC 00                 1199 	.dw #0x00fc
      000520 E1                    1200 	.db #0xe1	; 225
      000521 00                    1201 	.db #0x00	; 0
      000522 01                    1202 	.db #0x01	; 1
      000523 02                    1203 	.db #0x02	; 2
      000524 00                    1204 	.db #0x00	; 0
      000525 03                    1205 	.db #0x03	; 3
      000526 04                    1206 	.db #0x04	; 4
      000527 05                    1207 	.db #0x05	; 5
      000528 D8                    1208 	.db #0xd8	; 216
      000529 00                    1209 	.db #0x00	; 0
      00052A 06                    1210 	.db #0x06	; 6
      00052B 07                    1211 	.db #0x07	; 7
      00052C 06                    1212 	.db #0x06	; 6
      00052D 08                    1213 	.db #0x08	; 8
      00052E 06                    1214 	.db #0x06	; 6
      00052F 08                    1215 	.db #0x08	; 8
      000530 05                    1216 	.db #0x05	; 5
      000531 D6                    1217 	.db #0xd6	; 214
      000532 00                    1218 	.db #0x00	; 0
      000533 04                    1219 	.db #0x04	; 4
      000534 06                    1220 	.db #0x06	; 6
      000535 09                    1221 	.db #0x09	; 9
      000536 08                    1222 	.db #0x08	; 8
      000537 06                    1223 	.db #0x06	; 6
      000538 C2                    1224 	.db #0xc2	; 194
      000539 08                    1225 	.db #0x08	; 8
      00053A 07                    1226 	.db #0x07	; 7
      00053B 05                    1227 	.db #0x05	; 5
      00053C 02                    1228 	.db #0x02	; 2
      00053D D3                    1229 	.db #0xd3	; 211
      00053E 00                    1230 	.db #0x00	; 0
      00053F 0A                    1231 	.db #0x0a	; 10
      000540 08                    1232 	.db #0x08	; 8
      000541 C2                    1233 	.db #0xc2	; 194
      000542 06                    1234 	.db #0x06	; 6
      000543 07                    1235 	.db #0x07	; 7
      000544 06                    1236 	.db #0x06	; 6
      000545 09                    1237 	.db #0x09	; 9
      000546 C3                    1238 	.db #0xc3	; 195
      000547 06                    1239 	.db #0x06	; 6
      000548 08                    1240 	.db #0x08	; 8
      000549 D2                    1241 	.db #0xd2	; 210
      00054A 00                    1242 	.db #0x00	; 0
      00054B 0B                    1243 	.db #0x0b	; 11
      00054C 0C                    1244 	.db #0x0c	; 12
      00054D 07                    1245 	.db #0x07	; 7
      00054E 09                    1246 	.db #0x09	; 9
      00054F 08                    1247 	.db #0x08	; 8
      000550 06                    1248 	.db #0x06	; 6
      000551 08                    1249 	.db #0x08	; 8
      000552 07                    1250 	.db #0x07	; 7
      000553 08                    1251 	.db #0x08	; 8
      000554 07                    1252 	.db #0x07	; 7
      000555 08                    1253 	.db #0x08	; 8
      000556 0D                    1254 	.db #0x0d	; 13
      000557 D2                    1255 	.db #0xd2	; 210
      000558 00                    1256 	.db #0x00	; 0
      000559 0E                    1257 	.db #0x0e	; 14
      00055A 0F                    1258 	.db #0x0f	; 15
      00055B 08                    1259 	.db #0x08	; 8
      00055C 06                    1260 	.db #0x06	; 6
      00055D 07                    1261 	.db #0x07	; 7
      00055E 06                    1262 	.db #0x06	; 6
      00055F 08                    1263 	.db #0x08	; 8
      000560 C2                    1264 	.db #0xc2	; 194
      000561 06                    1265 	.db #0x06	; 6
      000562 08                    1266 	.db #0x08	; 8
      000563 10                    1267 	.db #0x10	; 16
      000564 D3                    1268 	.db #0xd3	; 211
      000565 00                    1269 	.db #0x00	; 0
      000566 11                    1270 	.db #0x11	; 17
      000567 12                    1271 	.db #0x12	; 18
      000568 0A                    1272 	.db #0x0a	; 10
      000569 08                    1273 	.db #0x08	; 8
      00056A 06                    1274 	.db #0x06	; 6
      00056B 08                    1275 	.db #0x08	; 8
      00056C 06                    1276 	.db #0x06	; 6
      00056D 08                    1277 	.db #0x08	; 8
      00056E 13                    1278 	.db #0x13	; 19
      00056F 14                    1279 	.db #0x14	; 20
      000570 15                    1280 	.db #0x15	; 21
      000571 07                    1281 	.db #0x07	; 7
      000572 16                    1282 	.db #0x16	; 22
      000573 C5                    1283 	.db #0xc5	; 197
      000574 00                    1284 	.db #0x00	; 0
      000575 17                    1285 	.db #0x17	; 23
      000576 18                    1286 	.db #0x18	; 24
      000577 19                    1287 	.db #0x19	; 25
      000578 C2                    1288 	.db #0xc2	; 194
      000579 1A                    1289 	.db #0x1a	; 26
      00057A 1B                    1290 	.db #0x1b	; 27
      00057B C6                    1291 	.db #0xc6	; 198
      00057C 00                    1292 	.db #0x00	; 0
      00057D 1C                    1293 	.db #0x1c	; 28
      00057E 1D                    1294 	.db #0x1d	; 29
      00057F C2                    1295 	.db #0xc2	; 194
      000580 00                    1296 	.db #0x00	; 0
      000581 1E                    1297 	.db #0x1e	; 30
      000582 1F                    1298 	.db #0x1f	; 31
      000583 20                    1299 	.db #0x20	; 32
      000584 21                    1300 	.db #0x21	; 33
      000585 22                    1301 	.db #0x22	; 34
      000586 23                    1302 	.db #0x23	; 35
      000587 24                    1303 	.db #0x24	; 36
      000588 08                    1304 	.db #0x08	; 8
      000589 25                    1305 	.db #0x25	; 37
      00058A C5                    1306 	.db #0xc5	; 197
      00058B 00                    1307 	.db #0x00	; 0
      00058C 26                    1308 	.db #0x26	; 38
      00058D C2                    1309 	.db #0xc2	; 194
      00058E 27                    1310 	.db #0x27	; 39
      00058F 28                    1311 	.db #0x28	; 40
      000590 27                    1312 	.db #0x27	; 39
      000591 29                    1313 	.db #0x29	; 41
      000592 C6                    1314 	.db #0xc6	; 198
      000593 00                    1315 	.db #0x00	; 0
      000594 2A                    1316 	.db #0x2a	; 42
      000595 2B                    1317 	.db #0x2b	; 43
      000596 0A                    1318 	.db #0x0a	; 10
      000597 07                    1319 	.db #0x07	; 7
      000598 16                    1320 	.db #0x16	; 22
      000599 2C                    1321 	.db #0x2c	; 44
      00059A 2D                    1322 	.db #0x2d	; 45
      00059B 2E                    1323 	.db #0x2e	; 46
      00059C 2F                    1324 	.db #0x2f	; 47
      00059D 30                    1325 	.db #0x30	; 48	'0'
      00059E D4                    1326 	.db #0xd4	; 212
      00059F 00                    1327 	.db #0x00	; 0
      0005A0 31                    1328 	.db #0x31	; 49	'1'
      0005A1 32                    1329 	.db #0x32	; 50	'2'
      0005A2 0C                    1330 	.db #0x0c	; 12
      0005A3 08                    1331 	.db #0x08	; 8
      0005A4 25                    1332 	.db #0x25	; 37
      0005A5 33                    1333 	.db #0x33	; 51	'3'
      0005A6 34                    1334 	.db #0x34	; 52	'4'
      0005A7 35                    1335 	.db #0x35	; 53	'5'
      0005A8 36                    1336 	.db #0x36	; 54	'6'
      0005A9 D5                    1337 	.db #0xd5	; 213
      0005AA 00                    1338 	.db #0x00	; 0
      0005AB 37                    1339 	.db #0x37	; 55	'7'
      0005AC 38                    1340 	.db #0x38	; 56	'8'
      0005AD C3                    1341 	.db #0xc3	; 195
      0005AE 00                    1342 	.db #0x00	; 0
      0005AF 39                    1343 	.db #0x39	; 57	'9'
      0005B0 3A                    1344 	.db #0x3a	; 58
      0005B1 3B                    1345 	.db #0x3b	; 59
      0005B2 D6                    1346 	.db #0xd6	; 214
      0005B3 00                    1347 	.db #0x00	; 0
      0005B4 3C                    1348 	.db #0x3c	; 60
      0005B5 3D                    1349 	.db #0x3d	; 61
      0005B6 C3                    1350 	.db #0xc3	; 195
      0005B7 00                    1351 	.db #0x00	; 0
      0005B8 3E                    1352 	.db #0x3e	; 62
      0005B9 3F                    1353 	.db #0x3f	; 63
      0005BA 40                    1354 	.db #0x40	; 64
      0005BB D6                    1355 	.db #0xd6	; 214
      0005BC 00                    1356 	.db #0x00	; 0
      0005BD 41                    1357 	.db #0x41	; 65	'A'
      0005BE 42                    1358 	.db #0x42	; 66	'B'
      0005BF 43                    1359 	.db #0x43	; 67	'C'
      0005C0 00                    1360 	.db #0x00	; 0
      0005C1 44                    1361 	.db #0x44	; 68	'D'
      0005C2 45                    1362 	.db #0x45	; 69	'E'
      0005C3 46                    1363 	.db #0x46	; 70	'F'
      0005C4 47                    1364 	.db #0x47	; 71	'G'
      0005C5 48                    1365 	.db #0x48	; 72	'H'
      0005C6 49                    1366 	.db #0x49	; 73	'I'
      0005C7 4A                    1367 	.db #0x4a	; 74	'J'
      0005C8 4B                    1368 	.db #0x4b	; 75	'K'
      0005C9 C6                    1369 	.db #0xc6	; 198
      0005CA 00                    1370 	.db #0x00	; 0
      0005CB 4C                    1371 	.db #0x4c	; 76	'L'
      0005CC 4D                    1372 	.db #0x4d	; 77	'M'
      0005CD 4E                    1373 	.db #0x4e	; 78	'N'
      0005CE C9                    1374 	.db #0xc9	; 201
      0005CF 00                    1375 	.db #0x00	; 0
      0005D0 4F                    1376 	.db #0x4f	; 79	'O'
      0005D1 50                    1377 	.db #0x50	; 80	'P'
      0005D2 51                    1378 	.db #0x51	; 81	'Q'
      0005D3 52                    1379 	.db #0x52	; 82	'R'
      0005D4 53                    1380 	.db #0x53	; 83	'S'
      0005D5 54                    1381 	.db #0x54	; 84	'T'
      0005D6 53                    1382 	.db #0x53	; 83	'S'
      0005D7 54                    1383 	.db #0x54	; 84	'T'
      0005D8 53                    1384 	.db #0x53	; 83	'S'
      0005D9 52                    1385 	.db #0x52	; 82	'R'
      0005DA 55                    1386 	.db #0x55	; 85	'U'
      0005DB 56                    1387 	.db #0x56	; 86	'V'
      0005DC C6                    1388 	.db #0xc6	; 198
      0005DD 00                    1389 	.db #0x00	; 0
      0005DE 57                    1390 	.db #0x57	; 87	'W'
      0005DF 58                    1391 	.db #0x58	; 88	'X'
      0005E0 59                    1392 	.db #0x59	; 89	'Y'
      0005E1 5A                    1393 	.db #0x5a	; 90	'Z'
      0005E2 C8                    1394 	.db #0xc8	; 200
      0005E3 00                    1395 	.db #0x00	; 0
      0005E4 5B                    1396 	.db #0x5b	; 91
      0005E5 5C                    1397 	.db #0x5c	; 92
      0005E6 5D                    1398 	.db #0x5d	; 93
      0005E7 5E                    1399 	.db #0x5e	; 94
      0005E8 5F                    1400 	.db #0x5f	; 95
      0005E9 60                    1401 	.db #0x60	; 96
      0005EA 1C                    1402 	.db #0x1c	; 28
      0005EB 61                    1403 	.db #0x61	; 97	'a'
      0005EC 62                    1404 	.db #0x62	; 98	'b'
      0005ED 63                    1405 	.db #0x63	; 99	'c'
      0005EE 0E                    1406 	.db #0x0e	; 14
      0005EF 0F                    1407 	.db #0x0f	; 15
      0005F0 64                    1408 	.db #0x64	; 100	'd'
      0005F1 65                    1409 	.db #0x65	; 101	'e'
      0005F2 66                    1410 	.db #0x66	; 102	'f'
      0005F3 65                    1411 	.db #0x65	; 101	'e'
      0005F4 66                    1412 	.db #0x66	; 102	'f'
      0005F5 67                    1413 	.db #0x67	; 103	'g'
      0005F6 68                    1414 	.db #0x68	; 104	'h'
      0005F7 69                    1415 	.db #0x69	; 105	'i'
      0005F8 6A                    1416 	.db #0x6a	; 106	'j'
      0005F9 6B                    1417 	.db #0x6b	; 107	'k'
      0005FA 1D                    1418 	.db #0x1d	; 29
      0005FB C4                    1419 	.db #0xc4	; 196
      0005FC 00                    1420 	.db #0x00	; 0
      0005FD 64                    1421 	.db #0x64	; 100	'd'
      0005FE 65                    1422 	.db #0x65	; 101	'e'
      0005FF 66                    1423 	.db #0x66	; 102	'f'
      000600 6C                    1424 	.db #0x6c	; 108	'l'
      000601 6D                    1425 	.db #0x6d	; 109	'm'
      000602 6E                    1426 	.db #0x6e	; 110	'n'
      000603 0B                    1427 	.db #0x0b	; 11
      000604 00                    1428 	.db #0x00	; 0
      000605 6F                    1429 	.db #0x6f	; 111	'o'
      000606 2A                    1430 	.db #0x2a	; 42
      000607 2B                    1431 	.db #0x2b	; 43
      000608 70                    1432 	.db #0x70	; 112	'p'
      000609 71                    1433 	.db #0x71	; 113	'q'
      00060A 11                    1434 	.db #0x11	; 17
      00060B 12                    1435 	.db #0x12	; 18
      00060C 5E                    1436 	.db #0x5e	; 94
      00060D 5F                    1437 	.db #0x5f	; 95
      00060E 62                    1438 	.db #0x62	; 98	'b'
      00060F 63                    1439 	.db #0x63	; 99	'c'
      000610 0B                    1440 	.db #0x0b	; 11
      000611 72                    1441 	.db #0x72	; 114	'r'
      000612 73                    1442 	.db #0x73	; 115	's'
      000613 74                    1443 	.db #0x74	; 116	't'
      000614 75                    1444 	.db #0x75	; 117	'u'
      000615 76                    1445 	.db #0x76	; 118	'v'
      000616 77                    1446 	.db #0x77	; 119	'w'
      000617 C4                    1447 	.db #0xc4	; 196
      000618 00                    1448 	.db #0x00	; 0
      000619 78                    1449 	.db #0x78	; 120	'x'
      00061A C2                    1450 	.db #0xc2	; 194
      00061B 54                    1451 	.db #0x54	; 84	'T'
      00061C                       1452 _room_0_0_coll:
      00061C 5B 00                 1453 	.dw #0x005b
      00061E FF                    1454 	.db #0xff	; 255
      00061F 00                    1455 	.db #0x00	; 0
      000620 DB                    1456 	.db #0xdb	; 219
      000621 00                    1457 	.db #0x00	; 0
      000622 C2                    1458 	.db #0xc2	; 194
      000623 01                    1459 	.db #0x01	; 1
      000624 DC                    1460 	.db #0xdc	; 220
      000625 00                    1461 	.db #0x00	; 0
      000626 C2                    1462 	.db #0xc2	; 194
      000627 01                    1463 	.db #0x01	; 1
      000628 DC                    1464 	.db #0xdc	; 220
      000629 00                    1465 	.db #0x00	; 0
      00062A C2                    1466 	.db #0xc2	; 194
      00062B 01                    1467 	.db #0x01	; 1
      00062C DC                    1468 	.db #0xdc	; 220
      00062D 00                    1469 	.db #0x00	; 0
      00062E C2                    1470 	.db #0xc2	; 194
      00062F 01                    1471 	.db #0x01	; 1
      000630 DC                    1472 	.db #0xdc	; 220
      000631 00                    1473 	.db #0x00	; 0
      000632 C2                    1474 	.db #0xc2	; 194
      000633 01                    1475 	.db #0x01	; 1
      000634 D0                    1476 	.db #0xd0	; 208
      000635 00                    1477 	.db #0x00	; 0
      000636 C6                    1478 	.db #0xc6	; 198
      000637 05                    1479 	.db #0x05	; 5
      000638 C6                    1480 	.db #0xc6	; 198
      000639 00                    1481 	.db #0x00	; 0
      00063A C2                    1482 	.db #0xc2	; 194
      00063B 01                    1483 	.db #0x01	; 1
      00063C D0                    1484 	.db #0xd0	; 208
      00063D 00                    1485 	.db #0x00	; 0
      00063E C6                    1486 	.db #0xc6	; 198
      00063F 05                    1487 	.db #0x05	; 5
      000640 C6                    1488 	.db #0xc6	; 198
      000641 00                    1489 	.db #0x00	; 0
      000642 C2                    1490 	.db #0xc2	; 194
      000643 01                    1491 	.db #0x01	; 1
      000644 C6                    1492 	.db #0xc6	; 198
      000645 00                    1493 	.db #0x00	; 0
      000646 02                    1494 	.db #0x02	; 2
      000647 01                    1495 	.db #0x01	; 1
      000648 D4                    1496 	.db #0xd4	; 212
      000649 00                    1497 	.db #0x00	; 0
      00064A C2                    1498 	.db #0xc2	; 194
      00064B 01                    1499 	.db #0x01	; 1
      00064C DC                    1500 	.db #0xdc	; 220
      00064D 00                    1501 	.db #0x00	; 0
      00064E C2                    1502 	.db #0xc2	; 194
      00064F 01                    1503 	.db #0x01	; 1
      000650 DC                    1504 	.db #0xdc	; 220
      000651 00                    1505 	.db #0x00	; 0
      000652 C2                    1506 	.db #0xc2	; 194
      000653 01                    1507 	.db #0x01	; 1
      000654 DC                    1508 	.db #0xdc	; 220
      000655 00                    1509 	.db #0x00	; 0
      000656 C3                    1510 	.db #0xc3	; 195
      000657 01                    1511 	.db #0x01	; 1
      000658 D0                    1512 	.db #0xd0	; 208
      000659 00                    1513 	.db #0x00	; 0
      00065A C2                    1514 	.db #0xc2	; 194
      00065B 02                    1515 	.db #0x02	; 2
      00065C C9                    1516 	.db #0xc9	; 201
      00065D 00                    1517 	.db #0x00	; 0
      00065E C3                    1518 	.db #0xc3	; 195
      00065F 01                    1519 	.db #0x01	; 1
      000660 CF                    1520 	.db #0xcf	; 207
      000661 00                    1521 	.db #0x00	; 0
      000662 02                    1522 	.db #0x02	; 2
      000663 C2                    1523 	.db #0xc2	; 194
      000664 01                    1524 	.db #0x01	; 1
      000665 02                    1525 	.db #0x02	; 2
      000666 C8                    1526 	.db #0xc8	; 200
      000667 00                    1527 	.db #0x00	; 0
      000668 CB                    1528 	.db #0xcb	; 203
      000669 01                    1529 	.db #0x01	; 1
      00066A 02                    1530 	.db #0x02	; 2
      00066B C5                    1531 	.db #0xc5	; 197
      00066C 00                    1532 	.db #0x00	; 0
      00066D 02                    1533 	.db #0x02	; 2
      00066E C4                    1534 	.db #0xc4	; 196
      00066F 01                    1535 	.db #0x01	; 1
      000670 02                    1536 	.db #0x02	; 2
      000671 C7                    1537 	.db #0xc7	; 199
      000672 00                    1538 	.db #0x00	; 0
      000673 D7                    1539 	.db #0xd7	; 215
      000674 01                    1540 	.db #0x01	; 1
      000675 C4                    1541 	.db #0xc4	; 196
      000676 00                    1542 	.db #0x00	; 0
      000677 C3                    1543 	.db #0xc3	; 195
      000678 01                    1544 	.db #0x01	; 1
      000679                       1545 _room_0_0_tiles:
      000679 79                    1546 	.db #0x79	; 121	'y'
      00067A 00                    1547 	.db #0x00	; 0
      00067B 02                    1548 	.db #0x02	; 2
      00067C 00                    1549 	.db #0x00	; 0
      00067D 00                    1550 	.db #0x00	; 0
      00067E 00                    1551 	.db #0x00	; 0
      00067F 00                    1552 	.db #0x00	; 0
      000680 06                    1553 	.db #0x06	; 6
      000681 1D                    1554 	.db #0x1d	; 29
      000682 82                    1555 	.db #0x82	; 130
      000683 70                    1556 	.db #0x70	; 112	'p'
      000684 02                    1557 	.db #0x02	; 2
      000685 00                    1558 	.db #0x00	; 0
      000686 00                    1559 	.db #0x00	; 0
      000687 00                    1560 	.db #0x00	; 0
      000688 00                    1561 	.db #0x00	; 0
      000689 30                    1562 	.db #0x30	; 48	'0'
      00068A 60                    1563 	.db #0x60	; 96
      00068B 4C                    1564 	.db #0x4c	; 76	'L'
      00068C 1A                    1565 	.db #0x1a	; 26
      00068D 02                    1566 	.db #0x02	; 2
      00068E 00                    1567 	.db #0x00	; 0
      00068F 00                    1568 	.db #0x00	; 0
      000690 00                    1569 	.db #0x00	; 0
      000691 00                    1570 	.db #0x00	; 0
      000692 03                    1571 	.db #0x03	; 3
      000693 10                    1572 	.db #0x10	; 16
      000694 2E                    1573 	.db #0x2e	; 46
      000695 19                    1574 	.db #0x19	; 25
      000696 02                    1575 	.db #0x02	; 2
      000697 03                    1576 	.db #0x03	; 3
      000698 0E                    1577 	.db #0x0e	; 14
      000699 41                    1578 	.db #0x41	; 65	'A'
      00069A B8                    1579 	.db #0xb8	; 184
      00069B 64                    1580 	.db #0x64	; 100	'd'
      00069C 51                    1581 	.db #0x51	; 81	'Q'
      00069D 01                    1582 	.db #0x01	; 1
      00069E CE                    1583 	.db #0xce	; 206
      00069F 02                    1584 	.db #0x02	; 2
      0006A0 28                    1585 	.db #0x28	; 40
      0006A1 00                    1586 	.db #0x00	; 0
      0006A2 68                    1587 	.db #0x68	; 104	'h'
      0006A3 B0                    1588 	.db #0xb0	; 176
      0006A4 92                    1589 	.db #0x92	; 146
      0006A5 0D                    1590 	.db #0x0d	; 13
      0006A6 EA                    1591 	.db #0xea	; 234
      0006A7 40                    1592 	.db #0x40	; 64
      0006A8 02                    1593 	.db #0x02	; 2
      0006A9 91                    1594 	.db #0x91	; 145
      0006AA 04                    1595 	.db #0x04	; 4
      0006AB 30                    1596 	.db #0x30	; 48	'0'
      0006AC 6E                    1597 	.db #0x6e	; 110	'n'
      0006AD 59                    1598 	.db #0x59	; 89	'Y'
      0006AE 94                    1599 	.db #0x94	; 148
      0006AF 2C                    1600 	.db #0x2c	; 44
      0006B0 D1                    1601 	.db #0xd1	; 209
      0006B1 02                    1602 	.db #0x02	; 2
      0006B2 64                    1603 	.db #0x64	; 100	'd'
      0006B3 CB                    1604 	.db #0xcb	; 203
      0006B4 9D                    1605 	.db #0x9d	; 157
      0006B5 08                    1606 	.db #0x08	; 8
      0006B6 66                    1607 	.db #0x66	; 102	'f'
      0006B7 CD                    1608 	.db #0xcd	; 205
      0006B8 8A                    1609 	.db #0x8a	; 138
      0006B9 35                    1610 	.db #0x35	; 53	'5'
      0006BA 02                    1611 	.db #0x02	; 2
      0006BB 32                    1612 	.db #0x32	; 50	'2'
      0006BC A0                    1613 	.db #0xa0	; 160
      0006BD 06                    1614 	.db #0x06	; 6
      0006BE 8D                    1615 	.db #0x8d	; 141
      0006BF 4B                    1616 	.db #0x4b	; 75	'K'
      0006C0 92                    1617 	.db #0x92	; 146
      0006C1 A5                    1618 	.db #0xa5	; 165
      0006C2 52                    1619 	.db #0x52	; 82	'R'
      0006C3 02                    1620 	.db #0x02	; 2
      0006C4 51                    1621 	.db #0x51	; 81	'Q'
      0006C5 86                    1622 	.db #0x86	; 134
      0006C6 49                    1623 	.db #0x49	; 73	'I'
      0006C7 33                    1624 	.db #0x33	; 51	'3'
      0006C8 68                    1625 	.db #0x68	; 104	'h'
      0006C9 59                    1626 	.db #0x59	; 89	'Y'
      0006CA 32                    1627 	.db #0x32	; 50	'2'
      0006CB 27                    1628 	.db #0x27	; 39
      0006CC 02                    1629 	.db #0x02	; 2
      0006CD 05                    1630 	.db #0x05	; 5
      0006CE 03                    1631 	.db #0x03	; 3
      0006CF 02                    1632 	.db #0x02	; 2
      0006D0 18                    1633 	.db #0x18	; 24
      0006D1 16                    1634 	.db #0x16	; 22
      0006D2 0C                    1635 	.db #0x0c	; 12
      0006D3 08                    1636 	.db #0x08	; 8
      0006D4 03                    1637 	.db #0x03	; 3
      0006D5 03                    1638 	.db #0x03	; 3
      0006D6 F8                    1639 	.db #0xf8	; 248
      0006D7 FC                    1640 	.db #0xfc	; 252
      0006D8 D6                    1641 	.db #0xd6	; 214
      0006D9 A1                    1642 	.db #0xa1	; 161
      0006DA 55                    1643 	.db #0x55	; 85	'U'
      0006DB 81                    1644 	.db #0x81	; 129
      0006DC 51                    1645 	.db #0x51	; 81	'Q'
      0006DD 82                    1646 	.db #0x82	; 130
      0006DE 02                    1647 	.db #0x02	; 2
      0006DF 16                    1648 	.db #0x16	; 22
      0006E0 0C                    1649 	.db #0x0c	; 12
      0006E1 09                    1650 	.db #0x09	; 9
      0006E2 03                    1651 	.db #0x03	; 3
      0006E3 0A                    1652 	.db #0x0a	; 10
      0006E4 04                    1653 	.db #0x04	; 4
      0006E5 01                    1654 	.db #0x01	; 1
      0006E6 00                    1655 	.db #0x00	; 0
      0006E7 02                    1656 	.db #0x02	; 2
      0006E8 97                    1657 	.db #0x97	; 151
      0006E9 3A                    1658 	.db #0x3a	; 58
      0006EA 11                    1659 	.db #0x11	; 17
      0006EB CC                    1660 	.db #0xcc	; 204
      0006EC 9B                    1661 	.db #0x9b	; 155
      0006ED 15                    1662 	.db #0x15	; 21
      0006EE 68                    1663 	.db #0x68	; 104	'h'
      0006EF 48                    1664 	.db #0x48	; 72	'H'
      0006F0 03                    1665 	.db #0x03	; 3
      0006F1 F0                    1666 	.db #0xf0	; 240
      0006F2 FE                    1667 	.db #0xfe	; 254
      0006F3 ED                    1668 	.db #0xed	; 237
      0006F4 BE                    1669 	.db #0xbe	; 190
      0006F5 D5                    1670 	.db #0xd5	; 213
      0006F6 A8                    1671 	.db #0xa8	; 168
      0006F7 17                    1672 	.db #0x17	; 23
      0006F8 EA                    1673 	.db #0xea	; 234
      0006F9 03                    1674 	.db #0x03	; 3
      0006FA 00                    1675 	.db #0x00	; 0
      0006FB 00                    1676 	.db #0x00	; 0
      0006FC 80                    1677 	.db #0x80	; 128
      0006FD E0                    1678 	.db #0xe0	; 224
      0006FE 50                    1679 	.db #0x50	; 80	'P'
      0006FF 88                    1680 	.db #0x88	; 136
      000700 24                    1681 	.db #0x24	; 36
      000701 82                    1682 	.db #0x82	; 130
      000702 02                    1683 	.db #0x02	; 2
      000703 A1                    1684 	.db #0xa1	; 161
      000704 50                    1685 	.db #0x50	; 80	'P'
      000705 00                    1686 	.db #0x00	; 0
      000706 D0                    1687 	.db #0xd0	; 208
      000707 60                    1688 	.db #0x60	; 96
      000708 20                    1689 	.db #0x20	; 32
      000709 18                    1690 	.db #0x18	; 24
      00070A D0                    1691 	.db #0xd0	; 208
      00070B 03                    1692 	.db #0x03	; 3
      00070C 44                    1693 	.db #0x44	; 68	'D'
      00070D 88                    1694 	.db #0x88	; 136
      00070E 42                    1695 	.db #0x42	; 66	'B'
      00070F 80                    1696 	.db #0x80	; 128
      000710 00                    1697 	.db #0x00	; 0
      000711 00                    1698 	.db #0x00	; 0
      000712 00                    1699 	.db #0x00	; 0
      000713 FF                    1700 	.db #0xff	; 255
      000714 03                    1701 	.db #0x03	; 3
      000715 51                    1702 	.db #0x51	; 81	'Q'
      000716 81                    1703 	.db #0x81	; 129
      000717 01                    1704 	.db #0x01	; 1
      000718 01                    1705 	.db #0x01	; 1
      000719 02                    1706 	.db #0x02	; 2
      00071A 04                    1707 	.db #0x04	; 4
      00071B 38                    1708 	.db #0x38	; 56	'8'
      00071C C0                    1709 	.db #0xc0	; 192
      00071D 02                    1710 	.db #0x02	; 2
      00071E 98                    1711 	.db #0x98	; 152
      00071F 37                    1712 	.db #0x37	; 55	'7'
      000720 AC                    1713 	.db #0xac	; 172
      000721 4A                    1714 	.db #0x4a	; 74	'J'
      000722 16                    1715 	.db #0x16	; 22
      000723 08                    1716 	.db #0x08	; 8
      000724 01                    1717 	.db #0x01	; 1
      000725 00                    1718 	.db #0x00	; 0
      000726 02                    1719 	.db #0x02	; 2
      000727 4E                    1720 	.db #0x4e	; 78	'N'
      000728 04                    1721 	.db #0x04	; 4
      000729 B3                    1722 	.db #0xb3	; 179
      00072A 66                    1723 	.db #0x66	; 102	'f'
      00072B 45                    1724 	.db #0x45	; 69	'E'
      00072C 9A                    1725 	.db #0x9a	; 154
      00072D 52                    1726 	.db #0x52	; 82	'R'
      00072E 40                    1727 	.db #0x40	; 64
      00072F 02                    1728 	.db #0x02	; 2
      000730 80                    1729 	.db #0x80	; 128
      000731 40                    1730 	.db #0x40	; 64
      000732 20                    1731 	.db #0x20	; 32
      000733 C0                    1732 	.db #0xc0	; 192
      000734 41                    1733 	.db #0x41	; 65	'A'
      000735 00                    1734 	.db #0x00	; 0
      000736 02                    1735 	.db #0x02	; 2
      000737 00                    1736 	.db #0x00	; 0
      000738 02                    1737 	.db #0x02	; 2
      000739 90                    1738 	.db #0x90	; 144
      00073A 68                    1739 	.db #0x68	; 104	'h'
      00073B 9C                    1740 	.db #0x9c	; 156
      00073C 04                    1741 	.db #0x04	; 4
      00073D 68                    1742 	.db #0x68	; 104	'h'
      00073E 96                    1743 	.db #0x96	; 150
      00073F 42                    1744 	.db #0x42	; 66	'B'
      000740 98                    1745 	.db #0x98	; 152
      000741 01                    1746 	.db #0x01	; 1
      000742 00                    1747 	.db #0x00	; 0
      000743 00                    1748 	.db #0x00	; 0
      000744 00                    1749 	.db #0x00	; 0
      000745 00                    1750 	.db #0x00	; 0
      000746 00                    1751 	.db #0x00	; 0
      000747 03                    1752 	.db #0x03	; 3
      000748 07                    1753 	.db #0x07	; 7
      000749 1F                    1754 	.db #0x1f	; 31
      00074A 01                    1755 	.db #0x01	; 1
      00074B 00                    1756 	.db #0x00	; 0
      00074C 1D                    1757 	.db #0x1d	; 29
      00074D 3F                    1758 	.db #0x3f	; 63
      00074E 3F                    1759 	.db #0x3f	; 63
      00074F 17                    1760 	.db #0x17	; 23
      000750 2F                    1761 	.db #0x2f	; 47
      000751 DB                    1762 	.db #0xdb	; 219
      000752 B5                    1763 	.db #0xb5	; 181
      000753 01                    1764 	.db #0x01	; 1
      000754 18                    1765 	.db #0x18	; 24
      000755 7C                    1766 	.db #0x7c	; 124
      000756 FE                    1767 	.db #0xfe	; 254
      000757 FE                    1768 	.db #0xfe	; 254
      000758 7C                    1769 	.db #0x7c	; 124
      000759 FB                    1770 	.db #0xfb	; 251
      00075A F5                    1771 	.db #0xf5	; 245
      00075B EF                    1772 	.db #0xef	; 239
      00075C 01                    1773 	.db #0x01	; 1
      00075D 00                    1774 	.db #0x00	; 0
      00075E B8                    1775 	.db #0xb8	; 184
      00075F FC                    1776 	.db #0xfc	; 252
      000760 FC                    1777 	.db #0xfc	; 252
      000761 E8                    1778 	.db #0xe8	; 232
      000762 F4                    1779 	.db #0xf4	; 244
      000763 DB                    1780 	.db #0xdb	; 219
      000764 AD                    1781 	.db #0xad	; 173
      000765 01                    1782 	.db #0x01	; 1
      000766 00                    1783 	.db #0x00	; 0
      000767 00                    1784 	.db #0x00	; 0
      000768 00                    1785 	.db #0x00	; 0
      000769 00                    1786 	.db #0x00	; 0
      00076A 00                    1787 	.db #0x00	; 0
      00076B C0                    1788 	.db #0xc0	; 192
      00076C E0                    1789 	.db #0xe0	; 224
      00076D F8                    1790 	.db #0xf8	; 248
      00076E 03                    1791 	.db #0x03	; 3
      00076F 00                    1792 	.db #0x00	; 0
      000770 FE                    1793 	.db #0xfe	; 254
      000771 FF                    1794 	.db #0xff	; 255
      000772 EA                    1795 	.db #0xea	; 234
      000773 FD                    1796 	.db #0xfd	; 253
      000774 EA                    1797 	.db #0xea	; 234
      000775 5D                    1798 	.db #0x5d	; 93
      000776 E2                    1799 	.db #0xe2	; 226
      000777 03                    1800 	.db #0x03	; 3
      000778 00                    1801 	.db #0x00	; 0
      000779 C0                    1802 	.db #0xc0	; 192
      00077A 60                    1803 	.db #0x60	; 96
      00077B B0                    1804 	.db #0xb0	; 176
      00077C 58                    1805 	.db #0x58	; 88	'X'
      00077D A8                    1806 	.db #0xa8	; 168
      00077E 54                    1807 	.db #0x54	; 84	'T'
      00077F 8C                    1808 	.db #0x8c	; 140
      000780 04                    1809 	.db #0x04	; 4
      000781 00                    1810 	.db #0x00	; 0
      000782 D0                    1811 	.db #0xd0	; 208
      000783 05                    1812 	.db #0x05	; 5
      000784 95                    1813 	.db #0x95	; 149
      000785 0F                    1814 	.db #0x0f	; 15
      000786 0F                    1815 	.db #0x0f	; 15
      000787 07                    1816 	.db #0x07	; 7
      000788 07                    1817 	.db #0x07	; 7
      000789 01                    1818 	.db #0x01	; 1
      00078A 01                    1819 	.db #0x01	; 1
      00078B 06                    1820 	.db #0x06	; 6
      00078C 06                    1821 	.db #0x06	; 6
      00078D 08                    1822 	.db #0x08	; 8
      00078E 08                    1823 	.db #0x08	; 8
      00078F 00                    1824 	.db #0x00	; 0
      000790 20                    1825 	.db #0x20	; 32
      000791 04                    1826 	.db #0x04	; 4
      000792 28                    1827 	.db #0x28	; 40
      000793 2A                    1828 	.db #0x2a	; 42
      000794 AC                    1829 	.db #0xac	; 172
      000795 AC                    1830 	.db #0xac	; 172
      000796 8E                    1831 	.db #0x8e	; 142
      000797 8E                    1832 	.db #0x8e	; 142
      000798 F6                    1833 	.db #0xf6	; 246
      000799 F6                    1834 	.db #0xf6	; 246
      00079A FD                    1835 	.db #0xfd	; 253
      00079B FD                    1836 	.db #0xfd	; 253
      00079C 1E                    1837 	.db #0x1e	; 30
      00079D 1E                    1838 	.db #0x1e	; 30
      00079E 1D                    1839 	.db #0x1d	; 29
      00079F 1D                    1840 	.db #0x1d	; 29
      0007A0 0E                    1841 	.db #0x0e	; 14
      0007A1 0E                    1842 	.db #0x0e	; 14
      0007A2 04                    1843 	.db #0x04	; 4
      0007A3 00                    1844 	.db #0x00	; 0
      0007A4 26                    1845 	.db #0x26	; 38
      0007A5 00                    1846 	.db #0x00	; 0
      0007A6 54                    1847 	.db #0x54	; 84	'T'
      0007A7 83                    1848 	.db #0x83	; 131
      0007A8 93                    1849 	.db #0x93	; 147
      0007A9 EB                    1850 	.db #0xeb	; 235
      0007AA EB                    1851 	.db #0xeb	; 235
      0007AB 6B                    1852 	.db #0x6b	; 107	'k'
      0007AC 6B                    1853 	.db #0x6b	; 107	'k'
      0007AD B7                    1854 	.db #0xb7	; 183
      0007AE B7                    1855 	.db #0xb7	; 183
      0007AF 57                    1856 	.db #0x57	; 87	'W'
      0007B0 57                    1857 	.db #0x57	; 87	'W'
      0007B1 CE                    1858 	.db #0xce	; 206
      0007B2 CE                    1859 	.db #0xce	; 206
      0007B3 04                    1860 	.db #0x04	; 4
      0007B4 2C                    1861 	.db #0x2c	; 44
      0007B5 AC                    1862 	.db #0xac	; 172
      0007B6 15                    1863 	.db #0x15	; 21
      0007B7 95                    1864 	.db #0x95	; 149
      0007B8 19                    1865 	.db #0x19	; 25
      0007B9 19                    1866 	.db #0x19	; 25
      0007BA 34                    1867 	.db #0x34	; 52	'4'
      0007BB 34                    1868 	.db #0x34	; 52	'4'
      0007BC 68                    1869 	.db #0x68	; 104	'h'
      0007BD 68                    1870 	.db #0x68	; 104	'h'
      0007BE 68                    1871 	.db #0x68	; 104	'h'
      0007BF 68                    1872 	.db #0x68	; 104	'h'
      0007C0 50                    1873 	.db #0x50	; 80	'P'
      0007C1 50                    1874 	.db #0x50	; 80	'P'
      0007C2 5D                    1875 	.db #0x5d	; 93
      0007C3 5D                    1876 	.db #0x5d	; 93
      0007C4 03                    1877 	.db #0x03	; 3
      0007C5 F0                    1878 	.db #0xf0	; 240
      0007C6 E0                    1879 	.db #0xe0	; 224
      0007C7 80                    1880 	.db #0x80	; 128
      0007C8 00                    1881 	.db #0x00	; 0
      0007C9 00                    1882 	.db #0x00	; 0
      0007CA 20                    1883 	.db #0x20	; 32
      0007CB C0                    1884 	.db #0xc0	; 192
      0007CC 00                    1885 	.db #0x00	; 0
      0007CD 03                    1886 	.db #0x03	; 3
      0007CE 00                    1887 	.db #0x00	; 0
      0007CF 00                    1888 	.db #0x00	; 0
      0007D0 00                    1889 	.db #0x00	; 0
      0007D1 00                    1890 	.db #0x00	; 0
      0007D2 00                    1891 	.db #0x00	; 0
      0007D3 00                    1892 	.db #0x00	; 0
      0007D4 00                    1893 	.db #0x00	; 0
      0007D5 01                    1894 	.db #0x01	; 1
      0007D6 04                    1895 	.db #0x04	; 4
      0007D7 00                    1896 	.db #0x00	; 0
      0007D8 06                    1897 	.db #0x06	; 6
      0007D9 00                    1898 	.db #0x00	; 0
      0007DA 03                    1899 	.db #0x03	; 3
      0007DB 00                    1900 	.db #0x00	; 0
      0007DC 06                    1901 	.db #0x06	; 6
      0007DD 00                    1902 	.db #0x00	; 0
      0007DE 01                    1903 	.db #0x01	; 1
      0007DF 00                    1904 	.db #0x00	; 0
      0007E0 00                    1905 	.db #0x00	; 0
      0007E1 08                    1906 	.db #0x08	; 8
      0007E2 09                    1907 	.db #0x09	; 9
      0007E3 70                    1908 	.db #0x70	; 112	'p'
      0007E4 73                    1909 	.db #0x73	; 115	's'
      0007E5 C0                    1910 	.db #0xc0	; 192
      0007E6 C0                    1911 	.db #0xc0	; 192
      0007E7 02                    1912 	.db #0x02	; 2
      0007E8 64                    1913 	.db #0x64	; 100	'd'
      0007E9 28                    1914 	.db #0x28	; 40
      0007EA 8C                    1915 	.db #0x8c	; 140
      0007EB 14                    1916 	.db #0x14	; 20
      0007EC 60                    1917 	.db #0x60	; 96
      0007ED 20                    1918 	.db #0x20	; 32
      0007EE 00                    1919 	.db #0x00	; 0
      0007EF 00                    1920 	.db #0x00	; 0
      0007F0 01                    1921 	.db #0x01	; 1
      0007F1 1F                    1922 	.db #0x1f	; 31
      0007F2 1F                    1923 	.db #0x1f	; 31
      0007F3 6B                    1924 	.db #0x6b	; 107	'k'
      0007F4 F5                    1925 	.db #0xf5	; 245
      0007F5 EF                    1926 	.db #0xef	; 239
      0007F6 7D                    1927 	.db #0x7d	; 125
      0007F7 AA                    1928 	.db #0xaa	; 170
      0007F8 40                    1929 	.db #0x40	; 64
      0007F9 01                    1930 	.db #0x01	; 1
      0007FA FB                    1931 	.db #0xfb	; 251
      0007FB B7                    1932 	.db #0xb7	; 183
      0007FC FA                    1933 	.db #0xfa	; 250
      0007FD D5                    1934 	.db #0xd5	; 213
      0007FE EB                    1935 	.db #0xeb	; 235
      0007FF 55                    1936 	.db #0x55	; 85	'U'
      000800 AE                    1937 	.db #0xae	; 174
      000801 44                    1938 	.db #0x44	; 68	'D'
      000802 01                    1939 	.db #0x01	; 1
      000803 FD                    1940 	.db #0xfd	; 253
      000804 FF                    1941 	.db #0xff	; 255
      000805 6D                    1942 	.db #0x6d	; 109	'm'
      000806 FB                    1943 	.db #0xfb	; 251
      000807 AE                    1944 	.db #0xae	; 174
      000808 55                    1945 	.db #0x55	; 85	'U'
      000809 AA                    1946 	.db #0xaa	; 170
      00080A 41                    1947 	.db #0x41	; 65	'A'
      00080B 01                    1948 	.db #0x01	; 1
      00080C F8                    1949 	.db #0xf8	; 248
      00080D F8                    1950 	.db #0xf8	; 248
      00080E D6                    1951 	.db #0xd6	; 214
      00080F AF                    1952 	.db #0xaf	; 175
      000810 F7                    1953 	.db #0xf7	; 247
      000811 BE                    1954 	.db #0xbe	; 190
      000812 55                    1955 	.db #0x55	; 85	'U'
      000813 02                    1956 	.db #0x02	; 2
      000814 03                    1957 	.db #0x03	; 3
      000815 47                    1958 	.db #0x47	; 71	'G'
      000816 AC                    1959 	.db #0xac	; 172
      000817 D5                    1960 	.db #0xd5	; 213
      000818 A2                    1961 	.db #0xa2	; 162
      000819 51                    1962 	.db #0x51	; 81	'Q'
      00081A 24                    1963 	.db #0x24	; 36
      00081B 51                    1964 	.db #0x51	; 81	'Q'
      00081C 04                    1965 	.db #0x04	; 4
      00081D 03                    1966 	.db #0x03	; 3
      00081E 42                    1967 	.db #0x42	; 66	'B'
      00081F 92                    1968 	.db #0x92	; 146
      000820 06                    1969 	.db #0x06	; 6
      000821 42                    1970 	.db #0x42	; 66	'B'
      000822 22                    1971 	.db #0x22	; 34
      000823 02                    1972 	.db #0x02	; 2
      000824 02                    1973 	.db #0x02	; 2
      000825 02                    1974 	.db #0x02	; 2
      000826 03                    1975 	.db #0x03	; 3
      000827 01                    1976 	.db #0x01	; 1
      000828 06                    1977 	.db #0x06	; 6
      000829 0F                    1978 	.db #0x0f	; 15
      00082A 0E                    1979 	.db #0x0e	; 14
      00082B 27                    1980 	.db #0x27	; 39
      00082C 11                    1981 	.db #0x11	; 17
      00082D 12                    1982 	.db #0x12	; 18
      00082E 0B                    1983 	.db #0x0b	; 11
      00082F 03                    1984 	.db #0x03	; 3
      000830 EC                    1985 	.db #0xec	; 236
      000831 CC                    1986 	.db #0xcc	; 204
      000832 65                    1987 	.db #0x65	; 101	'e'
      000833 69                    1988 	.db #0x69	; 105	'i'
      000834 62                    1989 	.db #0x62	; 98	'b'
      000835 71                    1990 	.db #0x71	; 113	'q'
      000836 7D                    1991 	.db #0x7d	; 125
      000837 0E                    1992 	.db #0x0e	; 14
      000838 03                    1993 	.db #0x03	; 3
      000839 74                    1994 	.db #0x74	; 116	't'
      00083A 88                    1995 	.db #0x88	; 136
      00083B 64                    1996 	.db #0x64	; 100	'd'
      00083C 78                    1997 	.db #0x78	; 120	'x'
      00083D CC                    1998 	.db #0xcc	; 204
      00083E 46                    1999 	.db #0x46	; 70	'F'
      00083F B2                    2000 	.db #0xb2	; 178
      000840 94                    2001 	.db #0x94	; 148
      000841 03                    2002 	.db #0x03	; 3
      000842 00                    2003 	.db #0x00	; 0
      000843 00                    2004 	.db #0x00	; 0
      000844 00                    2005 	.db #0x00	; 0
      000845 41                    2006 	.db #0x41	; 65	'A'
      000846 23                    2007 	.db #0x23	; 35
      000847 2E                    2008 	.db #0x2e	; 46
      000848 35                    2009 	.db #0x35	; 53	'5'
      000849 68                    2010 	.db #0x68	; 104	'h'
      00084A 03                    2011 	.db #0x03	; 3
      00084B 07                    2012 	.db #0x07	; 7
      00084C 1A                    2013 	.db #0x1a	; 26
      00084D 74                    2014 	.db #0x74	; 116	't'
      00084E A0                    2015 	.db #0xa0	; 160
      00084F 40                    2016 	.db #0x40	; 64
      000850 B8                    2017 	.db #0xb8	; 184
      000851 06                    2018 	.db #0x06	; 6
      000852 00                    2019 	.db #0x00	; 0
      000853 03                    2020 	.db #0x03	; 3
      000854 40                    2021 	.db #0x40	; 64
      000855 12                    2022 	.db #0x12	; 18
      000856 40                    2023 	.db #0x40	; 64
      000857 20                    2024 	.db #0x20	; 32
      000858 00                    2025 	.db #0x00	; 0
      000859 01                    2026 	.db #0x01	; 1
      00085A C2                    2027 	.db #0xc2	; 194
      00085B 3C                    2028 	.db #0x3c	; 60
      00085C 03                    2029 	.db #0x03	; 3
      00085D 04                    2030 	.db #0x04	; 4
      00085E 04                    2031 	.db #0x04	; 4
      00085F 08                    2032 	.db #0x08	; 8
      000860 30                    2033 	.db #0x30	; 48	'0'
      000861 C0                    2034 	.db #0xc0	; 192
      000862 00                    2035 	.db #0x00	; 0
      000863 00                    2036 	.db #0x00	; 0
      000864 00                    2037 	.db #0x00	; 0
      000865 03                    2038 	.db #0x03	; 3
      000866 1D                    2039 	.db #0x1d	; 29
      000867 1D                    2040 	.db #0x1d	; 29
      000868 39                    2041 	.db #0x39	; 57	'9'
      000869 33                    2042 	.db #0x33	; 51	'3'
      00086A 3B                    2043 	.db #0x3b	; 59
      00086B 3B                    2044 	.db #0x3b	; 59
      00086C 35                    2045 	.db #0x35	; 53	'5'
      00086D 1B                    2046 	.db #0x1b	; 27
      00086E 03                    2047 	.db #0x03	; 3
      00086F 86                    2048 	.db #0x86	; 134
      000870 B3                    2049 	.db #0xb3	; 179
      000871 93                    2050 	.db #0x93	; 147
      000872 C6                    2051 	.db #0xc6	; 198
      000873 E5                    2052 	.db #0xe5	; 229
      000874 F2                    2053 	.db #0xf2	; 242
      000875 E8                    2054 	.db #0xe8	; 232
      000876 70                    2055 	.db #0x70	; 112	'p'
      000877 03                    2056 	.db #0x03	; 3
      000878 C4                    2057 	.db #0xc4	; 196
      000879 A9                    2058 	.db #0xa9	; 169
      00087A D7                    2059 	.db #0xd7	; 215
      00087B E2                    2060 	.db #0xe2	; 226
      00087C 75                    2061 	.db #0x75	; 117	'u'
      00087D 62                    2062 	.db #0x62	; 98	'b'
      00087E 74                    2063 	.db #0x74	; 116	't'
      00087F 38                    2064 	.db #0x38	; 56	'8'
      000880 03                    2065 	.db #0x03	; 3
      000881 D0                    2066 	.db #0xd0	; 208
      000882 A0                    2067 	.db #0xa0	; 160
      000883 40                    2068 	.db #0x40	; 64
      000884 80                    2069 	.db #0x80	; 128
      000885 00                    2070 	.db #0x00	; 0
      000886 00                    2071 	.db #0x00	; 0
      000887 00                    2072 	.db #0x00	; 0
      000888 00                    2073 	.db #0x00	; 0
      000889 03                    2074 	.db #0x03	; 3
      00088A 01                    2075 	.db #0x01	; 1
      00088B 0F                    2076 	.db #0x0f	; 15
      00088C 3F                    2077 	.db #0x3f	; 63
      00088D FB                    2078 	.db #0xfb	; 251
      00088E FF                    2079 	.db #0xff	; 255
      00088F EA                    2080 	.db #0xea	; 234
      000890 FD                    2081 	.db #0xfd	; 253
      000891 EA                    2082 	.db #0xea	; 234
      000892 03                    2083 	.db #0x03	; 3
      000893 C0                    2084 	.db #0xc0	; 192
      000894 F0                    2085 	.db #0xf0	; 240
      000895 F8                    2086 	.db #0xf8	; 248
      000896 AC                    2087 	.db #0xac	; 172
      000897 F2                    2088 	.db #0xf2	; 242
      000898 A9                    2089 	.db #0xa9	; 169
      000899 D3                    2090 	.db #0xd3	; 211
      00089A A9                    2091 	.db #0xa9	; 169
      00089B 03                    2092 	.db #0x03	; 3
      00089C 0E                    2093 	.db #0x0e	; 14
      00089D 03                    2094 	.db #0x03	; 3
      00089E 05                    2095 	.db #0x05	; 5
      00089F 16                    2096 	.db #0x16	; 22
      0008A0 16                    2097 	.db #0x16	; 22
      0008A1 33                    2098 	.db #0x33	; 51	'3'
      0008A2 2B                    2099 	.db #0x2b	; 43
      0008A3 39                    2100 	.db #0x39	; 57	'9'
      0008A4 03                    2101 	.db #0x03	; 3
      0008A5 F8                    2102 	.db #0xf8	; 248
      0008A6 F9                    2103 	.db #0xf9	; 249
      0008A7 73                    2104 	.db #0x73	; 115	's'
      0008A8 F3                    2105 	.db #0xf3	; 243
      0008A9 B7                    2106 	.db #0xb7	; 183
      0008AA 67                    2107 	.db #0x67	; 103	'g'
      0008AB 97                    2108 	.db #0x97	; 151
      0008AC E5                    2109 	.db #0xe5	; 229
      0008AD 03                    2110 	.db #0x03	; 3
      0008AE 37                    2111 	.db #0x37	; 55	'7'
      0008AF 31                    2112 	.db #0x31	; 49	'1'
      0008B0 A2                    2113 	.db #0xa2	; 162
      0008B1 94                    2114 	.db #0x94	; 148
      0008B2 CC                    2115 	.db #0xcc	; 204
      0008B3 90                    2116 	.db #0x90	; 144
      0008B4 C4                    2117 	.db #0xc4	; 196
      0008B5 E0                    2118 	.db #0xe0	; 224
      0008B6 03                    2119 	.db #0x03	; 3
      0008B7 5D                    2120 	.db #0x5d	; 93
      0008B8 FA                    2121 	.db #0xfa	; 250
      0008B9 55                    2122 	.db #0x55	; 85	'U'
      0008BA AA                    2123 	.db #0xaa	; 170
      0008BB 71                    2124 	.db #0x71	; 113	'q'
      0008BC 2A                    2125 	.db #0x2a	; 42
      0008BD C4                    2126 	.db #0xc4	; 196
      0008BE 80                    2127 	.db #0x80	; 128
      0008BF 03                    2128 	.db #0x03	; 3
      0008C0 11                    2129 	.db #0x11	; 17
      0008C1 B5                    2130 	.db #0xb5	; 181
      0008C2 71                    2131 	.db #0x71	; 113	'q'
      0008C3 21                    2132 	.db #0x21	; 33
      0008C4 51                    2133 	.db #0x51	; 81	'Q'
      0008C5 82                    2134 	.db #0x82	; 130
      0008C6 42                    2135 	.db #0x42	; 66	'B'
      0008C7 02                    2136 	.db #0x02	; 2
      0008C8 03                    2137 	.db #0x03	; 3
      0008C9 3C                    2138 	.db #0x3c	; 60
      0008CA 3A                    2139 	.db #0x3a	; 58
      0008CB 3D                    2140 	.db #0x3d	; 61
      0008CC 77                    2141 	.db #0x77	; 119	'w'
      0008CD 7F                    2142 	.db #0x7f	; 127
      0008CE 75                    2143 	.db #0x75	; 117	'u'
      0008CF 77                    2144 	.db #0x77	; 119	'w'
      0008D0 F3                    2145 	.db #0xf3	; 243
      0008D1 03                    2146 	.db #0x03	; 3
      0008D2 D2                    2147 	.db #0xd2	; 210
      0008D3 79                    2148 	.db #0x79	; 121	'y'
      0008D4 35                    2149 	.db #0x35	; 53	'5'
      0008D5 9C                    2150 	.db #0x9c	; 156
      0008D6 DE                    2151 	.db #0xde	; 222
      0008D7 DC                    2152 	.db #0xdc	; 220
      0008D8 FA                    2153 	.db #0xfa	; 250
      0008D9 AE                    2154 	.db #0xae	; 174
      0008DA 03                    2155 	.db #0x03	; 3
      0008DB A4                    2156 	.db #0xa4	; 164
      0008DC E4                    2157 	.db #0xe4	; 228
      0008DD 4A                    2158 	.db #0x4a	; 74	'J'
      0008DE C6                    2159 	.db #0xc6	; 198
      0008DF CA                    2160 	.db #0xca	; 202
      0008E0 46                    2161 	.db #0x46	; 70	'F'
      0008E1 E6                    2162 	.db #0xe6	; 230
      0008E2 6B                    2163 	.db #0x6b	; 107	'k'
      0008E3 03                    2164 	.db #0x03	; 3
      0008E4 C8                    2165 	.db #0xc8	; 200
      0008E5 94                    2166 	.db #0x94	; 148
      0008E6 08                    2167 	.db #0x08	; 8
      0008E7 00                    2168 	.db #0x00	; 0
      0008E8 40                    2169 	.db #0x40	; 64
      0008E9 01                    2170 	.db #0x01	; 1
      0008EA 0E                    2171 	.db #0x0e	; 14
      0008EB F7                    2172 	.db #0xf7	; 247
      0008EC 03                    2173 	.db #0x03	; 3
      0008ED 04                    2174 	.db #0x04	; 4
      0008EE 04                    2175 	.db #0x04	; 4
      0008EF 09                    2176 	.db #0x09	; 9
      0008F0 12                    2177 	.db #0x12	; 18
      0008F1 62                    2178 	.db #0x62	; 98	'b'
      0008F2 82                    2179 	.db #0x82	; 130
      0008F3 01                    2180 	.db #0x01	; 1
      0008F4 FC                    2181 	.db #0xfc	; 252
      0008F5 03                    2182 	.db #0x03	; 3
      0008F6 60                    2183 	.db #0x60	; 96
      0008F7 F0                    2184 	.db #0xf0	; 240
      0008F8 B8                    2185 	.db #0xb8	; 184
      0008F9 5C                    2186 	.db #0x5c	; 92
      0008FA 2C                    2187 	.db #0x2c	; 44
      0008FB 54                    2188 	.db #0x54	; 84	'T'
      0008FC 08                    2189 	.db #0x08	; 8
      0008FD F0                    2190 	.db #0xf0	; 240
      0008FE 03                    2191 	.db #0x03	; 3
      0008FF 01                    2192 	.db #0x01	; 1
      000900 01                    2193 	.db #0x01	; 1
      000901 03                    2194 	.db #0x03	; 3
      000902 1F                    2195 	.db #0x1f	; 31
      000903 3C                    2196 	.db #0x3c	; 60
      000904 70                    2197 	.db #0x70	; 112	'p'
      000905 61                    2198 	.db #0x61	; 97	'a'
      000906 E3                    2199 	.db #0xe3	; 227
      000907 03                    2200 	.db #0x03	; 3
      000908 EF                    2201 	.db #0xef	; 239
      000909 D7                    2202 	.db #0xd7	; 215
      00090A 97                    2203 	.db #0x97	; 151
      00090B 93                    2204 	.db #0x93	; 147
      00090C 2F                    2205 	.db #0x2f	; 47
      00090D 3F                    2206 	.db #0x3f	; 63
      00090E FC                    2207 	.db #0xfc	; 252
      00090F C3                    2208 	.db #0xc3	; 195
      000910 03                    2209 	.db #0x03	; 3
      000911 7D                    2210 	.db #0x7d	; 125
      000912 7E                    2211 	.db #0x7e	; 126
      000913 9E                    2212 	.db #0x9e	; 158
      000914 AC                    2213 	.db #0xac	; 172
      000915 9C                    2214 	.db #0x9c	; 156
      000916 39                    2215 	.db #0x39	; 57	'9'
      000917 B8                    2216 	.db #0xb8	; 184
      000918 30                    2217 	.db #0x30	; 48	'0'
      000919 03                    2218 	.db #0x03	; 3
      00091A F6                    2219 	.db #0xf6	; 246
      00091B F9                    2220 	.db #0xf9	; 249
      00091C BA                    2221 	.db #0xba	; 186
      00091D BD                    2222 	.db #0xbd	; 189
      00091E CE                    2223 	.db #0xce	; 206
      00091F 57                    2224 	.db #0x57	; 87	'W'
      000920 5B                    2225 	.db #0x5b	; 91
      000921 B1                    2226 	.db #0xb1	; 177
      000922 03                    2227 	.db #0x03	; 3
      000923 C0                    2228 	.db #0xc0	; 192
      000924 E0                    2229 	.db #0xe0	; 224
      000925 70                    2230 	.db #0x70	; 112	'p'
      000926 98                    2231 	.db #0x98	; 152
      000927 38                    2232 	.db #0x38	; 56	'8'
      000928 14                    2233 	.db #0x14	; 20
      000929 C2                    2234 	.db #0xc2	; 194
      00092A B3                    2235 	.db #0xb3	; 179
      00092B 02                    2236 	.db #0x02	; 2
      00092C 00                    2237 	.db #0x00	; 0
      00092D 00                    2238 	.db #0x00	; 0
      00092E 00                    2239 	.db #0x00	; 0
      00092F 00                    2240 	.db #0x00	; 0
      000930 00                    2241 	.db #0x00	; 0
      000931 00                    2242 	.db #0x00	; 0
      000932 00                    2243 	.db #0x00	; 0
      000933 01                    2244 	.db #0x01	; 1
      000934 02                    2245 	.db #0x02	; 2
      000935 38                    2246 	.db #0x38	; 56	'8'
      000936 6C                    2247 	.db #0x6c	; 108	'l'
      000937 54                    2248 	.db #0x54	; 84	'T'
      000938 64                    2249 	.db #0x64	; 100	'd'
      000939 12                    2250 	.db #0x12	; 18
      00093A 7B                    2251 	.db #0x7b	; 123
      00093B C5                    2252 	.db #0xc5	; 197
      00093C BD                    2253 	.db #0xbd	; 189
      00093D 02                    2254 	.db #0x02	; 2
      00093E 70                    2255 	.db #0x70	; 112	'p'
      00093F C8                    2256 	.db #0xc8	; 200
      000940 B4                    2257 	.db #0xb4	; 180
      000941 EC                    2258 	.db #0xec	; 236
      000942 C4                    2259 	.db #0xc4	; 196
      000943 C0                    2260 	.db #0xc0	; 192
      000944 80                    2261 	.db #0x80	; 128
      000945 BC                    2262 	.db #0xbc	; 188
      000946 03                    2263 	.db #0x03	; 3
      000947 00                    2264 	.db #0x00	; 0
      000948 00                    2265 	.db #0x00	; 0
      000949 00                    2266 	.db #0x00	; 0
      00094A 00                    2267 	.db #0x00	; 0
      00094B 01                    2268 	.db #0x01	; 1
      00094C 03                    2269 	.db #0x03	; 3
      00094D 07                    2270 	.db #0x07	; 7
      00094E 0F                    2271 	.db #0x0f	; 15
      00094F 03                    2272 	.db #0x03	; 3
      000950 00                    2273 	.db #0x00	; 0
      000951 00                    2274 	.db #0x00	; 0
      000952 00                    2275 	.db #0x00	; 0
      000953 7F                    2276 	.db #0x7f	; 127
      000954 FF                    2277 	.db #0xff	; 255
      000955 FA                    2278 	.db #0xfa	; 250
      000956 EF                    2279 	.db #0xef	; 239
      000957 FA                    2280 	.db #0xfa	; 250
      000958 03                    2281 	.db #0x03	; 3
      000959 00                    2282 	.db #0x00	; 0
      00095A 00                    2283 	.db #0x00	; 0
      00095B 00                    2284 	.db #0x00	; 0
      00095C C0                    2285 	.db #0xc0	; 192
      00095D 70                    2286 	.db #0x70	; 112	'p'
      00095E A8                    2287 	.db #0xa8	; 168
      00095F 74                    2288 	.db #0x74	; 116	't'
      000960 AA                    2289 	.db #0xaa	; 170
      000961 03                    2290 	.db #0x03	; 3
      000962 1F                    2291 	.db #0x1f	; 31
      000963 3F                    2292 	.db #0x3f	; 63
      000964 7E                    2293 	.db #0x7e	; 126
      000965 FF                    2294 	.db #0xff	; 255
      000966 F7                    2295 	.db #0xf7	; 247
      000967 DE                    2296 	.db #0xde	; 222
      000968 F7                    2297 	.db #0xf7	; 247
      000969 BA                    2298 	.db #0xba	; 186
      00096A 03                    2299 	.db #0x03	; 3
      00096B F7                    2300 	.db #0xf7	; 247
      00096C AA                    2301 	.db #0xaa	; 170
      00096D F7                    2302 	.db #0xf7	; 247
      00096E AA                    2303 	.db #0xaa	; 170
      00096F DD                    2304 	.db #0xdd	; 221
      000970 A2                    2305 	.db #0xa2	; 162
      000971 54                    2306 	.db #0x54	; 84	'T'
      000972 FA                    2307 	.db #0xfa	; 250
      000973 03                    2308 	.db #0x03	; 3
      000974 00                    2309 	.db #0x00	; 0
      000975 80                    2310 	.db #0x80	; 128
      000976 40                    2311 	.db #0x40	; 64
      000977 A0                    2312 	.db #0xa0	; 160
      000978 10                    2313 	.db #0x10	; 16
      000979 A8                    2314 	.db #0xa8	; 168
      00097A 48                    2315 	.db #0x48	; 72	'H'
      00097B 04                    2316 	.db #0x04	; 4
      00097C 04                    2317 	.db #0x04	; 4
      00097D 00                    2318 	.db #0x00	; 0
      00097E 01                    2319 	.db #0x01	; 1
      00097F 08                    2320 	.db #0x08	; 8
      000980 09                    2321 	.db #0x09	; 9
      000981 4C                    2322 	.db #0x4c	; 76	'L'
      000982 4C                    2323 	.db #0x4c	; 76	'L'
      000983 D4                    2324 	.db #0xd4	; 212
      000984 D4                    2325 	.db #0xd4	; 212
      000985 BA                    2326 	.db #0xba	; 186
      000986 BA                    2327 	.db #0xba	; 186
      000987 D5                    2328 	.db #0xd5	; 213
      000988 D5                    2329 	.db #0xd5	; 213
      000989 F9                    2330 	.db #0xf9	; 249
      00098A F9                    2331 	.db #0xf9	; 249
      00098B 36                    2332 	.db #0x36	; 54	'6'
      00098C 36                    2333 	.db #0x36	; 54	'6'
      00098D 03                    2334 	.db #0x03	; 3
      00098E 70                    2335 	.db #0x70	; 112	'p'
      00098F FD                    2336 	.db #0xfd	; 253
      000990 F7                    2337 	.db #0xf7	; 247
      000991 75                    2338 	.db #0x75	; 117	'u'
      000992 E3                    2339 	.db #0xe3	; 227
      000993 A0                    2340 	.db #0xa0	; 160
      000994 15                    2341 	.db #0x15	; 21
      000995 76                    2342 	.db #0x76	; 118	'v'
      000996 03                    2343 	.db #0x03	; 3
      000997 38                    2344 	.db #0x38	; 56	'8'
      000998 DF                    2345 	.db #0xdf	; 223
      000999 DF                    2346 	.db #0xdf	; 223
      00099A 7B                    2347 	.db #0x7b	; 123
      00099B 52                    2348 	.db #0x52	; 82	'R'
      00099C 8C                    2349 	.db #0x8c	; 140
      00099D D6                    2350 	.db #0xd6	; 214
      00099E 54                    2351 	.db #0x54	; 84	'T'
      00099F 02                    2352 	.db #0x02	; 2
      0009A0 7D                    2353 	.db #0x7d	; 125
      0009A1 E3                    2354 	.db #0xe3	; 227
      0009A2 0D                    2355 	.db #0x0d	; 13
      0009A3 0B                    2356 	.db #0x0b	; 11
      0009A4 0B                    2357 	.db #0x0b	; 11
      0009A5 16                    2358 	.db #0x16	; 22
      0009A6 35                    2359 	.db #0x35	; 53	'5'
      0009A7 00                    2360 	.db #0x00	; 0
      0009A8 02                    2361 	.db #0x02	; 2
      0009A9 66                    2362 	.db #0x66	; 102	'f'
      0009AA FA                    2363 	.db #0xfa	; 250
      0009AB 66                    2364 	.db #0x66	; 102	'f'
      0009AC 80                    2365 	.db #0x80	; 128
      0009AD C0                    2366 	.db #0xc0	; 192
      0009AE 80                    2367 	.db #0x80	; 128
      0009AF 40                    2368 	.db #0x40	; 64
      0009B0 00                    2369 	.db #0x00	; 0
      0009B1 03                    2370 	.db #0x03	; 3
      0009B2 1F                    2371 	.db #0x1f	; 31
      0009B3 1D                    2372 	.db #0x1d	; 29
      0009B4 3F                    2373 	.db #0x3f	; 63
      0009B5 3B                    2374 	.db #0x3b	; 59
      0009B6 37                    2375 	.db #0x37	; 55	'7'
      0009B7 2A                    2376 	.db #0x2a	; 42
      0009B8 35                    2377 	.db #0x35	; 53	'5'
      0009B9 2E                    2378 	.db #0x2e	; 46
      0009BA 03                    2379 	.db #0x03	; 3
      0009BB 7D                    2380 	.db #0x7d	; 125
      0009BC EA                    2381 	.db #0xea	; 234
      0009BD 75                    2382 	.db #0x75	; 117	'u'
      0009BE AF                    2383 	.db #0xaf	; 175
      0009BF 5D                    2384 	.db #0x5d	; 93
      0009C0 FA                    2385 	.db #0xfa	; 250
      0009C1 77                    2386 	.db #0x77	; 119	'w'
      0009C2 EA                    2387 	.db #0xea	; 234
      0009C3 03                    2388 	.db #0x03	; 3
      0009C4 D1                    2389 	.db #0xd1	; 209
      0009C5 2A                    2390 	.db #0x2a	; 42
      0009C6 44                    2391 	.db #0x44	; 68	'D'
      0009C7 A0                    2392 	.db #0xa0	; 160
      0009C8 0A                    2393 	.db #0x0a	; 10
      0009C9 44                    2394 	.db #0x44	; 68	'D'
      0009CA 00                    2395 	.db #0x00	; 0
      0009CB A8                    2396 	.db #0xa8	; 168
      0009CC 03                    2397 	.db #0x03	; 3
      0009CD 00                    2398 	.db #0x00	; 0
      0009CE 80                    2399 	.db #0x80	; 128
      0009CF 80                    2400 	.db #0x80	; 128
      0009D0 40                    2401 	.db #0x40	; 64
      0009D1 40                    2402 	.db #0x40	; 64
      0009D2 40                    2403 	.db #0x40	; 64
      0009D3 40                    2404 	.db #0x40	; 64
      0009D4 80                    2405 	.db #0x80	; 128
      0009D5 03                    2406 	.db #0x03	; 3
      0009D6 75                    2407 	.db #0x75	; 117	'u'
      0009D7 AF                    2408 	.db #0xaf	; 175
      0009D8 57                    2409 	.db #0x57	; 87	'W'
      0009D9 EE                    2410 	.db #0xee	; 238
      0009DA 47                    2411 	.db #0x47	; 71	'G'
      0009DB 9A                    2412 	.db #0x9a	; 154
      0009DC D5                    2413 	.db #0xd5	; 213
      0009DD 6A                    2414 	.db #0x6a	; 106	'j'
      0009DE 03                    2415 	.db #0x03	; 3
      0009DF D0                    2416 	.db #0xd0	; 208
      0009E0 A4                    2417 	.db #0xa4	; 164
      0009E1 70                    2418 	.db #0x70	; 112	'p'
      0009E2 AA                    2419 	.db #0xaa	; 170
      0009E3 51                    2420 	.db #0x51	; 81	'Q'
      0009E4 08                    2421 	.db #0x08	; 8
      0009E5 40                    2422 	.db #0x40	; 64
      0009E6 24                    2423 	.db #0x24	; 36
      0009E7 03                    2424 	.db #0x03	; 3
      0009E8 A4                    2425 	.db #0xa4	; 164
      0009E9 44                    2426 	.db #0x44	; 68	'D'
      0009EA 04                    2427 	.db #0x04	; 4
      0009EB 88                    2428 	.db #0x88	; 136
      0009EC 08                    2429 	.db #0x08	; 8
      0009ED 08                    2430 	.db #0x08	; 8
      0009EE 10                    2431 	.db #0x10	; 16
      0009EF 10                    2432 	.db #0x10	; 16
      0009F0 03                    2433 	.db #0x03	; 3
      0009F1 0F                    2434 	.db #0x0f	; 15
      0009F2 3E                    2435 	.db #0x3e	; 62
      0009F3 77                    2436 	.db #0x77	; 119	'w'
      0009F4 FA                    2437 	.db #0xfa	; 250
      0009F5 D4                    2438 	.db #0xd4	; 212
      0009F6 60                    2439 	.db #0x60	; 96
      0009F7 34                    2440 	.db #0x34	; 52	'4'
      0009F8 0F                    2441 	.db #0x0f	; 15
      0009F9 03                    2442 	.db #0x03	; 3
      0009FA E0                    2443 	.db #0xe0	; 224
      0009FB B8                    2444 	.db #0xb8	; 184
      0009FC 56                    2445 	.db #0x56	; 86	'V'
      0009FD 89                    2446 	.db #0x89	; 137
      0009FE 41                    2447 	.db #0x41	; 65	'A'
      0009FF 02                    2448 	.db #0x02	; 2
      000A00 1C                    2449 	.db #0x1c	; 28
      000A01 E0                    2450 	.db #0xe0	; 224
      000A02 03                    2451 	.db #0x03	; 3
      000A03 00                    2452 	.db #0x00	; 0
      000A04 00                    2453 	.db #0x00	; 0
      000A05 01                    2454 	.db #0x01	; 1
      000A06 03                    2455 	.db #0x03	; 3
      000A07 07                    2456 	.db #0x07	; 7
      000A08 1F                    2457 	.db #0x1f	; 31
      000A09 3F                    2458 	.db #0x3f	; 63
      000A0A 3B                    2459 	.db #0x3b	; 59
      000A0B 03                    2460 	.db #0x03	; 3
      000A0C 00                    2461 	.db #0x00	; 0
      000A0D 00                    2462 	.db #0x00	; 0
      000A0E 00                    2463 	.db #0x00	; 0
      000A0F C0                    2464 	.db #0xc0	; 192
      000A10 60                    2465 	.db #0x60	; 96
      000A11 B0                    2466 	.db #0xb0	; 176
      000A12 58                    2467 	.db #0x58	; 88	'X'
      000A13 0C                    2468 	.db #0x0c	; 12
      000A14 03                    2469 	.db #0x03	; 3
      000A15 00                    2470 	.db #0x00	; 0
      000A16 01                    2471 	.db #0x01	; 1
      000A17 07                    2472 	.db #0x07	; 7
      000A18 0F                    2473 	.db #0x0f	; 15
      000A19 1F                    2474 	.db #0x1f	; 31
      000A1A 3F                    2475 	.db #0x3f	; 63
      000A1B 7D                    2476 	.db #0x7d	; 125
      000A1C 7B                    2477 	.db #0x7b	; 123
      000A1D 03                    2478 	.db #0x03	; 3
      000A1E 3F                    2479 	.db #0x3f	; 63
      000A1F FF                    2480 	.db #0xff	; 255
      000A20 FD                    2481 	.db #0xfd	; 253
      000A21 EA                    2482 	.db #0xea	; 234
      000A22 FD                    2483 	.db #0xfd	; 253
      000A23 AA                    2484 	.db #0xaa	; 170
      000A24 F7                    2485 	.db #0xf7	; 247
      000A25 AA                    2486 	.db #0xaa	; 170
      000A26 02                    2487 	.db #0x02	; 2
      000A27 09                    2488 	.db #0x09	; 9
      000A28 05                    2489 	.db #0x05	; 5
      000A29 05                    2490 	.db #0x05	; 5
      000A2A 03                    2491 	.db #0x03	; 3
      000A2B 00                    2492 	.db #0x00	; 0
      000A2C 0B                    2493 	.db #0x0b	; 11
      000A2D 05                    2494 	.db #0x05	; 5
      000A2E 0A                    2495 	.db #0x0a	; 10
      000A2F 02                    2496 	.db #0x02	; 2
      000A30 01                    2497 	.db #0x01	; 1
      000A31 05                    2498 	.db #0x05	; 5
      000A32 44                    2499 	.db #0x44	; 68	'D'
      000A33 4C                    2500 	.db #0x4c	; 76	'L'
      000A34 F4                    2501 	.db #0xf4	; 244
      000A35 15                    2502 	.db #0x15	; 21
      000A36 AC                    2503 	.db #0xac	; 172
      000A37 D7                    2504 	.db #0xd7	; 215
      000A38 02                    2505 	.db #0x02	; 2
      000A39 00                    2506 	.db #0x00	; 0
      000A3A 20                    2507 	.db #0x20	; 32
      000A3B A0                    2508 	.db #0xa0	; 160
      000A3C A5                    2509 	.db #0xa5	; 165
      000A3D 52                    2510 	.db #0x52	; 82	'R'
      000A3E 56                    2511 	.db #0x56	; 86	'V'
      000A3F B9                    2512 	.db #0xb9	; 185
      000A40 56                    2513 	.db #0x56	; 86	'V'
      000A41 03                    2514 	.db #0x03	; 3
      000A42 00                    2515 	.db #0x00	; 0
      000A43 3F                    2516 	.db #0x3f	; 63
      000A44 7D                    2517 	.db #0x7d	; 125
      000A45 FE                    2518 	.db #0xfe	; 254
      000A46 D5                    2519 	.db #0xd5	; 213
      000A47 EE                    2520 	.db #0xee	; 238
      000A48 55                    2521 	.db #0x55	; 85	'U'
      000A49 FA                    2522 	.db #0xfa	; 250
      000A4A 03                    2523 	.db #0x03	; 3
      000A4B 14                    2524 	.db #0x14	; 20
      000A4C 19                    2525 	.db #0x19	; 25
      000A4D 8D                    2526 	.db #0x8d	; 141
      000A4E C6                    2527 	.db #0xc6	; 198
      000A4F 65                    2528 	.db #0x65	; 101	'e'
      000A50 A2                    2529 	.db #0xa2	; 162
      000A51 51                    2530 	.db #0x51	; 81	'Q'
      000A52 30                    2531 	.db #0x30	; 48	'0'
      000A53 03                    2532 	.db #0x03	; 3
      000A54 75                    2533 	.db #0x75	; 117	'u'
      000A55 A0                    2534 	.db #0xa0	; 160
      000A56 54                    2535 	.db #0x54	; 84	'T'
      000A57 A2                    2536 	.db #0xa2	; 162
      000A58 10                    2537 	.db #0x10	; 16
      000A59 E4                    2538 	.db #0xe4	; 228
      000A5A 40                    2539 	.db #0x40	; 64
      000A5B 92                    2540 	.db #0x92	; 146
      000A5C 03                    2541 	.db #0x03	; 3
      000A5D 10                    2542 	.db #0x10	; 16
      000A5E 80                    2543 	.db #0x80	; 128
      000A5F 01                    2544 	.db #0x01	; 1
      000A60 41                    2545 	.db #0x41	; 65	'A'
      000A61 02                    2546 	.db #0x02	; 2
      000A62 02                    2547 	.db #0x02	; 2
      000A63 04                    2548 	.db #0x04	; 4
      000A64 08                    2549 	.db #0x08	; 8
      000A65 03                    2550 	.db #0x03	; 3
      000A66 80                    2551 	.db #0x80	; 128
      000A67 8F                    2552 	.db #0x8f	; 143
      000A68 1F                    2553 	.db #0x1f	; 31
      000A69 3F                    2554 	.db #0x3f	; 63
      000A6A 75                    2555 	.db #0x75	; 117	'u'
      000A6B 7B                    2556 	.db #0x7b	; 123
      000A6C D5                    2557 	.db #0xd5	; 213
      000A6D FE                    2558 	.db #0xfe	; 254
      000A6E 03                    2559 	.db #0x03	; 3
      000A6F 51                    2560 	.db #0x51	; 81	'Q'
      000A70 2E                    2561 	.db #0x2e	; 46
      000A71 14                    2562 	.db #0x14	; 20
      000A72 09                    2563 	.db #0x09	; 9
      000A73 04                    2564 	.db #0x04	; 4
      000A74 03                    2565 	.db #0x03	; 3
      000A75 00                    2566 	.db #0x00	; 0
      000A76 00                    2567 	.db #0x00	; 0
      000A77 03                    2568 	.db #0x03	; 3
      000A78 00                    2569 	.db #0x00	; 0
      000A79 40                    2570 	.db #0x40	; 64
      000A7A 00                    2571 	.db #0x00	; 0
      000A7B 20                    2572 	.db #0x20	; 32
      000A7C 81                    2573 	.db #0x81	; 129
      000A7D 06                    2574 	.db #0x06	; 6
      000A7E F8                    2575 	.db #0xf8	; 248
      000A7F 00                    2576 	.db #0x00	; 0
      000A80 03                    2577 	.db #0x03	; 3
      000A81 20                    2578 	.db #0x20	; 32
      000A82 23                    2579 	.db #0x23	; 35
      000A83 47                    2580 	.db #0x47	; 71	'G'
      000A84 8E                    2581 	.db #0x8e	; 142
      000A85 1F                    2582 	.db #0x1f	; 31
      000A86 3A                    2583 	.db #0x3a	; 58
      000A87 77                    2584 	.db #0x77	; 119	'w'
      000A88 7A                    2585 	.db #0x7a	; 122	'z'
      000A89 03                    2586 	.db #0x03	; 3
      000A8A 7F                    2587 	.db #0x7f	; 127
      000A8B FA                    2588 	.db #0xfa	; 250
      000A8C FD                    2589 	.db #0xfd	; 253
      000A8D B2                    2590 	.db #0xb2	; 178
      000A8E E5                    2591 	.db #0xe5	; 229
      000A8F AC                    2592 	.db #0xac	; 172
      000A90 55                    2593 	.db #0x55	; 85	'U'
      000A91 62                    2594 	.db #0x62	; 98	'b'
      000A92 03                    2595 	.db #0x03	; 3
      000A93 D5                    2596 	.db #0xd5	; 213
      000A94 A0                    2597 	.db #0xa0	; 160
      000A95 83                    2598 	.db #0x83	; 131
      000A96 46                    2599 	.db #0x46	; 70	'F'
      000A97 21                    2600 	.db #0x21	; 33
      000A98 18                    2601 	.db #0x18	; 24
      000A99 07                    2602 	.db #0x07	; 7
      000A9A 00                    2603 	.db #0x00	; 0
      000A9B 03                    2604 	.db #0x03	; 3
      000A9C 77                    2605 	.db #0x77	; 119	'w'
      000A9D AE                    2606 	.db #0xae	; 174
      000A9E 5D                    2607 	.db #0x5d	; 93
      000A9F 2A                    2608 	.db #0x2a	; 42
      000AA0 4D                    2609 	.db #0x4d	; 77	'M'
      000AA1 20                    2610 	.db #0x20	; 32
      000AA2 00                    2611 	.db #0x00	; 0
      000AA3 FF                    2612 	.db #0xff	; 255
      000AA4 03                    2613 	.db #0x03	; 3
      000AA5 55                    2614 	.db #0x55	; 85	'U'
      000AA6 E8                    2615 	.db #0xe8	; 232
      000AA7 55                    2616 	.db #0x55	; 85	'U'
      000AA8 38                    2617 	.db #0x38	; 56	'8'
      000AA9 0D                    2618 	.db #0x0d	; 13
      000AAA 06                    2619 	.db #0x06	; 6
      000AAB 01                    2620 	.db #0x01	; 1
      000AAC 00                    2621 	.db #0x00	; 0
      000AAD 03                    2622 	.db #0x03	; 3
      000AAE 48                    2623 	.db #0x48	; 72	'H'
      000AAF 18                    2624 	.db #0x18	; 24
      000AB0 44                    2625 	.db #0x44	; 68	'D'
      000AB1 04                    2626 	.db #0x04	; 4
      000AB2 04                    2627 	.db #0x04	; 4
      000AB3 04                    2628 	.db #0x04	; 4
      000AB4 88                    2629 	.db #0x88	; 136
      000AB5 70                    2630 	.db #0x70	; 112	'p'
      000AB6 03                    2631 	.db #0x03	; 3
      000AB7 48                    2632 	.db #0x48	; 72	'H'
      000AB8 30                    2633 	.db #0x30	; 48	'0'
      000AB9 0F                    2634 	.db #0x0f	; 15
      000ABA 00                    2635 	.db #0x00	; 0
      000ABB 00                    2636 	.db #0x00	; 0
      000ABC 1F                    2637 	.db #0x1f	; 31
      000ABD 3E                    2638 	.db #0x3e	; 62
      000ABE 75                    2639 	.db #0x75	; 117	'u'
      000ABF 03                    2640 	.db #0x03	; 3
      000AC0 10                    2641 	.db #0x10	; 16
      000AC1 60                    2642 	.db #0x60	; 96
      000AC2 80                    2643 	.db #0x80	; 128
      000AC3 00                    2644 	.db #0x00	; 0
      000AC4 00                    2645 	.db #0x00	; 0
      000AC5 80                    2646 	.db #0x80	; 128
      000AC6 C0                    2647 	.db #0xc0	; 192
      000AC7 60                    2648 	.db #0x60	; 96
      000AC8 03                    2649 	.db #0x03	; 3
      000AC9 55                    2650 	.db #0x55	; 85	'U'
      000ACA 3A                    2651 	.db #0x3a	; 58
      000ACB 15                    2652 	.db #0x15	; 21
      000ACC 0E                    2653 	.db #0x0e	; 14
      000ACD 03                    2654 	.db #0x03	; 3
      000ACE 01                    2655 	.db #0x01	; 1
      000ACF 00                    2656 	.db #0x00	; 0
      000AD0 00                    2657 	.db #0x00	; 0
      000AD1 03                    2658 	.db #0x03	; 3
      000AD2 52                    2659 	.db #0x52	; 82	'R'
      000AD3 06                    2660 	.db #0x06	; 6
      000AD4 51                    2661 	.db #0x51	; 81	'Q'
      000AD5 01                    2662 	.db #0x01	; 1
      000AD6 41                    2663 	.db #0x41	; 65	'A'
      000AD7 81                    2664 	.db #0x81	; 129
      000AD8 62                    2665 	.db #0x62	; 98	'b'
      000AD9 1C                    2666 	.db #0x1c	; 28
      000ADA 03                    2667 	.db #0x03	; 3
      000ADB 00                    2668 	.db #0x00	; 0
      000ADC 10                    2669 	.db #0x10	; 16
      000ADD 32                    2670 	.db #0x32	; 50	'2'
      000ADE 2B                    2671 	.db #0x2b	; 43
      000ADF 5D                    2672 	.db #0x5d	; 93
      000AE0 AB                    2673 	.db #0xab	; 171
      000AE1 9F                    2674 	.db #0x9f	; 159
      000AE2 6C                    2675 	.db #0x6c	; 108	'l'
      000AE3                       2676 _room_1_0_map:
      000AE3 6A 00                 2677 	.dw #0x006a
      000AE5 FF                    2678 	.db #0xff	; 255
      000AE6 00                    2679 	.db #0x00	; 0
      000AE7 01                    2680 	.db #0x01	; 1
      000AE8 02                    2681 	.db #0x02	; 2
      000AE9 03                    2682 	.db #0x03	; 3
      000AEA 04                    2683 	.db #0x04	; 4
      000AEB 05                    2684 	.db #0x05	; 5
      000AEC 06                    2685 	.db #0x06	; 6
      000AED D8                    2686 	.db #0xd8	; 216
      000AEE 00                    2687 	.db #0x00	; 0
      000AEF 07                    2688 	.db #0x07	; 7
      000AF0 08                    2689 	.db #0x08	; 8
      000AF1 09                    2690 	.db #0x09	; 9
      000AF2 0A                    2691 	.db #0x0a	; 10
      000AF3 0B                    2692 	.db #0x0b	; 11
      000AF4 0C                    2693 	.db #0x0c	; 12
      000AF5 FF                    2694 	.db #0xff	; 255
      000AF6 00                    2695 	.db #0x00	; 0
      000AF7 C8                    2696 	.db #0xc8	; 200
      000AF8 00                    2697 	.db #0x00	; 0
      000AF9 0D                    2698 	.db #0x0d	; 13
      000AFA 0E                    2699 	.db #0x0e	; 14
      000AFB 0F                    2700 	.db #0x0f	; 15
      000AFC 10                    2701 	.db #0x10	; 16
      000AFD D8                    2702 	.db #0xd8	; 216
      000AFE 00                    2703 	.db #0x00	; 0
      000AFF 01                    2704 	.db #0x01	; 1
      000B00 02                    2705 	.db #0x02	; 2
      000B01 11                    2706 	.db #0x11	; 17
      000B02 12                    2707 	.db #0x12	; 18
      000B03 13                    2708 	.db #0x13	; 19
      000B04 14                    2709 	.db #0x14	; 20
      000B05 05                    2710 	.db #0x05	; 5
      000B06 06                    2711 	.db #0x06	; 6
      000B07 D6                    2712 	.db #0xd6	; 214
      000B08 00                    2713 	.db #0x00	; 0
      000B09 07                    2714 	.db #0x07	; 7
      000B0A 08                    2715 	.db #0x08	; 8
      000B0B 15                    2716 	.db #0x15	; 21
      000B0C 16                    2717 	.db #0x16	; 22
      000B0D 17                    2718 	.db #0x17	; 23
      000B0E 18                    2719 	.db #0x18	; 24
      000B0F 19                    2720 	.db #0x19	; 25
      000B10 0C                    2721 	.db #0x0c	; 12
      000B11 FF                    2722 	.db #0xff	; 255
      000B12 00                    2723 	.db #0x00	; 0
      000B13 FF                    2724 	.db #0xff	; 255
      000B14 00                    2725 	.db #0x00	; 0
      000B15 C9                    2726 	.db #0xc9	; 201
      000B16 00                    2727 	.db #0x00	; 0
      000B17 1A                    2728 	.db #0x1a	; 26
      000B18 1B                    2729 	.db #0x1b	; 27
      000B19 1C                    2730 	.db #0x1c	; 28
      000B1A D9                    2731 	.db #0xd9	; 217
      000B1B 00                    2732 	.db #0x00	; 0
      000B1C 1D                    2733 	.db #0x1d	; 29
      000B1D 1C                    2734 	.db #0x1c	; 28
      000B1E 1E                    2735 	.db #0x1e	; 30
      000B1F 1F                    2736 	.db #0x1f	; 31
      000B20 20                    2737 	.db #0x20	; 32
      000B21 D4                    2738 	.db #0xd4	; 212
      000B22 00                    2739 	.db #0x00	; 0
      000B23 21                    2740 	.db #0x21	; 33
      000B24 22                    2741 	.db #0x22	; 34
      000B25 1A                    2742 	.db #0x1a	; 26
      000B26 1B                    2743 	.db #0x1b	; 27
      000B27 23                    2744 	.db #0x23	; 35
      000B28 24                    2745 	.db #0x24	; 36
      000B29 25                    2746 	.db #0x25	; 37
      000B2A 26                    2747 	.db #0x26	; 38
      000B2B 27                    2748 	.db #0x27	; 39
      000B2C 28                    2749 	.db #0x28	; 40
      000B2D D0                    2750 	.db #0xd0	; 208
      000B2E 00                    2751 	.db #0x00	; 0
      000B2F 29                    2752 	.db #0x29	; 41
      000B30 2A                    2753 	.db #0x2a	; 42
      000B31 2B                    2754 	.db #0x2b	; 43
      000B32 2C                    2755 	.db #0x2c	; 44
      000B33 2D                    2756 	.db #0x2d	; 45
      000B34 2E                    2757 	.db #0x2e	; 46
      000B35 2F                    2758 	.db #0x2f	; 47
      000B36 30                    2759 	.db #0x30	; 48	'0'
      000B37 20                    2760 	.db #0x20	; 32
      000B38 31                    2761 	.db #0x31	; 49	'1'
      000B39 32                    2762 	.db #0x32	; 50	'2'
      000B3A 33                    2763 	.db #0x33	; 51	'3'
      000B3B 34                    2764 	.db #0x34	; 52	'4'
      000B3C 35                    2765 	.db #0x35	; 53	'5'
      000B3D D0                    2766 	.db #0xd0	; 208
      000B3E 00                    2767 	.db #0x00	; 0
      000B3F 36                    2768 	.db #0x36	; 54	'6'
      000B40 37                    2769 	.db #0x37	; 55	'7'
      000B41 38                    2770 	.db #0x38	; 56	'8'
      000B42 39                    2771 	.db #0x39	; 57	'9'
      000B43 36                    2772 	.db #0x36	; 54	'6'
      000B44 37                    2773 	.db #0x37	; 55	'7'
      000B45 3A                    2774 	.db #0x3a	; 58
      000B46 3B                    2775 	.db #0x3b	; 59
      000B47 3C                    2776 	.db #0x3c	; 60
      000B48 3D                    2777 	.db #0x3d	; 61
      000B49 C2                    2778 	.db #0xc2	; 194
      000B4A 3E                    2779 	.db #0x3e	; 62
      000B4B 27                    2780 	.db #0x27	; 39
      000B4C 28                    2781 	.db #0x28	; 40
      000B4D D0                    2782 	.db #0xd0	; 208
      000B4E 00                    2783 	.db #0x00	; 0
      000B4F                       2784 _room_1_0_coll:
      000B4F 30 00                 2785 	.dw #0x0030
      000B51 FF                    2786 	.db #0xff	; 255
      000B52 00                    2787 	.db #0x00	; 0
      000B53 C6                    2788 	.db #0xc6	; 198
      000B54 05                    2789 	.db #0x05	; 5
      000B55 D8                    2790 	.db #0xd8	; 216
      000B56 00                    2791 	.db #0x00	; 0
      000B57 C6                    2792 	.db #0xc6	; 198
      000B58 05                    2793 	.db #0x05	; 5
      000B59 FF                    2794 	.db #0xff	; 255
      000B5A 00                    2795 	.db #0x00	; 0
      000B5B E4                    2796 	.db #0xe4	; 228
      000B5C 00                    2797 	.db #0x00	; 0
      000B5D C8                    2798 	.db #0xc8	; 200
      000B5E 05                    2799 	.db #0x05	; 5
      000B5F D6                    2800 	.db #0xd6	; 214
      000B60 00                    2801 	.db #0x00	; 0
      000B61 C8                    2802 	.db #0xc8	; 200
      000B62 05                    2803 	.db #0x05	; 5
      000B63 FF                    2804 	.db #0xff	; 255
      000B64 00                    2805 	.db #0x00	; 0
      000B65 FF                    2806 	.db #0xff	; 255
      000B66 00                    2807 	.db #0x00	; 0
      000B67 C9                    2808 	.db #0xc9	; 201
      000B68 00                    2809 	.db #0x00	; 0
      000B69 02                    2810 	.db #0x02	; 2
      000B6A 01                    2811 	.db #0x01	; 1
      000B6B 02                    2812 	.db #0x02	; 2
      000B6C D9                    2813 	.db #0xd9	; 217
      000B6D 00                    2814 	.db #0x00	; 0
      000B6E 02                    2815 	.db #0x02	; 2
      000B6F C4                    2816 	.db #0xc4	; 196
      000B70 01                    2817 	.db #0x01	; 1
      000B71 D6                    2818 	.db #0xd6	; 214
      000B72 00                    2819 	.db #0x00	; 0
      000B73 02                    2820 	.db #0x02	; 2
      000B74 C7                    2821 	.db #0xc7	; 199
      000B75 01                    2822 	.db #0x01	; 1
      000B76 D5                    2823 	.db #0xd5	; 213
      000B77 00                    2824 	.db #0x00	; 0
      000B78 02                    2825 	.db #0x02	; 2
      000B79 C8                    2826 	.db #0xc8	; 200
      000B7A 01                    2827 	.db #0x01	; 1
      000B7B D0                    2828 	.db #0xd0	; 208
      000B7C 00                    2829 	.db #0x00	; 0
      000B7D CE                    2830 	.db #0xce	; 206
      000B7E 01                    2831 	.db #0x01	; 1
      000B7F D0                    2832 	.db #0xd0	; 208
      000B80 00                    2833 	.db #0x00	; 0
      000B81                       2834 _room_1_0_tiles:
      000B81 3F                    2835 	.db #0x3f	; 63
      000B82 00                    2836 	.db #0x00	; 0
      000B83 01                    2837 	.db #0x01	; 1
      000B84 00                    2838 	.db #0x00	; 0
      000B85 00                    2839 	.db #0x00	; 0
      000B86 00                    2840 	.db #0x00	; 0
      000B87 00                    2841 	.db #0x00	; 0
      000B88 00                    2842 	.db #0x00	; 0
      000B89 03                    2843 	.db #0x03	; 3
      000B8A 07                    2844 	.db #0x07	; 7
      000B8B 1F                    2845 	.db #0x1f	; 31
      000B8C 01                    2846 	.db #0x01	; 1
      000B8D 00                    2847 	.db #0x00	; 0
      000B8E 1D                    2848 	.db #0x1d	; 29
      000B8F 3F                    2849 	.db #0x3f	; 63
      000B90 3F                    2850 	.db #0x3f	; 63
      000B91 17                    2851 	.db #0x17	; 23
      000B92 2F                    2852 	.db #0x2f	; 47
      000B93 DB                    2853 	.db #0xdb	; 219
      000B94 B5                    2854 	.db #0xb5	; 181
      000B95 01                    2855 	.db #0x01	; 1
      000B96 18                    2856 	.db #0x18	; 24
      000B97 7C                    2857 	.db #0x7c	; 124
      000B98 FE                    2858 	.db #0xfe	; 254
      000B99 FE                    2859 	.db #0xfe	; 254
      000B9A 7C                    2860 	.db #0x7c	; 124
      000B9B FB                    2861 	.db #0xfb	; 251
      000B9C F5                    2862 	.db #0xf5	; 245
      000B9D EF                    2863 	.db #0xef	; 239
      000B9E 01                    2864 	.db #0x01	; 1
      000B9F 06                    2865 	.db #0x06	; 6
      000BA0 6F                    2866 	.db #0x6f	; 111	'o'
      000BA1 FD                    2867 	.db #0xfd	; 253
      000BA2 FE                    2868 	.db #0xfe	; 254
      000BA3 BF                    2869 	.db #0xbf	; 191
      000BA4 5F                    2870 	.db #0x5f	; 95
      000BA5 FF                    2871 	.db #0xff	; 255
      000BA6 FE                    2872 	.db #0xfe	; 254
      000BA7 01                    2873 	.db #0x01	; 1
      000BA8 00                    2874 	.db #0x00	; 0
      000BA9 B8                    2875 	.db #0xb8	; 184
      000BAA FC                    2876 	.db #0xfc	; 252
      000BAB FC                    2877 	.db #0xfc	; 252
      000BAC E8                    2878 	.db #0xe8	; 232
      000BAD F4                    2879 	.db #0xf4	; 244
      000BAE DB                    2880 	.db #0xdb	; 219
      000BAF AD                    2881 	.db #0xad	; 173
      000BB0 01                    2882 	.db #0x01	; 1
      000BB1 00                    2883 	.db #0x00	; 0
      000BB2 00                    2884 	.db #0x00	; 0
      000BB3 00                    2885 	.db #0x00	; 0
      000BB4 00                    2886 	.db #0x00	; 0
      000BB5 00                    2887 	.db #0x00	; 0
      000BB6 C0                    2888 	.db #0xc0	; 192
      000BB7 E0                    2889 	.db #0xe0	; 224
      000BB8 F8                    2890 	.db #0xf8	; 248
      000BB9 01                    2891 	.db #0x01	; 1
      000BBA 1F                    2892 	.db #0x1f	; 31
      000BBB 1F                    2893 	.db #0x1f	; 31
      000BBC 6B                    2894 	.db #0x6b	; 107	'k'
      000BBD F5                    2895 	.db #0xf5	; 245
      000BBE EF                    2896 	.db #0xef	; 239
      000BBF 7D                    2897 	.db #0x7d	; 125
      000BC0 AA                    2898 	.db #0xaa	; 170
      000BC1 40                    2899 	.db #0x40	; 64
      000BC2 01                    2900 	.db #0x01	; 1
      000BC3 FF                    2901 	.db #0xff	; 255
      000BC4 FF                    2902 	.db #0xff	; 255
      000BC5 F7                    2903 	.db #0xf7	; 247
      000BC6 FF                    2904 	.db #0xff	; 255
      000BC7 6E                    2905 	.db #0x6e	; 110	'n'
      000BC8 B5                    2906 	.db #0xb5	; 181
      000BC9 4A                    2907 	.db #0x4a	; 74	'J'
      000BCA A1                    2908 	.db #0xa1	; 161
      000BCB 01                    2909 	.db #0x01	; 1
      000BCC F5                    2910 	.db #0xf5	; 245
      000BCD FF                    2911 	.db #0xff	; 255
      000BCE EF                    2912 	.db #0xef	; 239
      000BCF 55                    2913 	.db #0x55	; 85	'U'
      000BD0 AA                    2914 	.db #0xaa	; 170
      000BD1 57                    2915 	.db #0x57	; 87	'W'
      000BD2 AB                    2916 	.db #0xab	; 171
      000BD3 05                    2917 	.db #0x05	; 5
      000BD4 01                    2918 	.db #0x01	; 1
      000BD5 FD                    2919 	.db #0xfd	; 253
      000BD6 FF                    2920 	.db #0xff	; 255
      000BD7 6D                    2921 	.db #0x6d	; 109	'm'
      000BD8 FB                    2922 	.db #0xfb	; 251
      000BD9 AE                    2923 	.db #0xae	; 174
      000BDA 55                    2924 	.db #0x55	; 85	'U'
      000BDB AA                    2925 	.db #0xaa	; 170
      000BDC 41                    2926 	.db #0x41	; 65	'A'
      000BDD 01                    2927 	.db #0x01	; 1
      000BDE FB                    2928 	.db #0xfb	; 251
      000BDF B7                    2929 	.db #0xb7	; 183
      000BE0 FA                    2930 	.db #0xfa	; 250
      000BE1 D5                    2931 	.db #0xd5	; 213
      000BE2 EB                    2932 	.db #0xeb	; 235
      000BE3 55                    2933 	.db #0x55	; 85	'U'
      000BE4 AE                    2934 	.db #0xae	; 174
      000BE5 44                    2935 	.db #0x44	; 68	'D'
      000BE6 01                    2936 	.db #0x01	; 1
      000BE7 F8                    2937 	.db #0xf8	; 248
      000BE8 F8                    2938 	.db #0xf8	; 248
      000BE9 D6                    2939 	.db #0xd6	; 214
      000BEA AF                    2940 	.db #0xaf	; 175
      000BEB F7                    2941 	.db #0xf7	; 247
      000BEC BE                    2942 	.db #0xbe	; 190
      000BED 55                    2943 	.db #0x55	; 85	'U'
      000BEE 02                    2944 	.db #0x02	; 2
      000BEF 01                    2945 	.db #0x01	; 1
      000BF0 00                    2946 	.db #0x00	; 0
      000BF1 00                    2947 	.db #0x00	; 0
      000BF2 00                    2948 	.db #0x00	; 0
      000BF3 03                    2949 	.db #0x03	; 3
      000BF4 0F                    2950 	.db #0x0f	; 15
      000BF5 07                    2951 	.db #0x07	; 7
      000BF6 2E                    2952 	.db #0x2e	; 46
      000BF7 7D                    2953 	.db #0x7d	; 125
      000BF8 01                    2954 	.db #0x01	; 1
      000BF9 00                    2955 	.db #0x00	; 0
      000BFA 00                    2956 	.db #0x00	; 0
      000BFB 00                    2957 	.db #0x00	; 0
      000BFC 00                    2958 	.db #0x00	; 0
      000BFD 80                    2959 	.db #0x80	; 128
      000BFE 80                    2960 	.db #0x80	; 128
      000BFF 80                    2961 	.db #0x80	; 128
      000C00 60                    2962 	.db #0x60	; 96
      000C01 01                    2963 	.db #0x01	; 1
      000C02 00                    2964 	.db #0x00	; 0
      000C03 00                    2965 	.db #0x00	; 0
      000C04 00                    2966 	.db #0x00	; 0
      000C05 00                    2967 	.db #0x00	; 0
      000C06 00                    2968 	.db #0x00	; 0
      000C07 00                    2969 	.db #0x00	; 0
      000C08 60                    2970 	.db #0x60	; 96
      000C09 F6                    2971 	.db #0xf6	; 246
      000C0A 01                    2972 	.db #0x01	; 1
      000C0B 00                    2973 	.db #0x00	; 0
      000C0C 00                    2974 	.db #0x00	; 0
      000C0D 00                    2975 	.db #0x00	; 0
      000C0E 00                    2976 	.db #0x00	; 0
      000C0F 00                    2977 	.db #0x00	; 0
      000C10 00                    2978 	.db #0x00	; 0
      000C11 18                    2979 	.db #0x18	; 24
      000C12 3E                    2980 	.db #0x3e	; 62
      000C13 01                    2981 	.db #0x01	; 1
      000C14 7F                    2982 	.db #0x7f	; 127
      000C15 BD                    2983 	.db #0xbd	; 189
      000C16 7E                    2984 	.db #0x7e	; 126
      000C17 FF                    2985 	.db #0xff	; 255
      000C18 EF                    2986 	.db #0xef	; 239
      000C19 D5                    2987 	.db #0xd5	; 213
      000C1A AB                    2988 	.db #0xab	; 171
      000C1B DF                    2989 	.db #0xdf	; 223
      000C1C 01                    2990 	.db #0x01	; 1
      000C1D F1                    2991 	.db #0xf1	; 241
      000C1E F3                    2992 	.db #0xf3	; 243
      000C1F CF                    2993 	.db #0xcf	; 207
      000C20 F7                    2994 	.db #0xf7	; 247
      000C21 FB                    2995 	.db #0xfb	; 251
      000C22 F5                    2996 	.db #0xf5	; 245
      000C23 6E                    2997 	.db #0x6e	; 110	'n'
      000C24 FB                    2998 	.db #0xfb	; 251
      000C25 01                    2999 	.db #0x01	; 1
      000C26 BF                    3000 	.db #0xbf	; 191
      000C27 7F                    3001 	.db #0x7f	; 127
      000C28 FD                    3002 	.db #0xfd	; 253
      000C29 FA                    3003 	.db #0xfa	; 250
      000C2A FF                    3004 	.db #0xff	; 255
      000C2B 7F                    3005 	.db #0x7f	; 127
      000C2C BF                    3006 	.db #0xbf	; 191
      000C2D FF                    3007 	.db #0xff	; 255
      000C2E 01                    3008 	.db #0x01	; 1
      000C2F 7F                    3009 	.db #0x7f	; 127
      000C30 7F                    3010 	.db #0x7f	; 127
      000C31 3E                    3011 	.db #0x3e	; 62
      000C32 DF                    3012 	.db #0xdf	; 223
      000C33 AF                    3013 	.db #0xaf	; 175
      000C34 F7                    3014 	.db #0xf7	; 247
      000C35 AF                    3015 	.db #0xaf	; 175
      000C36 FF                    3016 	.db #0xff	; 255
      000C37 01                    3017 	.db #0x01	; 1
      000C38 DF                    3018 	.db #0xdf	; 223
      000C39 ED                    3019 	.db #0xed	; 237
      000C3A 5F                    3020 	.db #0x5f	; 95
      000C3B AB                    3021 	.db #0xab	; 171
      000C3C D7                    3022 	.db #0xd7	; 215
      000C3D AA                    3023 	.db #0xaa	; 170
      000C3E 75                    3024 	.db #0x75	; 117	'u'
      000C3F 22                    3025 	.db #0x22	; 34
      000C40 01                    3026 	.db #0x01	; 1
      000C41 DA                    3027 	.db #0xda	; 218
      000C42 FD                    3028 	.db #0xfd	; 253
      000C43 B6                    3029 	.db #0xb6	; 182
      000C44 DF                    3030 	.db #0xdf	; 223
      000C45 75                    3031 	.db #0x75	; 117	'u'
      000C46 AA                    3032 	.db #0xaa	; 170
      000C47 55                    3033 	.db #0x55	; 85	'U'
      000C48 82                    3034 	.db #0x82	; 130
      000C49 01                    3035 	.db #0x01	; 1
      000C4A DF                    3036 	.db #0xdf	; 223
      000C4B BF                    3037 	.db #0xbf	; 191
      000C4C F7                    3038 	.db #0xf7	; 247
      000C4D AA                    3039 	.db #0xaa	; 170
      000C4E 55                    3040 	.db #0x55	; 85	'U'
      000C4F EA                    3041 	.db #0xea	; 234
      000C50 D5                    3042 	.db #0xd5	; 213
      000C51 A0                    3043 	.db #0xa0	; 160
      000C52 01                    3044 	.db #0x01	; 1
      000C53 7F                    3045 	.db #0x7f	; 127
      000C54 ED                    3046 	.db #0xed	; 237
      000C55 77                    3047 	.db #0x77	; 119	'w'
      000C56 AE                    3048 	.db #0xae	; 174
      000C57 55                    3049 	.db #0x55	; 85	'U'
      000C58 EA                    3050 	.db #0xea	; 234
      000C59 55                    3051 	.db #0x55	; 85	'U'
      000C5A 0A                    3052 	.db #0x0a	; 10
      000C5B 01                    3053 	.db #0x01	; 1
      000C5C FF                    3054 	.db #0xff	; 255
      000C5D FF                    3055 	.db #0xff	; 255
      000C5E EF                    3056 	.db #0xef	; 239
      000C5F FF                    3057 	.db #0xff	; 255
      000C60 76                    3058 	.db #0x76	; 118	'v'
      000C61 AD                    3059 	.db #0xad	; 173
      000C62 52                    3060 	.db #0x52	; 82	'R'
      000C63 85                    3061 	.db #0x85	; 133
      000C64 03                    3062 	.db #0x03	; 3
      000C65 01                    3063 	.db #0x01	; 1
      000C66 07                    3064 	.db #0x07	; 7
      000C67 0F                    3065 	.db #0x0f	; 15
      000C68 1F                    3066 	.db #0x1f	; 31
      000C69 3F                    3067 	.db #0x3f	; 63
      000C6A 7D                    3068 	.db #0x7d	; 125
      000C6B 77                    3069 	.db #0x77	; 119	'w'
      000C6C FD                    3070 	.db #0xfd	; 253
      000C6D 03                    3071 	.db #0x03	; 3
      000C6E FF                    3072 	.db #0xff	; 255
      000C6F FD                    3073 	.db #0xfd	; 253
      000C70 EA                    3074 	.db #0xea	; 234
      000C71 BD                    3075 	.db #0xbd	; 189
      000C72 EA                    3076 	.db #0xea	; 234
      000C73 F7                    3077 	.db #0xf7	; 247
      000C74 A8                    3078 	.db #0xa8	; 168
      000C75 D5                    3079 	.db #0xd5	; 213
      000C76 03                    3080 	.db #0x03	; 3
      000C77 C0                    3081 	.db #0xc0	; 192
      000C78 E0                    3082 	.db #0xe0	; 224
      000C79 50                    3083 	.db #0x50	; 80	'P'
      000C7A E8                    3084 	.db #0xe8	; 232
      000C7B 58                    3085 	.db #0x58	; 88	'X'
      000C7C A4                    3086 	.db #0xa4	; 164
      000C7D 04                    3087 	.db #0x04	; 4
      000C7E A2                    3088 	.db #0xa2	; 162
      000C7F 03                    3089 	.db #0x03	; 3
      000C80 01                    3090 	.db #0x01	; 1
      000C81 03                    3091 	.db #0x03	; 3
      000C82 07                    3092 	.db #0x07	; 7
      000C83 0F                    3093 	.db #0x0f	; 15
      000C84 1F                    3094 	.db #0x1f	; 31
      000C85 3A                    3095 	.db #0x3a	; 58
      000C86 3D                    3096 	.db #0x3d	; 61
      000C87 6E                    3097 	.db #0x6e	; 110	'n'
      000C88 03                    3098 	.db #0x03	; 3
      000C89 7F                    3099 	.db #0x7f	; 127
      000C8A FA                    3100 	.db #0xfa	; 250
      000C8B FD                    3101 	.db #0xfd	; 253
      000C8C B2                    3102 	.db #0xb2	; 178
      000C8D E5                    3103 	.db #0xe5	; 229
      000C8E AC                    3104 	.db #0xac	; 172
      000C8F 55                    3105 	.db #0x55	; 85	'U'
      000C90 62                    3106 	.db #0x62	; 98	'b'
      000C91 03                    3107 	.db #0x03	; 3
      000C92 47                    3108 	.db #0x47	; 71	'G'
      000C93 AC                    3109 	.db #0xac	; 172
      000C94 D5                    3110 	.db #0xd5	; 213
      000C95 A2                    3111 	.db #0xa2	; 162
      000C96 51                    3112 	.db #0x51	; 81	'Q'
      000C97 24                    3113 	.db #0x24	; 36
      000C98 51                    3114 	.db #0x51	; 81	'Q'
      000C99 04                    3115 	.db #0x04	; 4
      000C9A 03                    3116 	.db #0x03	; 3
      000C9B 81                    3117 	.db #0x81	; 129
      000C9C 2B                    3118 	.db #0x2b	; 43
      000C9D 53                    3119 	.db #0x53	; 83	'S'
      000C9E A2                    3120 	.db #0xa2	; 162
      000C9F 01                    3121 	.db #0x01	; 1
      000CA0 11                    3122 	.db #0x11	; 17
      000CA1 29                    3123 	.db #0x29	; 41
      000CA2 81                    3124 	.db #0x81	; 129
      000CA3 02                    3125 	.db #0x02	; 2
      000CA4 00                    3126 	.db #0x00	; 0
      000CA5 00                    3127 	.db #0x00	; 0
      000CA6 00                    3128 	.db #0x00	; 0
      000CA7 00                    3129 	.db #0x00	; 0
      000CA8 00                    3130 	.db #0x00	; 0
      000CA9 08                    3131 	.db #0x08	; 8
      000CAA 14                    3132 	.db #0x14	; 20
      000CAB 02                    3133 	.db #0x02	; 2
      000CAC 02                    3134 	.db #0x02	; 2
      000CAD 00                    3135 	.db #0x00	; 0
      000CAE 00                    3136 	.db #0x00	; 0
      000CAF 00                    3137 	.db #0x00	; 0
      000CB0 00                    3138 	.db #0x00	; 0
      000CB1 00                    3139 	.db #0x00	; 0
      000CB2 00                    3140 	.db #0x00	; 0
      000CB3 00                    3141 	.db #0x00	; 0
      000CB4 0C                    3142 	.db #0x0c	; 12
      000CB5 03                    3143 	.db #0x03	; 3
      000CB6 00                    3144 	.db #0x00	; 0
      000CB7 C0                    3145 	.db #0xc0	; 192
      000CB8 A0                    3146 	.db #0xa0	; 160
      000CB9 D0                    3147 	.db #0xd0	; 208
      000CBA A8                    3148 	.db #0xa8	; 168
      000CBB 44                    3149 	.db #0x44	; 68	'D'
      000CBC AA                    3150 	.db #0xaa	; 170
      000CBD 12                    3151 	.db #0x12	; 18
      000CBE 03                    3152 	.db #0x03	; 3
      000CBF 75                    3153 	.db #0x75	; 117	'u'
      000CC0 6B                    3154 	.db #0x6b	; 107	'k'
      000CC1 5D                    3155 	.db #0x5d	; 93
      000CC2 2A                    3156 	.db #0x2a	; 42
      000CC3 34                    3157 	.db #0x34	; 52	'4'
      000CC4 1A                    3158 	.db #0x1a	; 26
      000CC5 08                    3159 	.db #0x08	; 8
      000CC6 07                    3160 	.db #0x07	; 7
      000CC7 03                    3161 	.db #0x03	; 3
      000CC8 C2                    3162 	.db #0xc2	; 194
      000CC9 A2                    3163 	.db #0xa2	; 162
      000CCA 02                    3164 	.db #0x02	; 2
      000CCB 82                    3165 	.db #0x82	; 130
      000CCC 04                    3166 	.db #0x04	; 4
      000CCD 09                    3167 	.db #0x09	; 9
      000CCE 13                    3168 	.db #0x13	; 19
      000CCF E4                    3169 	.db #0xe4	; 228
      000CD0 03                    3170 	.db #0x03	; 3
      000CD1 55                    3171 	.db #0x55	; 85	'U'
      000CD2 22                    3172 	.db #0x22	; 34
      000CD3 14                    3173 	.db #0x14	; 20
      000CD4 09                    3174 	.db #0x09	; 9
      000CD5 C4                    3175 	.db #0xc4	; 196
      000CD6 E1                    3176 	.db #0xe1	; 225
      000CD7 70                    3177 	.db #0x70	; 112	'p'
      000CD8 B8                    3178 	.db #0xb8	; 184
      000CD9 03                    3179 	.db #0x03	; 3
      000CDA 44                    3180 	.db #0x44	; 68	'D'
      000CDB 88                    3181 	.db #0x88	; 136
      000CDC 42                    3182 	.db #0x42	; 66	'B'
      000CDD 80                    3183 	.db #0x80	; 128
      000CDE 00                    3184 	.db #0x00	; 0
      000CDF 00                    3185 	.db #0x00	; 0
      000CE0 00                    3186 	.db #0x00	; 0
      000CE1 FF                    3187 	.db #0xff	; 255
      000CE2 03                    3188 	.db #0x03	; 3
      000CE3 51                    3189 	.db #0x51	; 81	'Q'
      000CE4 81                    3190 	.db #0x81	; 129
      000CE5 01                    3191 	.db #0x01	; 1
      000CE6 01                    3192 	.db #0x01	; 1
      000CE7 02                    3193 	.db #0x02	; 2
      000CE8 04                    3194 	.db #0x04	; 4
      000CE9 38                    3195 	.db #0x38	; 56	'8'
      000CEA C0                    3196 	.db #0xc0	; 192
      000CEB 02                    3197 	.db #0x02	; 2
      000CEC 21                    3198 	.db #0x21	; 33
      000CED 22                    3199 	.db #0x22	; 34
      000CEE A4                    3200 	.db #0xa4	; 164
      000CEF 25                    3201 	.db #0x25	; 37
      000CF0 49                    3202 	.db #0x49	; 73	'I'
      000CF1 59                    3203 	.db #0x59	; 89	'Y'
      000CF2 55                    3204 	.db #0x55	; 85	'U'
      000CF3 AE                    3205 	.db #0xae	; 174
      000CF4 02                    3206 	.db #0x02	; 2
      000CF5 01                    3207 	.db #0x01	; 1
      000CF6 05                    3208 	.db #0x05	; 5
      000CF7 44                    3209 	.db #0x44	; 68	'D'
      000CF8 5C                    3210 	.db #0x5c	; 92
      000CF9 24                    3211 	.db #0x24	; 36
      000CFA 25                    3212 	.db #0x25	; 37
      000CFB DC                    3213 	.db #0xdc	; 220
      000CFC D7                    3214 	.db #0xd7	; 215
      000CFD 02                    3215 	.db #0x02	; 2
      000CFE 00                    3216 	.db #0x00	; 0
      000CFF 20                    3217 	.db #0x20	; 32
      000D00 A0                    3218 	.db #0xa0	; 160
      000D01 A5                    3219 	.db #0xa5	; 165
      000D02 52                    3220 	.db #0x52	; 82	'R'
      000D03 56                    3221 	.db #0x56	; 86	'V'
      000D04 B9                    3222 	.db #0xb9	; 185
      000D05 56                    3223 	.db #0x56	; 86	'V'
      000D06 02                    3224 	.db #0x02	; 2
      000D07 29                    3225 	.db #0x29	; 41
      000D08 25                    3226 	.db #0x25	; 37
      000D09 A5                    3227 	.db #0xa5	; 165
      000D0A 23                    3228 	.db #0x23	; 35
      000D0B 40                    3229 	.db #0x40	; 64
      000D0C 5B                    3230 	.db #0x5b	; 91
      000D0D 55                    3231 	.db #0x55	; 85	'U'
      000D0E AA                    3232 	.db #0xaa	; 170
      000D0F 02                    3233 	.db #0x02	; 2
      000D10 02                    3234 	.db #0x02	; 2
      000D11 05                    3235 	.db #0x05	; 5
      000D12 45                    3236 	.db #0x45	; 69	'E'
      000D13 4D                    3237 	.db #0x4d	; 77	'M'
      000D14 F5                    3238 	.db #0xf5	; 245
      000D15 14                    3239 	.db #0x14	; 20
      000D16 AC                    3240 	.db #0xac	; 172
      000D17 D6                    3241 	.db #0xd6	; 214
      000D18 04                    3242 	.db #0x04	; 4
      000D19 00                    3243 	.db #0x00	; 0
      000D1A 10                    3244 	.db #0x10	; 16
      000D1B 03                    3245 	.db #0x03	; 3
      000D1C 13                    3246 	.db #0x13	; 19
      000D1D 07                    3247 	.db #0x07	; 7
      000D1E 27                    3248 	.db #0x27	; 39
      000D1F 0E                    3249 	.db #0x0e	; 14
      000D20 2E                    3250 	.db #0x2e	; 46
      000D21 17                    3251 	.db #0x17	; 23
      000D22 5F                    3252 	.db #0x5f	; 95
      000D23 3A                    3253 	.db #0x3a	; 58
      000D24 3A                    3254 	.db #0x3a	; 58
      000D25 77                    3255 	.db #0x77	; 119	'w'
      000D26 77                    3256 	.db #0x77	; 119	'w'
      000D27 7A                    3257 	.db #0x7a	; 122	'z'
      000D28 7A                    3258 	.db #0x7a	; 122	'z'
      000D29 03                    3259 	.db #0x03	; 3
      000D2A EE                    3260 	.db #0xee	; 238
      000D2B FF                    3261 	.db #0xff	; 255
      000D2C FB                    3262 	.db #0xfb	; 251
      000D2D BB                    3263 	.db #0xbb	; 187
      000D2E D5                    3264 	.db #0xd5	; 213
      000D2F AB                    3265 	.db #0xab	; 171
      000D30 DD                    3266 	.db #0xdd	; 221
      000D31 EE                    3267 	.db #0xee	; 238
      000D32 03                    3268 	.db #0x03	; 3
      000D33 BE                    3269 	.db #0xbe	; 190
      000D34 F6                    3270 	.db #0xf6	; 246
      000D35 FD                    3271 	.db #0xfd	; 253
      000D36 AA                    3272 	.db #0xaa	; 170
      000D37 DC                    3273 	.db #0xdc	; 220
      000D38 E9                    3274 	.db #0xe9	; 233
      000D39 74                    3275 	.db #0x74	; 116	't'
      000D3A BE                    3276 	.db #0xbe	; 190
      000D3B 03                    3277 	.db #0x03	; 3
      000D3C 00                    3278 	.db #0x00	; 0
      000D3D 01                    3279 	.db #0x01	; 1
      000D3E 07                    3280 	.db #0x07	; 7
      000D3F 0F                    3281 	.db #0x0f	; 15
      000D40 1F                    3282 	.db #0x1f	; 31
      000D41 3F                    3283 	.db #0x3f	; 63
      000D42 7D                    3284 	.db #0x7d	; 125
      000D43 7B                    3285 	.db #0x7b	; 123
      000D44 03                    3286 	.db #0x03	; 3
      000D45 3F                    3287 	.db #0x3f	; 63
      000D46 FF                    3288 	.db #0xff	; 255
      000D47 FF                    3289 	.db #0xff	; 255
      000D48 EB                    3290 	.db #0xeb	; 235
      000D49 FD                    3291 	.db #0xfd	; 253
      000D4A AA                    3292 	.db #0xaa	; 170
      000D4B F7                    3293 	.db #0xf7	; 247
      000D4C AA                    3294 	.db #0xaa	; 170
      000D4D 03                    3295 	.db #0x03	; 3
      000D4E 7F                    3296 	.db #0x7f	; 127
      000D4F FF                    3297 	.db #0xff	; 255
      000D50 FD                    3298 	.db #0xfd	; 253
      000D51 EA                    3299 	.db #0xea	; 234
      000D52 FD                    3300 	.db #0xfd	; 253
      000D53 AA                    3301 	.db #0xaa	; 170
      000D54 F7                    3302 	.db #0xf7	; 247
      000D55 AA                    3303 	.db #0xaa	; 170
      000D56 03                    3304 	.db #0x03	; 3
      000D57 F0                    3305 	.db #0xf0	; 240
      000D58 FE                    3306 	.db #0xfe	; 254
      000D59 ED                    3307 	.db #0xed	; 237
      000D5A BE                    3308 	.db #0xbe	; 190
      000D5B D5                    3309 	.db #0xd5	; 213
      000D5C A8                    3310 	.db #0xa8	; 168
      000D5D 17                    3311 	.db #0x17	; 23
      000D5E EA                    3312 	.db #0xea	; 234
      000D5F 03                    3313 	.db #0x03	; 3
      000D60 00                    3314 	.db #0x00	; 0
      000D61 00                    3315 	.db #0x00	; 0
      000D62 80                    3316 	.db #0x80	; 128
      000D63 E0                    3317 	.db #0xe0	; 224
      000D64 50                    3318 	.db #0x50	; 80	'P'
      000D65 88                    3319 	.db #0x88	; 136
      000D66 24                    3320 	.db #0x24	; 36
      000D67 82                    3321 	.db #0x82	; 130
      000D68 03                    3322 	.db #0x03	; 3
      000D69 38                    3323 	.db #0x38	; 56	'8'
      000D6A DF                    3324 	.db #0xdf	; 223
      000D6B DF                    3325 	.db #0xdf	; 223
      000D6C 7B                    3326 	.db #0x7b	; 123
      000D6D 52                    3327 	.db #0x52	; 82	'R'
      000D6E 8C                    3328 	.db #0x8c	; 140
      000D6F D6                    3329 	.db #0xd6	; 214
      000D70 54                    3330 	.db #0x54	; 84	'T'
      000D71 03                    3331 	.db #0x03	; 3
      000D72 38                    3332 	.db #0x38	; 56	'8'
      000D73 63                    3333 	.db #0x63	; 99	'c'
      000D74 CB                    3334 	.db #0xcb	; 203
      000D75 AF                    3335 	.db #0xaf	; 175
      000D76 E7                    3336 	.db #0xe7	; 231
      000D77 81                    3337 	.db #0x81	; 129
      000D78 2A                    3338 	.db #0x2a	; 42
      000D79 EC                    3339 	.db #0xec	; 236
      000D7A 03                    3340 	.db #0x03	; 3
      000D7B 30                    3341 	.db #0x30	; 48	'0'
      000D7C 7E                    3342 	.db #0x7e	; 126
      000D7D FE                    3343 	.db #0xfe	; 254
      000D7E CF                    3344 	.db #0xcf	; 207
      000D7F A5                    3345 	.db #0xa5	; 165
      000D80 68                    3346 	.db #0x68	; 104	'h'
      000D81 AB                    3347 	.db #0xab	; 171
      000D82 9A                    3348 	.db #0x9a	; 154
      000D83 03                    3349 	.db #0x03	; 3
      000D84 70                    3350 	.db #0x70	; 112	'p'
      000D85 FD                    3351 	.db #0xfd	; 253
      000D86 F7                    3352 	.db #0xf7	; 247
      000D87 75                    3353 	.db #0x75	; 117	'u'
      000D88 E3                    3354 	.db #0xe3	; 227
      000D89 A0                    3355 	.db #0xa0	; 160
      000D8A 15                    3356 	.db #0x15	; 21
      000D8B 76                    3357 	.db #0x76	; 118	'v'
      000D8C 03                    3358 	.db #0x03	; 3
      000D8D FD                    3359 	.db #0xfd	; 253
      000D8E 77                    3360 	.db #0x77	; 119	'w'
      000D8F 7D                    3361 	.db #0x7d	; 125
      000D90 D5                    3362 	.db #0xd5	; 213
      000D91 BB                    3363 	.db #0xbb	; 187
      000D92 51                    3364 	.db #0x51	; 81	'Q'
      000D93 66                    3365 	.db #0x66	; 102	'f'
      000D94 35                    3366 	.db #0x35	; 53	'5'
      000D95 03                    3367 	.db #0x03	; 3
      000D96 D5                    3368 	.db #0xd5	; 213
      000D97 A8                    3369 	.db #0xa8	; 168
      000D98 F7                    3370 	.db #0xf7	; 247
      000D99 DC                    3371 	.db #0xdc	; 220
      000D9A AA                    3372 	.db #0xaa	; 170
      000D9B D4                    3373 	.db #0xd4	; 212
      000D9C 82                    3374 	.db #0x82	; 130
      000D9D 50                    3375 	.db #0x50	; 80	'P'
      000D9E 03                    3376 	.db #0x03	; 3
      000D9F 12                    3377 	.db #0x12	; 18
      000DA0 AA                    3378 	.db #0xaa	; 170
      000DA1 44                    3379 	.db #0x44	; 68	'D'
      000DA2 01                    3380 	.db #0x01	; 1
      000DA3 A2                    3381 	.db #0xa2	; 162
      000DA4 42                    3382 	.db #0x42	; 66	'B'
      000DA5 02                    3383 	.db #0x02	; 2
      000DA6 04                    3384 	.db #0x04	; 4
      000DA7 03                    3385 	.db #0x03	; 3
      000DA8 D5                    3386 	.db #0xd5	; 213
      000DA9 A0                    3387 	.db #0xa0	; 160
      000DAA 83                    3388 	.db #0x83	; 131
      000DAB 46                    3389 	.db #0x46	; 70	'F'
      000DAC 21                    3390 	.db #0x21	; 33
      000DAD 18                    3391 	.db #0x18	; 24
      000DAE 07                    3392 	.db #0x07	; 7
      000DAF 00                    3393 	.db #0x00	; 0
      000DB0 03                    3394 	.db #0x03	; 3
      000DB1 77                    3395 	.db #0x77	; 119	'w'
      000DB2 AE                    3396 	.db #0xae	; 174
      000DB3 5D                    3397 	.db #0x5d	; 93
      000DB4 2A                    3398 	.db #0x2a	; 42
      000DB5 4D                    3399 	.db #0x4d	; 77	'M'
      000DB6 20                    3400 	.db #0x20	; 32
      000DB7 00                    3401 	.db #0x00	; 0
      000DB8 FF                    3402 	.db #0xff	; 255
      000DB9                       3403 _room_2_0_map:
      000DB9 A7 01                 3404 	.dw #0x01a7
      000DBB 01                    3405 	.db #0x01	; 1
      000DBC 02                    3406 	.db #0x02	; 2
      000DBD 03                    3407 	.db #0x03	; 3
      000DBE 04                    3408 	.db #0x04	; 4
      000DBF 05                    3409 	.db #0x05	; 5
      000DC0 06                    3410 	.db #0x06	; 6
      000DC1 07                    3411 	.db #0x07	; 7
      000DC2 08                    3412 	.db #0x08	; 8
      000DC3 C2                    3413 	.db #0xc2	; 194
      000DC4 00                    3414 	.db #0x00	; 0
      000DC5 09                    3415 	.db #0x09	; 9
      000DC6 04                    3416 	.db #0x04	; 4
      000DC7 05                    3417 	.db #0x05	; 5
      000DC8 06                    3418 	.db #0x06	; 6
      000DC9 07                    3419 	.db #0x07	; 7
      000DCA C9                    3420 	.db #0xc9	; 201
      000DCB 00                    3421 	.db #0x00	; 0
      000DCC 0A                    3422 	.db #0x0a	; 10
      000DCD 0B                    3423 	.db #0x0b	; 11
      000DCE 0C                    3424 	.db #0x0c	; 12
      000DCF 0D                    3425 	.db #0x0d	; 13
      000DD0 C2                    3426 	.db #0xc2	; 194
      000DD1 00                    3427 	.db #0x00	; 0
      000DD2 0E                    3428 	.db #0x0e	; 14
      000DD3 0F                    3429 	.db #0x0f	; 15
      000DD4 10                    3430 	.db #0x10	; 16
      000DD5 11                    3431 	.db #0x11	; 17
      000DD6 12                    3432 	.db #0x12	; 18
      000DD7 13                    3433 	.db #0x13	; 19
      000DD8 14                    3434 	.db #0x14	; 20
      000DD9 00                    3435 	.db #0x00	; 0
      000DDA 15                    3436 	.db #0x15	; 21
      000DDB 16                    3437 	.db #0x16	; 22
      000DDC 09                    3438 	.db #0x09	; 9
      000DDD 11                    3439 	.db #0x11	; 17
      000DDE 12                    3440 	.db #0x12	; 18
      000DDF 13                    3441 	.db #0x13	; 19
      000DE0 17                    3442 	.db #0x17	; 23
      000DE1 18                    3443 	.db #0x18	; 24
      000DE2 19                    3444 	.db #0x19	; 25
      000DE3 C7                    3445 	.db #0xc7	; 199
      000DE4 00                    3446 	.db #0x00	; 0
      000DE5 1A                    3447 	.db #0x1a	; 26
      000DE6 1B                    3448 	.db #0x1b	; 27
      000DE7 1C                    3449 	.db #0x1c	; 28
      000DE8 1D                    3450 	.db #0x1d	; 29
      000DE9 C2                    3451 	.db #0xc2	; 194
      000DEA 00                    3452 	.db #0x00	; 0
      000DEB 1E                    3453 	.db #0x1e	; 30
      000DEC 1F                    3454 	.db #0x1f	; 31
      000DED 20                    3455 	.db #0x20	; 32
      000DEE 21                    3456 	.db #0x21	; 33
      000DEF 22                    3457 	.db #0x22	; 34
      000DF0 23                    3458 	.db #0x23	; 35
      000DF1 07                    3459 	.db #0x07	; 7
      000DF2 24                    3460 	.db #0x24	; 36
      000DF3 02                    3461 	.db #0x02	; 2
      000DF4 25                    3462 	.db #0x25	; 37
      000DF5 09                    3463 	.db #0x09	; 9
      000DF6 21                    3464 	.db #0x21	; 33
      000DF7 22                    3465 	.db #0x22	; 34
      000DF8 23                    3466 	.db #0x23	; 35
      000DF9 26                    3467 	.db #0x26	; 38
      000DFA 02                    3468 	.db #0x02	; 2
      000DFB 27                    3469 	.db #0x27	; 39
      000DFC C2                    3470 	.db #0xc2	; 194
      000DFD 00                    3471 	.db #0x00	; 0
      000DFE 28                    3472 	.db #0x28	; 40
      000DFF 29                    3473 	.db #0x29	; 41
      000E00 C3                    3474 	.db #0xc3	; 195
      000E01 00                    3475 	.db #0x00	; 0
      000E02 2A                    3476 	.db #0x2a	; 42
      000E03 2B                    3477 	.db #0x2b	; 43
      000E04 2C                    3478 	.db #0x2c	; 44
      000E05 00                    3479 	.db #0x00	; 0
      000E06 2D                    3480 	.db #0x2d	; 45
      000E07 2E                    3481 	.db #0x2e	; 46
      000E08 00                    3482 	.db #0x00	; 0
      000E09 2F                    3483 	.db #0x2f	; 47
      000E0A 30                    3484 	.db #0x30	; 48	'0'
      000E0B 31                    3485 	.db #0x31	; 49	'1'
      000E0C 32                    3486 	.db #0x32	; 50	'2'
      000E0D 33                    3487 	.db #0x33	; 51	'3'
      000E0E 07                    3488 	.db #0x07	; 7
      000E0F 00                    3489 	.db #0x00	; 0
      000E10 34                    3490 	.db #0x34	; 52	'4'
      000E11 35                    3491 	.db #0x35	; 53	'5'
      000E12 36                    3492 	.db #0x36	; 54	'6'
      000E13 31                    3493 	.db #0x31	; 49	'1'
      000E14 32                    3494 	.db #0x32	; 50	'2'
      000E15 33                    3495 	.db #0x33	; 51	'3'
      000E16 07                    3496 	.db #0x07	; 7
      000E17 37                    3497 	.db #0x37	; 55	'7'
      000E18 C4                    3498 	.db #0xc4	; 196
      000E19 00                    3499 	.db #0x00	; 0
      000E1A 38                    3500 	.db #0x38	; 56	'8'
      000E1B 0E                    3501 	.db #0x0e	; 14
      000E1C C2                    3502 	.db #0xc2	; 194
      000E1D 00                    3503 	.db #0x00	; 0
      000E1E 39                    3504 	.db #0x39	; 57	'9'
      000E1F 3A                    3505 	.db #0x3a	; 58
      000E20 3B                    3506 	.db #0x3b	; 59
      000E21 3C                    3507 	.db #0x3c	; 60
      000E22 3D                    3508 	.db #0x3d	; 61
      000E23 C3                    3509 	.db #0xc3	; 195
      000E24 00                    3510 	.db #0x00	; 0
      000E25 2A                    3511 	.db #0x2a	; 42
      000E26 04                    3512 	.db #0x04	; 4
      000E27 05                    3513 	.db #0x05	; 5
      000E28 06                    3514 	.db #0x06	; 6
      000E29 07                    3515 	.db #0x07	; 7
      000E2A C3                    3516 	.db #0xc3	; 195
      000E2B 00                    3517 	.db #0x00	; 0
      000E2C 09                    3518 	.db #0x09	; 9
      000E2D 04                    3519 	.db #0x04	; 4
      000E2E 05                    3520 	.db #0x05	; 5
      000E2F 06                    3521 	.db #0x06	; 6
      000E30 07                    3522 	.db #0x07	; 7
      000E31 C4                    3523 	.db #0xc4	; 196
      000E32 00                    3524 	.db #0x00	; 0
      000E33 3E                    3525 	.db #0x3e	; 62
      000E34 3F                    3526 	.db #0x3f	; 63
      000E35 1E                    3527 	.db #0x1e	; 30
      000E36 40                    3528 	.db #0x40	; 64
      000E37 0F                    3529 	.db #0x0f	; 15
      000E38 0A                    3530 	.db #0x0a	; 10
      000E39 0B                    3531 	.db #0x0b	; 11
      000E3A 41                    3532 	.db #0x41	; 65	'A'
      000E3B 42                    3533 	.db #0x42	; 66	'B'
      000E3C C4                    3534 	.db #0xc4	; 196
      000E3D 00                    3535 	.db #0x00	; 0
      000E3E 09                    3536 	.db #0x09	; 9
      000E3F 11                    3537 	.db #0x11	; 17
      000E40 12                    3538 	.db #0x12	; 18
      000E41 13                    3539 	.db #0x13	; 19
      000E42 07                    3540 	.db #0x07	; 7
      000E43 C3                    3541 	.db #0xc3	; 195
      000E44 00                    3542 	.db #0x00	; 0
      000E45 09                    3543 	.db #0x09	; 9
      000E46 11                    3544 	.db #0x11	; 17
      000E47 12                    3545 	.db #0x12	; 18
      000E48 13                    3546 	.db #0x13	; 19
      000E49 07                    3547 	.db #0x07	; 7
      000E4A C4                    3548 	.db #0xc4	; 196
      000E4B 00                    3549 	.db #0x00	; 0
      000E4C 43                    3550 	.db #0x43	; 67	'C'
      000E4D 02                    3551 	.db #0x02	; 2
      000E4E 44                    3552 	.db #0x44	; 68	'D'
      000E4F 45                    3553 	.db #0x45	; 69	'E'
      000E50 1F                    3554 	.db #0x1f	; 31
      000E51 20                    3555 	.db #0x20	; 32
      000E52 1B                    3556 	.db #0x1b	; 27
      000E53 46                    3557 	.db #0x46	; 70	'F'
      000E54 C4                    3558 	.db #0xc4	; 196
      000E55 00                    3559 	.db #0x00	; 0
      000E56 47                    3560 	.db #0x47	; 71	'G'
      000E57 48                    3561 	.db #0x48	; 72	'H'
      000E58 49                    3562 	.db #0x49	; 73	'I'
      000E59 48                    3563 	.db #0x48	; 72	'H'
      000E5A 49                    3564 	.db #0x49	; 73	'I'
      000E5B 48                    3565 	.db #0x48	; 72	'H'
      000E5C 49                    3566 	.db #0x49	; 73	'I'
      000E5D 48                    3567 	.db #0x48	; 72	'H'
      000E5E 4A                    3568 	.db #0x4a	; 74	'J'
      000E5F 09                    3569 	.db #0x09	; 9
      000E60 21                    3570 	.db #0x21	; 33
      000E61 22                    3571 	.db #0x22	; 34
      000E62 23                    3572 	.db #0x23	; 35
      000E63 07                    3573 	.db #0x07	; 7
      000E64 C4                    3574 	.db #0xc4	; 196
      000E65 00                    3575 	.db #0x00	; 0
      000E66 4B                    3576 	.db #0x4b	; 75	'K'
      000E67 37                    3577 	.db #0x37	; 55	'7'
      000E68 C2                    3578 	.db #0xc2	; 194
      000E69 00                    3579 	.db #0x00	; 0
      000E6A 2F                    3580 	.db #0x2f	; 47
      000E6B 30                    3581 	.db #0x30	; 48	'0'
      000E6C 2B                    3582 	.db #0x2b	; 43
      000E6D 46                    3583 	.db #0x46	; 70	'F'
      000E6E C4                    3584 	.db #0xc4	; 196
      000E6F 00                    3585 	.db #0x00	; 0
      000E70 4C                    3586 	.db #0x4c	; 76	'L'
      000E71 49                    3587 	.db #0x49	; 73	'I'
      000E72 48                    3588 	.db #0x48	; 72	'H'
      000E73 49                    3589 	.db #0x49	; 73	'I'
      000E74 48                    3590 	.db #0x48	; 72	'H'
      000E75 49                    3591 	.db #0x49	; 73	'I'
      000E76 48                    3592 	.db #0x48	; 72	'H'
      000E77 49                    3593 	.db #0x49	; 73	'I'
      000E78 4D                    3594 	.db #0x4d	; 77	'M'
      000E79 09                    3595 	.db #0x09	; 9
      000E7A 31                    3596 	.db #0x31	; 49	'1'
      000E7B 32                    3597 	.db #0x32	; 50	'2'
      000E7C 33                    3598 	.db #0x33	; 51	'3'
      000E7D 07                    3599 	.db #0x07	; 7
      000E7E C9                    3600 	.db #0xc9	; 201
      000E7F 00                    3601 	.db #0x00	; 0
      000E80 2A                    3602 	.db #0x2a	; 42
      000E81 3A                    3603 	.db #0x3a	; 58
      000E82 3B                    3604 	.db #0x3b	; 59
      000E83 C4                    3605 	.db #0xc4	; 196
      000E84 00                    3606 	.db #0x00	; 0
      000E85 4E                    3607 	.db #0x4e	; 78	'N'
      000E86 48                    3608 	.db #0x48	; 72	'H'
      000E87 49                    3609 	.db #0x49	; 73	'I'
      000E88 48                    3610 	.db #0x48	; 72	'H'
      000E89 49                    3611 	.db #0x49	; 73	'I'
      000E8A 48                    3612 	.db #0x48	; 72	'H'
      000E8B 49                    3613 	.db #0x49	; 73	'I'
      000E8C 48                    3614 	.db #0x48	; 72	'H'
      000E8D 4F                    3615 	.db #0x4f	; 79	'O'
      000E8E 09                    3616 	.db #0x09	; 9
      000E8F 04                    3617 	.db #0x04	; 4
      000E90 05                    3618 	.db #0x05	; 5
      000E91 06                    3619 	.db #0x06	; 6
      000E92 50                    3620 	.db #0x50	; 80	'P'
      000E93 51                    3621 	.db #0x51	; 81	'Q'
      000E94 52                    3622 	.db #0x52	; 82	'R'
      000E95 15                    3623 	.db #0x15	; 21
      000E96 16                    3624 	.db #0x16	; 22
      000E97 C3                    3625 	.db #0xc3	; 195
      000E98 00                    3626 	.db #0x00	; 0
      000E99 53                    3627 	.db #0x53	; 83	'S'
      000E9A 18                    3628 	.db #0x18	; 24
      000E9B 54                    3629 	.db #0x54	; 84	'T'
      000E9C 0B                    3630 	.db #0x0b	; 11
      000E9D 55                    3631 	.db #0x55	; 85	'U'
      000E9E C5                    3632 	.db #0xc5	; 197
      000E9F 00                    3633 	.db #0x00	; 0
      000EA0 56                    3634 	.db #0x56	; 86	'V'
      000EA1 57                    3635 	.db #0x57	; 87	'W'
      000EA2 56                    3636 	.db #0x56	; 86	'V'
      000EA3 57                    3637 	.db #0x57	; 87	'W'
      000EA4 56                    3638 	.db #0x56	; 86	'V'
      000EA5 57                    3639 	.db #0x57	; 87	'W'
      000EA6 56                    3640 	.db #0x56	; 86	'V'
      000EA7 00                    3641 	.db #0x00	; 0
      000EA8 09                    3642 	.db #0x09	; 9
      000EA9 11                    3643 	.db #0x11	; 17
      000EAA 12                    3644 	.db #0x12	; 18
      000EAB 13                    3645 	.db #0x13	; 19
      000EAC 58                    3646 	.db #0x58	; 88	'X'
      000EAD 59                    3647 	.db #0x59	; 89	'Y'
      000EAE 24                    3648 	.db #0x24	; 36
      000EAF 02                    3649 	.db #0x02	; 2
      000EB0 25                    3650 	.db #0x25	; 37
      000EB1 C3                    3651 	.db #0xc3	; 195
      000EB2 00                    3652 	.db #0x00	; 0
      000EB3 01                    3653 	.db #0x01	; 1
      000EB4 02                    3654 	.db #0x02	; 2
      000EB5 03                    3655 	.db #0x03	; 3
      000EB6 1B                    3656 	.db #0x1b	; 27
      000EB7 46                    3657 	.db #0x46	; 70	'F'
      000EB8 C5                    3658 	.db #0xc5	; 197
      000EB9 00                    3659 	.db #0x00	; 0
      000EBA 5A                    3660 	.db #0x5a	; 90	'Z'
      000EBB 5B                    3661 	.db #0x5b	; 91
      000EBC 5C                    3662 	.db #0x5c	; 92
      000EBD 5D                    3663 	.db #0x5d	; 93
      000EBE 5E                    3664 	.db #0x5e	; 94
      000EBF 5F                    3665 	.db #0x5f	; 95
      000EC0 5A                    3666 	.db #0x5a	; 90	'Z'
      000EC1 00                    3667 	.db #0x00	; 0
      000EC2 09                    3668 	.db #0x09	; 9
      000EC3 21                    3669 	.db #0x21	; 33
      000EC4 22                    3670 	.db #0x22	; 34
      000EC5 23                    3671 	.db #0x23	; 35
      000EC6 07                    3672 	.db #0x07	; 7
      000EC7 C2                    3673 	.db #0xc2	; 194
      000EC8 00                    3674 	.db #0x00	; 0
      000EC9 34                    3675 	.db #0x34	; 52	'4'
      000ECA C5                    3676 	.db #0xc5	; 197
      000ECB 00                    3677 	.db #0x00	; 0
      000ECC 60                    3678 	.db #0x60	; 96
      000ECD 10                    3679 	.db #0x10	; 16
      000ECE 2B                    3680 	.db #0x2b	; 43
      000ECF 46                    3681 	.db #0x46	; 70	'F'
      000ED0 00                    3682 	.db #0x00	; 0
      000ED1 15                    3683 	.db #0x15	; 21
      000ED2 16                    3684 	.db #0x16	; 22
      000ED3 C2                    3685 	.db #0xc2	; 194
      000ED4 00                    3686 	.db #0x00	; 0
      000ED5 61                    3687 	.db #0x61	; 97	'a'
      000ED6 62                    3688 	.db #0x62	; 98	'b'
      000ED7 63                    3689 	.db #0x63	; 99	'c'
      000ED8 64                    3690 	.db #0x64	; 100	'd'
      000ED9 65                    3691 	.db #0x65	; 101	'e'
      000EDA 66                    3692 	.db #0x66	; 102	'f'
      000EDB 61                    3693 	.db #0x61	; 97	'a'
      000EDC 67                    3694 	.db #0x67	; 103	'g'
      000EDD 68                    3695 	.db #0x68	; 104	'h'
      000EDE 67                    3696 	.db #0x67	; 103	'g'
      000EDF 68                    3697 	.db #0x68	; 104	'h'
      000EE0 67                    3698 	.db #0x67	; 103	'g'
      000EE1 68                    3699 	.db #0x68	; 104	'h'
      000EE2 67                    3700 	.db #0x67	; 103	'g'
      000EE3 68                    3701 	.db #0x68	; 104	'h'
      000EE4 67                    3702 	.db #0x67	; 103	'g'
      000EE5 68                    3703 	.db #0x68	; 104	'h'
      000EE6 C5                    3704 	.db #0xc5	; 197
      000EE7 00                    3705 	.db #0x00	; 0
      000EE8 39                    3706 	.db #0x39	; 57	'9'
      000EE9 3A                    3707 	.db #0x3a	; 58
      000EEA 46                    3708 	.db #0x46	; 70	'F'
      000EEB 08                    3709 	.db #0x08	; 8
      000EEC 02                    3710 	.db #0x02	; 2
      000EED 25                    3711 	.db #0x25	; 37
      000EEE C2                    3712 	.db #0xc2	; 194
      000EEF 00                    3713 	.db #0x00	; 0
      000EF0 56                    3714 	.db #0x56	; 86	'V'
      000EF1 57                    3715 	.db #0x57	; 87	'W'
      000EF2 56                    3716 	.db #0x56	; 86	'V'
      000EF3 57                    3717 	.db #0x57	; 87	'W'
      000EF4 65                    3718 	.db #0x65	; 101	'e'
      000EF5 69                    3719 	.db #0x69	; 105	'i'
      000EF6 56                    3720 	.db #0x56	; 86	'V'
      000EF7 6A                    3721 	.db #0x6a	; 106	'j'
      000EF8 6B                    3722 	.db #0x6b	; 107	'k'
      000EF9 6A                    3723 	.db #0x6a	; 106	'j'
      000EFA 6B                    3724 	.db #0x6b	; 107	'k'
      000EFB 6A                    3725 	.db #0x6a	; 106	'j'
      000EFC 6B                    3726 	.db #0x6b	; 107	'k'
      000EFD 6A                    3727 	.db #0x6a	; 106	'j'
      000EFE 6B                    3728 	.db #0x6b	; 107	'k'
      000EFF 6A                    3729 	.db #0x6a	; 106	'j'
      000F00 6B                    3730 	.db #0x6b	; 107	'k'
      000F01 67                    3731 	.db #0x67	; 103	'g'
      000F02 68                    3732 	.db #0x68	; 104	'h'
      000F03 C3                    3733 	.db #0xc3	; 195
      000F04 00                    3734 	.db #0x00	; 0
      000F05 0A                    3735 	.db #0x0a	; 10
      000F06 0B                    3736 	.db #0x0b	; 11
      000F07 14                    3737 	.db #0x14	; 20
      000F08 6C                    3738 	.db #0x6c	; 108	'l'
      000F09 34                    3739 	.db #0x34	; 52	'4'
      000F0A 6D                    3740 	.db #0x6d	; 109	'm'
      000F0B 00                    3741 	.db #0x00	; 0
      000F0C D2                    3742 	.db #0xd2	; 210
      000F0D 6E                    3743 	.db #0x6e	; 110	'n'
      000F0E 6A                    3744 	.db #0x6a	; 106	'j'
      000F0F 6B                    3745 	.db #0x6b	; 107	'k'
      000F10 67                    3746 	.db #0x67	; 103	'g'
      000F11 68                    3747 	.db #0x68	; 104	'h'
      000F12 00                    3748 	.db #0x00	; 0
      000F13 1A                    3749 	.db #0x1a	; 26
      000F14 1B                    3750 	.db #0x1b	; 27
      000F15 46                    3751 	.db #0x46	; 70	'F'
      000F16 C5                    3752 	.db #0xc5	; 197
      000F17 00                    3753 	.db #0x00	; 0
      000F18 09                    3754 	.db #0x09	; 9
      000F19 21                    3755 	.db #0x21	; 33
      000F1A 22                    3756 	.db #0x22	; 34
      000F1B 23                    3757 	.db #0x23	; 35
      000F1C 07                    3758 	.db #0x07	; 7
      000F1D C3                    3759 	.db #0xc3	; 195
      000F1E 00                    3760 	.db #0x00	; 0
      000F1F 09                    3761 	.db #0x09	; 9
      000F20 21                    3762 	.db #0x21	; 33
      000F21 22                    3763 	.db #0x22	; 34
      000F22 23                    3764 	.db #0x23	; 35
      000F23 07                    3765 	.db #0x07	; 7
      000F24 00                    3766 	.db #0x00	; 0
      000F25 6F                    3767 	.db #0x6f	; 111	'o'
      000F26 70                    3768 	.db #0x70	; 112	'p'
      000F27 00                    3769 	.db #0x00	; 0
      000F28 C2                    3770 	.db #0xc2	; 194
      000F29 6E                    3771 	.db #0x6e	; 110	'n'
      000F2A 6A                    3772 	.db #0x6a	; 106	'j'
      000F2B 6B                    3773 	.db #0x6b	; 107	'k'
      000F2C 67                    3774 	.db #0x67	; 103	'g'
      000F2D 68                    3775 	.db #0x68	; 104	'h'
      000F2E 2B                    3776 	.db #0x2b	; 43
      000F2F 46                    3777 	.db #0x46	; 70	'F'
      000F30 C5                    3778 	.db #0xc5	; 197
      000F31 00                    3779 	.db #0x00	; 0
      000F32 09                    3780 	.db #0x09	; 9
      000F33 31                    3781 	.db #0x31	; 49	'1'
      000F34 32                    3782 	.db #0x32	; 50	'2'
      000F35 33                    3783 	.db #0x33	; 51	'3'
      000F36 07                    3784 	.db #0x07	; 7
      000F37 C3                    3785 	.db #0xc3	; 195
      000F38 00                    3786 	.db #0x00	; 0
      000F39 09                    3787 	.db #0x09	; 9
      000F3A 31                    3788 	.db #0x31	; 49	'1'
      000F3B 32                    3789 	.db #0x32	; 50	'2'
      000F3C 33                    3790 	.db #0x33	; 51	'3'
      000F3D 07                    3791 	.db #0x07	; 7
      000F3E 00                    3792 	.db #0x00	; 0
      000F3F 71                    3793 	.db #0x71	; 113	'q'
      000F40 72                    3794 	.db #0x72	; 114	'r'
      000F41 C3                    3795 	.db #0xc3	; 195
      000F42 00                    3796 	.db #0x00	; 0
      000F43 C2                    3797 	.db #0xc2	; 194
      000F44 6E                    3798 	.db #0x6e	; 110	'n'
      000F45 6A                    3799 	.db #0x6a	; 106	'j'
      000F46 6B                    3800 	.db #0x6b	; 107	'k'
      000F47 3A                    3801 	.db #0x3a	; 58
      000F48 3B                    3802 	.db #0x3b	; 59
      000F49 C5                    3803 	.db #0xc5	; 197
      000F4A 00                    3804 	.db #0x00	; 0
      000F4B 09                    3805 	.db #0x09	; 9
      000F4C 04                    3806 	.db #0x04	; 4
      000F4D 05                    3807 	.db #0x05	; 5
      000F4E 06                    3808 	.db #0x06	; 6
      000F4F 17                    3809 	.db #0x17	; 23
      000F50 02                    3810 	.db #0x02	; 2
      000F51 19                    3811 	.db #0x19	; 25
      000F52 00                    3812 	.db #0x00	; 0
      000F53 09                    3813 	.db #0x09	; 9
      000F54 04                    3814 	.db #0x04	; 4
      000F55 05                    3815 	.db #0x05	; 5
      000F56 06                    3816 	.db #0x06	; 6
      000F57 07                    3817 	.db #0x07	; 7
      000F58 00                    3818 	.db #0x00	; 0
      000F59 71                    3819 	.db #0x71	; 113	'q'
      000F5A 72                    3820 	.db #0x72	; 114	'r'
      000F5B C5                    3821 	.db #0xc5	; 197
      000F5C 00                    3822 	.db #0x00	; 0
      000F5D C3                    3823 	.db #0xc3	; 195
      000F5E 6E                    3824 	.db #0x6e	; 110	'n'
      000F5F 55                    3825 	.db #0x55	; 85	'U'
      000F60 C3                    3826 	.db #0xc3	; 195
      000F61 00                    3827 	.db #0x00	; 0
      000F62                       3828 _room_2_0_coll:
      000F62 29 00                 3829 	.dw #0x0029
      000F64 FF                    3830 	.db #0xff	; 255
      000F65 00                    3831 	.db #0x00	; 0
      000F66 FF                    3832 	.db #0xff	; 255
      000F67 00                    3833 	.db #0x00	; 0
      000F68 F7                    3834 	.db #0xf7	; 247
      000F69 00                    3835 	.db #0x00	; 0
      000F6A 02                    3836 	.db #0x02	; 2
      000F6B C7                    3837 	.db #0xc7	; 199
      000F6C 01                    3838 	.db #0x01	; 1
      000F6D 02                    3839 	.db #0x02	; 2
      000F6E FF                    3840 	.db #0xff	; 255
      000F6F 00                    3841 	.db #0x00	; 0
      000F70 C2                    3842 	.db #0xc2	; 194
      000F71 00                    3843 	.db #0x00	; 0
      000F72 C2                    3844 	.db #0xc2	; 194
      000F73 02                    3845 	.db #0x02	; 2
      000F74 DB                    3846 	.db #0xdb	; 219
      000F75 00                    3847 	.db #0x00	; 0
      000F76 02                    3848 	.db #0x02	; 2
      000F77 01                    3849 	.db #0x01	; 1
      000F78 FF                    3850 	.db #0xff	; 255
      000F79 00                    3851 	.db #0x00	; 0
      000F7A EA                    3852 	.db #0xea	; 234
      000F7B 00                    3853 	.db #0x00	; 0
      000F7C D1                    3854 	.db #0xd1	; 209
      000F7D 01                    3855 	.db #0x01	; 1
      000F7E 02                    3856 	.db #0x02	; 2
      000F7F DE                    3857 	.db #0xde	; 222
      000F80 00                    3858 	.db #0x00	; 0
      000F81 01                    3859 	.db #0x01	; 1
      000F82 02                    3860 	.db #0x02	; 2
      000F83 DE                    3861 	.db #0xde	; 222
      000F84 00                    3862 	.db #0x00	; 0
      000F85 01                    3863 	.db #0x01	; 1
      000F86 02                    3864 	.db #0x02	; 2
      000F87 DE                    3865 	.db #0xde	; 222
      000F88 00                    3866 	.db #0x00	; 0
      000F89 C3                    3867 	.db #0xc3	; 195
      000F8A 01                    3868 	.db #0x01	; 1
      000F8B C4                    3869 	.db #0xc4	; 196
      000F8C 00                    3870 	.db #0x00	; 0
      000F8D                       3871 _room_2_0_tiles:
      000F8D 73                    3872 	.db #0x73	; 115	's'
      000F8E 00                    3873 	.db #0x00	; 0
      000F8F 02                    3874 	.db #0x02	; 2
      000F90 03                    3875 	.db #0x03	; 3
      000F91 02                    3876 	.db #0x02	; 2
      000F92 0C                    3877 	.db #0x0c	; 12
      000F93 05                    3878 	.db #0x05	; 5
      000F94 00                    3879 	.db #0x00	; 0
      000F95 01                    3880 	.db #0x01	; 1
      000F96 02                    3881 	.db #0x02	; 2
      000F97 01                    3882 	.db #0x01	; 1
      000F98 02                    3883 	.db #0x02	; 2
      000F99 B0                    3884 	.db #0xb0	; 176
      000F9A 4C                    3885 	.db #0x4c	; 76	'L'
      000F9B 12                    3886 	.db #0x12	; 18
      000F9C CB                    3887 	.db #0xcb	; 203
      000F9D 34                    3888 	.db #0x34	; 52	'4'
      000F9E A6                    3889 	.db #0xa6	; 166
      000F9F 8D                    3890 	.db #0x8d	; 141
      000FA0 40                    3891 	.db #0x40	; 64
      000FA1 04                    3892 	.db #0x04	; 4
      000FA2 00                    3893 	.db #0x00	; 0
      000FA3 20                    3894 	.db #0x20	; 32
      000FA4 0A                    3895 	.db #0x0a	; 10
      000FA5 8A                    3896 	.db #0x8a	; 138
      000FA6 02                    3897 	.db #0x02	; 2
      000FA7 82                    3898 	.db #0x82	; 130
      000FA8 0A                    3899 	.db #0x0a	; 10
      000FA9 2A                    3900 	.db #0x2a	; 42
      000FAA 02                    3901 	.db #0x02	; 2
      000FAB 02                    3902 	.db #0x02	; 2
      000FAC 0A                    3903 	.db #0x0a	; 10
      000FAD 6A                    3904 	.db #0x6a	; 106	'j'
      000FAE 01                    3905 	.db #0x01	; 1
      000FAF 81                    3906 	.db #0x81	; 129
      000FB0 0A                    3907 	.db #0x0a	; 10
      000FB1 2A                    3908 	.db #0x2a	; 42
      000FB2 03                    3909 	.db #0x03	; 3
      000FB3 3A                    3910 	.db #0x3a	; 58
      000FB4 46                    3911 	.db #0x46	; 70	'F'
      000FB5 2A                    3912 	.db #0x2a	; 42
      000FB6 16                    3913 	.db #0x16	; 22
      000FB7 22                    3914 	.db #0x22	; 34
      000FB8 17                    3915 	.db #0x17	; 23
      000FB9 32                    3916 	.db #0x32	; 50	'2'
      000FBA 57                    3917 	.db #0x57	; 87	'W'
      000FBB 03                    3918 	.db #0x03	; 3
      000FBC FA                    3919 	.db #0xfa	; 250
      000FBD 5F                    3920 	.db #0x5f	; 95
      000FBE FA                    3921 	.db #0xfa	; 250
      000FBF 5F                    3922 	.db #0x5f	; 95
      000FC0 FA                    3923 	.db #0xfa	; 250
      000FC1 4F                    3924 	.db #0x4f	; 79	'O'
      000FC2 EA                    3925 	.db #0xea	; 234
      000FC3 4F                    3926 	.db #0x4f	; 79	'O'
      000FC4 03                    3927 	.db #0x03	; 3
      000FC5 66                    3928 	.db #0x66	; 102	'f'
      000FC6 54                    3929 	.db #0x54	; 84	'T'
      000FC7 6A                    3930 	.db #0x6a	; 106	'j'
      000FC8 54                    3931 	.db #0x54	; 84	'T'
      000FC9 66                    3932 	.db #0x66	; 102	'f'
      000FCA 54                    3933 	.db #0x54	; 84	'T'
      000FCB E6                    3934 	.db #0xe6	; 230
      000FCC 54                    3935 	.db #0x54	; 84	'T'
      000FCD 03                    3936 	.db #0x03	; 3
      000FCE 80                    3937 	.db #0x80	; 128
      000FCF 10                    3938 	.db #0x10	; 16
      000FD0 80                    3939 	.db #0x80	; 128
      000FD1 10                    3940 	.db #0x10	; 16
      000FD2 80                    3941 	.db #0x80	; 128
      000FD3 10                    3942 	.db #0x10	; 16
      000FD4 80                    3943 	.db #0x80	; 128
      000FD5 10                    3944 	.db #0x10	; 16
      000FD6 03                    3945 	.db #0x03	; 3
      000FD7 00                    3946 	.db #0x00	; 0
      000FD8 00                    3947 	.db #0x00	; 0
      000FD9 00                    3948 	.db #0x00	; 0
      000FDA 10                    3949 	.db #0x10	; 16
      000FDB A0                    3950 	.db #0xa0	; 160
      000FDC 40                    3951 	.db #0x40	; 64
      000FDD 40                    3952 	.db #0x40	; 64
      000FDE 98                    3953 	.db #0x98	; 152
      000FDF 03                    3954 	.db #0x03	; 3
      000FE0 08                    3955 	.db #0x08	; 8
      000FE1 01                    3956 	.db #0x01	; 1
      000FE2 08                    3957 	.db #0x08	; 8
      000FE3 01                    3958 	.db #0x01	; 1
      000FE4 08                    3959 	.db #0x08	; 8
      000FE5 01                    3960 	.db #0x01	; 1
      000FE6 08                    3961 	.db #0x08	; 8
      000FE7 01                    3962 	.db #0x01	; 1
      000FE8 03                    3963 	.db #0x03	; 3
      000FE9 01                    3964 	.db #0x01	; 1
      000FEA 0A                    3965 	.db #0x0a	; 10
      000FEB 01                    3966 	.db #0x01	; 1
      000FEC 0A                    3967 	.db #0x0a	; 10
      000FED 01                    3968 	.db #0x01	; 1
      000FEE 0A                    3969 	.db #0x0a	; 10
      000FEF 01                    3970 	.db #0x01	; 1
      000FF0 0A                    3971 	.db #0x0a	; 10
      000FF1 03                    3972 	.db #0x03	; 3
      000FF2 5F                    3973 	.db #0x5f	; 95
      000FF3 EA                    3974 	.db #0xea	; 234
      000FF4 4F                    3975 	.db #0x4f	; 79	'O'
      000FF5 EA                    3976 	.db #0xea	; 234
      000FF6 4F                    3977 	.db #0x4f	; 79	'O'
      000FF7 EA                    3978 	.db #0xea	; 234
      000FF8 5F                    3979 	.db #0x5f	; 95
      000FF9 FA                    3980 	.db #0xfa	; 250
      000FFA 04                    3981 	.db #0x04	; 4
      000FFB 50                    3982 	.db #0x50	; 80	'P'
      000FFC 50                    3983 	.db #0x50	; 80	'P'
      000FFD 80                    3984 	.db #0x80	; 128
      000FFE 80                    3985 	.db #0x80	; 128
      000FFF 50                    3986 	.db #0x50	; 80	'P'
      001000 56                    3987 	.db #0x56	; 86	'V'
      001001 C0                    3988 	.db #0xc0	; 192
      001002 C5                    3989 	.db #0xc5	; 197
      001003 50                    3990 	.db #0x50	; 80	'P'
      001004 50                    3991 	.db #0x50	; 80	'P'
      001005 40                    3992 	.db #0x40	; 64
      001006 43                    3993 	.db #0x43	; 67	'C'
      001007 50                    3994 	.db #0x50	; 80	'P'
      001008 54                    3995 	.db #0x54	; 84	'T'
      001009 00                    3996 	.db #0x00	; 0
      00100A 00                    3997 	.db #0x00	; 0
      00100B 02                    3998 	.db #0x02	; 2
      00100C 00                    3999 	.db #0x00	; 0
      00100D 00                    4000 	.db #0x00	; 0
      00100E 00                    4001 	.db #0x00	; 0
      00100F 00                    4002 	.db #0x00	; 0
      001010 00                    4003 	.db #0x00	; 0
      001011 40                    4004 	.db #0x40	; 64
      001012 A0                    4005 	.db #0xa0	; 160
      001013 00                    4006 	.db #0x00	; 0
      001014 03                    4007 	.db #0x03	; 3
      001015 00                    4008 	.db #0x00	; 0
      001016 00                    4009 	.db #0x00	; 0
      001017 00                    4010 	.db #0x00	; 0
      001018 00                    4011 	.db #0x00	; 0
      001019 80                    4012 	.db #0x80	; 128
      00101A C0                    4013 	.db #0xc0	; 192
      00101B 60                    4014 	.db #0x60	; 96
      00101C 70                    4015 	.db #0x70	; 112	'p'
      00101D 03                    4016 	.db #0x03	; 3
      00101E 00                    4017 	.db #0x00	; 0
      00101F 00                    4018 	.db #0x00	; 0
      001020 00                    4019 	.db #0x00	; 0
      001021 00                    4020 	.db #0x00	; 0
      001022 42                    4021 	.db #0x42	; 66	'B'
      001023 24                    4022 	.db #0x24	; 36
      001024 18                    4023 	.db #0x18	; 24
      001025 10                    4024 	.db #0x10	; 16
      001026 04                    4025 	.db #0x04	; 4
      001027 01                    4026 	.db #0x01	; 1
      001028 21                    4027 	.db #0x21	; 33
      001029 0A                    4028 	.db #0x0a	; 10
      00102A 8A                    4029 	.db #0x8a	; 138
      00102B 02                    4030 	.db #0x02	; 2
      00102C 42                    4031 	.db #0x42	; 66	'B'
      00102D 0A                    4032 	.db #0x0a	; 10
      00102E 0A                    4033 	.db #0x0a	; 10
      00102F 01                    4034 	.db #0x01	; 1
      001030 01                    4035 	.db #0x01	; 1
      001031 0A                    4036 	.db #0x0a	; 10
      001032 0A                    4037 	.db #0x0a	; 10
      001033 01                    4038 	.db #0x01	; 1
      001034 01                    4039 	.db #0x01	; 1
      001035 0A                    4040 	.db #0x0a	; 10
      001036 0A                    4041 	.db #0x0a	; 10
      001037 03                    4042 	.db #0x03	; 3
      001038 3A                    4043 	.db #0x3a	; 58
      001039 47                    4044 	.db #0x47	; 71	'G'
      00103A 2A                    4045 	.db #0x2a	; 42
      00103B 27                    4046 	.db #0x27	; 39
      00103C 2A                    4047 	.db #0x2a	; 42
      00103D 27                    4048 	.db #0x27	; 39
      00103E 32                    4049 	.db #0x32	; 50	'2'
      00103F 57                    4050 	.db #0x57	; 87	'W'
      001040 03                    4051 	.db #0x03	; 3
      001041 EA                    4052 	.db #0xea	; 234
      001042 4F                    4053 	.db #0x4f	; 79	'O'
      001043 FA                    4054 	.db #0xfa	; 250
      001044 5F                    4055 	.db #0x5f	; 95
      001045 FA                    4056 	.db #0xfa	; 250
      001046 4F                    4057 	.db #0x4f	; 79	'O'
      001047 EA                    4058 	.db #0xea	; 234
      001048 4F                    4059 	.db #0x4f	; 79	'O'
      001049 03                    4060 	.db #0x03	; 3
      00104A EA                    4061 	.db #0xea	; 234
      00104B 54                    4062 	.db #0x54	; 84	'T'
      00104C 62                    4063 	.db #0x62	; 98	'b'
      00104D 54                    4064 	.db #0x54	; 84	'T'
      00104E EE                    4065 	.db #0xee	; 238
      00104F 54                    4066 	.db #0x54	; 84	'T'
      001050 EA                    4067 	.db #0xea	; 234
      001051 54                    4068 	.db #0x54	; 84	'T'
      001052 03                    4069 	.db #0x03	; 3
      001053 81                    4070 	.db #0x81	; 129
      001054 13                    4071 	.db #0x13	; 19
      001055 85                    4072 	.db #0x85	; 133
      001056 12                    4073 	.db #0x12	; 18
      001057 84                    4074 	.db #0x84	; 132
      001058 10                    4075 	.db #0x10	; 16
      001059 80                    4076 	.db #0x80	; 128
      00105A 10                    4077 	.db #0x10	; 16
      00105B 02                    4078 	.db #0x02	; 2
      00105C 00                    4079 	.db #0x00	; 0
      00105D 00                    4080 	.db #0x00	; 0
      00105E 04                    4081 	.db #0x04	; 4
      00105F 26                    4082 	.db #0x26	; 38
      001060 4B                    4083 	.db #0x4b	; 75	'K'
      001061 B4                    4084 	.db #0xb4	; 180
      001062 CA                    4085 	.db #0xca	; 202
      001063 07                    4086 	.db #0x07	; 7
      001064 02                    4087 	.db #0x02	; 2
      001065 00                    4088 	.db #0x00	; 0
      001066 00                    4089 	.db #0x00	; 0
      001067 00                    4090 	.db #0x00	; 0
      001068 C0                    4091 	.db #0xc0	; 192
      001069 60                    4092 	.db #0x60	; 96
      00106A 10                    4093 	.db #0x10	; 16
      00106B C0                    4094 	.db #0xc0	; 192
      00106C 28                    4095 	.db #0x28	; 40
      00106D 04                    4096 	.db #0x04	; 4
      00106E 80                    4097 	.db #0x80	; 128
      00106F 80                    4098 	.db #0x80	; 128
      001070 10                    4099 	.db #0x10	; 16
      001071 10                    4100 	.db #0x10	; 16
      001072 80                    4101 	.db #0x80	; 128
      001073 82                    4102 	.db #0x82	; 130
      001074 10                    4103 	.db #0x10	; 16
      001075 10                    4104 	.db #0x10	; 16
      001076 80                    4105 	.db #0x80	; 128
      001077 80                    4106 	.db #0x80	; 128
      001078 10                    4107 	.db #0x10	; 16
      001079 13                    4108 	.db #0x13	; 19
      00107A 80                    4109 	.db #0x80	; 128
      00107B 80                    4110 	.db #0x80	; 128
      00107C 10                    4111 	.db #0x10	; 16
      00107D 12                    4112 	.db #0x12	; 18
      00107E 02                    4113 	.db #0x02	; 2
      00107F 93                    4114 	.db #0x93	; 147
      001080 06                    4115 	.db #0x06	; 6
      001081 74                    4116 	.db #0x74	; 116	't'
      001082 C1                    4117 	.db #0xc1	; 193
      001083 A2                    4118 	.db #0xa2	; 162
      001084 0C                    4119 	.db #0x0c	; 12
      001085 92                    4120 	.db #0x92	; 146
      001086 67                    4121 	.db #0x67	; 103	'g'
      001087 02                    4122 	.db #0x02	; 2
      001088 00                    4123 	.db #0x00	; 0
      001089 80                    4124 	.db #0x80	; 128
      00108A 00                    4125 	.db #0x00	; 0
      00108B A0                    4126 	.db #0xa0	; 160
      00108C 50                    4127 	.db #0x50	; 80	'P'
      00108D 00                    4128 	.db #0x00	; 0
      00108E D0                    4129 	.db #0xd0	; 208
      00108F 60                    4130 	.db #0x60	; 96
      001090 03                    4131 	.db #0x03	; 3
      001091 00                    4132 	.db #0x00	; 0
      001092 0A                    4133 	.db #0x0a	; 10
      001093 02                    4134 	.db #0x02	; 2
      001094 0A                    4135 	.db #0x0a	; 10
      001095 02                    4136 	.db #0x02	; 2
      001096 0A                    4137 	.db #0x0a	; 10
      001097 01                    4138 	.db #0x01	; 1
      001098 0A                    4139 	.db #0x0a	; 10
      001099 03                    4140 	.db #0x03	; 3
      00109A 53                    4141 	.db #0x53	; 83	'S'
      00109B FA                    4142 	.db #0xfa	; 250
      00109C 5F                    4143 	.db #0x5f	; 95
      00109D FA                    4144 	.db #0xfa	; 250
      00109E 5F                    4145 	.db #0x5f	; 95
      00109F EA                    4146 	.db #0xea	; 234
      0010A0 4F                    4147 	.db #0x4f	; 79	'O'
      0010A1 FA                    4148 	.db #0xfa	; 250
      0010A2 04                    4149 	.db #0x04	; 4
      0010A3 50                    4150 	.db #0x50	; 80	'P'
      0010A4 55                    4151 	.db #0x55	; 85	'U'
      0010A5 80                    4152 	.db #0x80	; 128
      0010A6 86                    4153 	.db #0x86	; 134
      0010A7 50                    4154 	.db #0x50	; 80	'P'
      0010A8 52                    4155 	.db #0x52	; 82	'R'
      0010A9 80                    4156 	.db #0x80	; 128
      0010AA 84                    4157 	.db #0x84	; 132
      0010AB 50                    4158 	.db #0x50	; 80	'P'
      0010AC 53                    4159 	.db #0x53	; 83	'S'
      0010AD 40                    4160 	.db #0x40	; 64
      0010AE 45                    4161 	.db #0x45	; 69	'E'
      0010AF 50                    4162 	.db #0x50	; 80	'P'
      0010B0 50                    4163 	.db #0x50	; 80	'P'
      0010B1 40                    4164 	.db #0x40	; 64
      0010B2 46                    4165 	.db #0x46	; 70	'F'
      0010B3 02                    4166 	.db #0x02	; 2
      0010B4 A0                    4167 	.db #0xa0	; 160
      0010B5 C0                    4168 	.db #0xc0	; 192
      0010B6 40                    4169 	.db #0x40	; 64
      0010B7 30                    4170 	.db #0x30	; 48	'0'
      0010B8 A0                    4171 	.db #0xa0	; 160
      0010B9 00                    4172 	.db #0x00	; 0
      0010BA 80                    4173 	.db #0x80	; 128
      0010BB 40                    4174 	.db #0x40	; 64
      0010BC 03                    4175 	.db #0x03	; 3
      0010BD 38                    4176 	.db #0x38	; 56	'8'
      0010BE AC                    4177 	.db #0xac	; 172
      0010BF 46                    4178 	.db #0x46	; 70	'F'
      0010C0 2B                    4179 	.db #0x2b	; 43
      0010C1 13                    4180 	.db #0x13	; 19
      0010C2 08                    4181 	.db #0x08	; 8
      0010C3 04                    4182 	.db #0x04	; 4
      0010C4 02                    4183 	.db #0x02	; 2
      0010C5 03                    4184 	.db #0x03	; 3
      0010C6 10                    4185 	.db #0x10	; 16
      0010C7 20                    4186 	.db #0x20	; 32
      0010C8 A0                    4187 	.db #0xa0	; 160
      0010C9 E0                    4188 	.db #0xe0	; 224
      0010CA F0                    4189 	.db #0xf0	; 240
      0010CB BC                    4190 	.db #0xbc	; 188
      0010CC 57                    4191 	.db #0x57	; 87	'W'
      0010CD 0B                    4192 	.db #0x0b	; 11
      0010CE 03                    4193 	.db #0x03	; 3
      0010CF 00                    4194 	.db #0x00	; 0
      0010D0 0A                    4195 	.db #0x0a	; 10
      0010D1 02                    4196 	.db #0x02	; 2
      0010D2 0A                    4197 	.db #0x0a	; 10
      0010D3 02                    4198 	.db #0x02	; 2
      0010D4 0A                    4199 	.db #0x0a	; 10
      0010D5 01                    4200 	.db #0x01	; 1
      0010D6 EA                    4201 	.db #0xea	; 234
      0010D7 03                    4202 	.db #0x03	; 3
      0010D8 22                    4203 	.db #0x22	; 34
      0010D9 17                    4204 	.db #0x17	; 23
      0010DA 2A                    4205 	.db #0x2a	; 42
      0010DB 17                    4206 	.db #0x17	; 23
      0010DC 2A                    4207 	.db #0x2a	; 42
      0010DD 57                    4208 	.db #0x57	; 87	'W'
      0010DE 22                    4209 	.db #0x22	; 34
      0010DF 57                    4210 	.db #0x57	; 87	'W'
      0010E0 03                    4211 	.db #0x03	; 3
      0010E1 FA                    4212 	.db #0xfa	; 250
      0010E2 5F                    4213 	.db #0x5f	; 95
      0010E3 EA                    4214 	.db #0xea	; 234
      0010E4 4F                    4215 	.db #0x4f	; 79	'O'
      0010E5 EA                    4216 	.db #0xea	; 234
      0010E6 4F                    4217 	.db #0x4f	; 79	'O'
      0010E7 EA                    4218 	.db #0xea	; 234
      0010E8 5F                    4219 	.db #0x5f	; 95
      0010E9 03                    4220 	.db #0x03	; 3
      0010EA 66                    4221 	.db #0x66	; 102	'f'
      0010EB 54                    4222 	.db #0x54	; 84	'T'
      0010EC 66                    4223 	.db #0x66	; 102	'f'
      0010ED 54                    4224 	.db #0x54	; 84	'T'
      0010EE EA                    4225 	.db #0xea	; 234
      0010EF 54                    4226 	.db #0x54	; 84	'T'
      0010F0 E6                    4227 	.db #0xe6	; 230
      0010F1 54                    4228 	.db #0x54	; 84	'T'
      0010F2 02                    4229 	.db #0x02	; 2
      0010F3 00                    4230 	.db #0x00	; 0
      0010F4 03                    4231 	.db #0x03	; 3
      0010F5 02                    4232 	.db #0x02	; 2
      0010F6 00                    4233 	.db #0x00	; 0
      0010F7 01                    4234 	.db #0x01	; 1
      0010F8 00                    4235 	.db #0x00	; 0
      0010F9 01                    4236 	.db #0x01	; 1
      0010FA 01                    4237 	.db #0x01	; 1
      0010FB 02                    4238 	.db #0x02	; 2
      0010FC 80                    4239 	.db #0x80	; 128
      0010FD 6C                    4240 	.db #0x6c	; 108	'l'
      0010FE 98                    4241 	.db #0x98	; 152
      0010FF 6C                    4242 	.db #0x6c	; 108	'l'
      001100 10                    4243 	.db #0x10	; 16
      001101 80                    4244 	.db #0x80	; 128
      001102 D0                    4245 	.db #0xd0	; 208
      001103 38                    4246 	.db #0x38	; 56	'8'
      001104 04                    4247 	.db #0x04	; 4
      001105 80                    4248 	.db #0x80	; 128
      001106 80                    4249 	.db #0x80	; 128
      001107 10                    4250 	.db #0x10	; 16
      001108 10                    4251 	.db #0x10	; 16
      001109 80                    4252 	.db #0x80	; 128
      00110A 82                    4253 	.db #0x82	; 130
      00110B 10                    4254 	.db #0x10	; 16
      00110C 10                    4255 	.db #0x10	; 16
      00110D 80                    4256 	.db #0x80	; 128
      00110E 83                    4257 	.db #0x83	; 131
      00110F 10                    4258 	.db #0x10	; 16
      001110 10                    4259 	.db #0x10	; 16
      001111 80                    4260 	.db #0x80	; 128
      001112 82                    4261 	.db #0x82	; 130
      001113 10                    4262 	.db #0x10	; 16
      001114 12                    4263 	.db #0x12	; 18
      001115 02                    4264 	.db #0x02	; 2
      001116 20                    4265 	.db #0x20	; 32
      001117 18                    4266 	.db #0x18	; 24
      001118 D0                    4267 	.db #0xd0	; 208
      001119 80                    4268 	.db #0x80	; 128
      00111A 40                    4269 	.db #0x40	; 64
      00111B 20                    4270 	.db #0x20	; 32
      00111C C0                    4271 	.db #0xc0	; 192
      00111D 40                    4272 	.db #0x40	; 64
      00111E 03                    4273 	.db #0x03	; 3
      00111F 00                    4274 	.db #0x00	; 0
      001120 06                    4275 	.db #0x06	; 6
      001121 01                    4276 	.db #0x01	; 1
      001122 00                    4277 	.db #0x00	; 0
      001123 00                    4278 	.db #0x00	; 0
      001124 00                    4279 	.db #0x00	; 0
      001125 00                    4280 	.db #0x00	; 0
      001126 1F                    4281 	.db #0x1f	; 31
      001127 03                    4282 	.db #0x03	; 3
      001128 00                    4283 	.db #0x00	; 0
      001129 00                    4284 	.db #0x00	; 0
      00112A 00                    4285 	.db #0x00	; 0
      00112B 80                    4286 	.db #0x80	; 128
      00112C 40                    4287 	.db #0x40	; 64
      00112D 40                    4288 	.db #0x40	; 64
      00112E 20                    4289 	.db #0x20	; 32
      00112F 90                    4290 	.db #0x90	; 144
      001130 03                    4291 	.db #0x03	; 3
      001131 01                    4292 	.db #0x01	; 1
      001132 0A                    4293 	.db #0x0a	; 10
      001133 02                    4294 	.db #0x02	; 2
      001134 0A                    4295 	.db #0x0a	; 10
      001135 01                    4296 	.db #0x01	; 1
      001136 0A                    4297 	.db #0x0a	; 10
      001137 01                    4298 	.db #0x01	; 1
      001138 0A                    4299 	.db #0x0a	; 10
      001139 03                    4300 	.db #0x03	; 3
      00113A 5B                    4301 	.db #0x5b	; 91
      00113B FA                    4302 	.db #0xfa	; 250
      00113C 5B                    4303 	.db #0x5b	; 91
      00113D FA                    4304 	.db #0xfa	; 250
      00113E 5F                    4305 	.db #0x5f	; 95
      00113F FA                    4306 	.db #0xfa	; 250
      001140 4F                    4307 	.db #0x4f	; 79	'O'
      001141 EA                    4308 	.db #0xea	; 234
      001142 04                    4309 	.db #0x04	; 4
      001143 50                    4310 	.db #0x50	; 80	'P'
      001144 55                    4311 	.db #0x55	; 85	'U'
      001145 80                    4312 	.db #0x80	; 128
      001146 82                    4313 	.db #0x82	; 130
      001147 50                    4314 	.db #0x50	; 80	'P'
      001148 54                    4315 	.db #0x54	; 84	'T'
      001149 80                    4316 	.db #0x80	; 128
      00114A 84                    4317 	.db #0x84	; 132
      00114B 50                    4318 	.db #0x50	; 80	'P'
      00114C 50                    4319 	.db #0x50	; 80	'P'
      00114D 40                    4320 	.db #0x40	; 64
      00114E 40                    4321 	.db #0x40	; 64
      00114F 50                    4322 	.db #0x50	; 80	'P'
      001150 50                    4323 	.db #0x50	; 80	'P'
      001151 40                    4324 	.db #0x40	; 64
      001152 40                    4325 	.db #0x40	; 64
      001153 03                    4326 	.db #0x03	; 3
      001154 00                    4327 	.db #0x00	; 0
      001155 00                    4328 	.db #0x00	; 0
      001156 00                    4329 	.db #0x00	; 0
      001157 00                    4330 	.db #0x00	; 0
      001158 00                    4331 	.db #0x00	; 0
      001159 00                    4332 	.db #0x00	; 0
      00115A 01                    4333 	.db #0x01	; 1
      00115B 07                    4334 	.db #0x07	; 7
      00115C 03                    4335 	.db #0x03	; 3
      00115D 00                    4336 	.db #0x00	; 0
      00115E 00                    4337 	.db #0x00	; 0
      00115F 00                    4338 	.db #0x00	; 0
      001160 00                    4339 	.db #0x00	; 0
      001161 08                    4340 	.db #0x08	; 8
      001162 70                    4341 	.db #0x70	; 112	'p'
      001163 C0                    4342 	.db #0xc0	; 192
      001164 00                    4343 	.db #0x00	; 0
      001165 03                    4344 	.db #0x03	; 3
      001166 07                    4345 	.db #0x07	; 7
      001167 A2                    4346 	.db #0xa2	; 162
      001168 11                    4347 	.db #0x11	; 17
      001169 08                    4348 	.db #0x08	; 8
      00116A 05                    4349 	.db #0x05	; 5
      00116B 00                    4350 	.db #0x00	; 0
      00116C 00                    4351 	.db #0x00	; 0
      00116D 00                    4352 	.db #0x00	; 0
      00116E 03                    4353 	.db #0x03	; 3
      00116F C1                    4354 	.db #0xc1	; 193
      001170 EA                    4355 	.db #0xea	; 234
      001171 42                    4356 	.db #0x42	; 66	'B'
      001172 AA                    4357 	.db #0xaa	; 170
      001173 01                    4358 	.db #0x01	; 1
      001174 AA                    4359 	.db #0xaa	; 170
      001175 41                    4360 	.db #0x41	; 65	'A'
      001176 0A                    4361 	.db #0x0a	; 10
      001177 03                    4362 	.db #0x03	; 3
      001178 22                    4363 	.db #0x22	; 34
      001179 57                    4364 	.db #0x57	; 87	'W'
      00117A 32                    4365 	.db #0x32	; 50	'2'
      00117B 56                    4366 	.db #0x56	; 86	'V'
      00117C 32                    4367 	.db #0x32	; 50	'2'
      00117D 57                    4368 	.db #0x57	; 87	'W'
      00117E 32                    4369 	.db #0x32	; 50	'2'
      00117F 16                    4370 	.db #0x16	; 22
      001180 03                    4371 	.db #0x03	; 3
      001181 FA                    4372 	.db #0xfa	; 250
      001182 5F                    4373 	.db #0x5f	; 95
      001183 FA                    4374 	.db #0xfa	; 250
      001184 5F                    4375 	.db #0x5f	; 95
      001185 EA                    4376 	.db #0xea	; 234
      001186 4F                    4377 	.db #0x4f	; 79	'O'
      001187 EA                    4378 	.db #0xea	; 234
      001188 5F                    4379 	.db #0x5f	; 95
      001189 03                    4380 	.db #0x03	; 3
      00118A 62                    4381 	.db #0x62	; 98	'b'
      00118B 5C                    4382 	.db #0x5c	; 92
      00118C EA                    4383 	.db #0xea	; 234
      00118D 54                    4384 	.db #0x54	; 84	'T'
      00118E E2                    4385 	.db #0xe2	; 226
      00118F 54                    4386 	.db #0x54	; 84	'T'
      001190 66                    4387 	.db #0x66	; 102	'f'
      001191 54                    4388 	.db #0x54	; 84	'T'
      001192 02                    4389 	.db #0x02	; 2
      001193 33                    4390 	.db #0x33	; 51	'3'
      001194 24                    4391 	.db #0x24	; 36
      001195 00                    4392 	.db #0x00	; 0
      001196 00                    4393 	.db #0x00	; 0
      001197 00                    4394 	.db #0x00	; 0
      001198 00                    4395 	.db #0x00	; 0
      001199 00                    4396 	.db #0x00	; 0
      00119A 00                    4397 	.db #0x00	; 0
      00119B 04                    4398 	.db #0x04	; 4
      00119C 0B                    4399 	.db #0x0b	; 11
      00119D 8B                    4400 	.db #0x8b	; 139
      00119E 05                    4401 	.db #0x05	; 5
      00119F 05                    4402 	.db #0x05	; 5
      0011A0 02                    4403 	.db #0x02	; 2
      0011A1 02                    4404 	.db #0x02	; 2
      0011A2 01                    4405 	.db #0x01	; 1
      0011A3 01                    4406 	.db #0x01	; 1
      0011A4 00                    4407 	.db #0x00	; 0
      0011A5 00                    4408 	.db #0x00	; 0
      0011A6 00                    4409 	.db #0x00	; 0
      0011A7 00                    4410 	.db #0x00	; 0
      0011A8 00                    4411 	.db #0x00	; 0
      0011A9 00                    4412 	.db #0x00	; 0
      0011AA 00                    4413 	.db #0x00	; 0
      0011AB 00                    4414 	.db #0x00	; 0
      0011AC 03                    4415 	.db #0x03	; 3
      0011AD 08                    4416 	.db #0x08	; 8
      0011AE 81                    4417 	.db #0x81	; 129
      0011AF E8                    4418 	.db #0xe8	; 232
      0011B0 41                    4419 	.db #0x41	; 65	'A'
      0011B1 A8                    4420 	.db #0xa8	; 168
      0011B2 41                    4421 	.db #0x41	; 65	'A'
      0011B3 28                    4422 	.db #0x28	; 40
      0011B4 01                    4423 	.db #0x01	; 1
      0011B5 02                    4424 	.db #0x02	; 2
      0011B6 03                    4425 	.db #0x03	; 3
      0011B7 34                    4426 	.db #0x34	; 52	'4'
      0011B8 44                    4427 	.db #0x44	; 68	'D'
      0011B9 00                    4428 	.db #0x00	; 0
      0011BA 00                    4429 	.db #0x00	; 0
      0011BB 00                    4430 	.db #0x00	; 0
      0011BC 00                    4431 	.db #0x00	; 0
      0011BD 00                    4432 	.db #0x00	; 0
      0011BE 03                    4433 	.db #0x03	; 3
      0011BF 70                    4434 	.db #0x70	; 112	'p'
      0011C0 1C                    4435 	.db #0x1c	; 28
      0011C1 06                    4436 	.db #0x06	; 6
      0011C2 03                    4437 	.db #0x03	; 3
      0011C3 01                    4438 	.db #0x01	; 1
      0011C4 00                    4439 	.db #0x00	; 0
      0011C5 00                    4440 	.db #0x00	; 0
      0011C6 00                    4441 	.db #0x00	; 0
      0011C7 03                    4442 	.db #0x03	; 3
      0011C8 02                    4443 	.db #0x02	; 2
      0011C9 0A                    4444 	.db #0x0a	; 10
      0011CA 02                    4445 	.db #0x02	; 2
      0011CB 0A                    4446 	.db #0x0a	; 10
      0011CC 03                    4447 	.db #0x03	; 3
      0011CD 0A                    4448 	.db #0x0a	; 10
      0011CE 01                    4449 	.db #0x01	; 1
      0011CF 0A                    4450 	.db #0x0a	; 10
      0011D0 03                    4451 	.db #0x03	; 3
      0011D1 4F                    4452 	.db #0x4f	; 79	'O'
      0011D2 EA                    4453 	.db #0xea	; 234
      0011D3 5F                    4454 	.db #0x5f	; 95
      0011D4 FA                    4455 	.db #0xfa	; 250
      0011D5 5B                    4456 	.db #0x5b	; 91
      0011D6 FA                    4457 	.db #0xfa	; 250
      0011D7 5F                    4458 	.db #0x5f	; 95
      0011D8 FA                    4459 	.db #0xfa	; 250
      0011D9 03                    4460 	.db #0x03	; 3
      0011DA 50                    4461 	.db #0x50	; 80	'P'
      0011DB 80                    4462 	.db #0x80	; 128
      0011DC 50                    4463 	.db #0x50	; 80	'P'
      0011DD 80                    4464 	.db #0x80	; 128
      0011DE 50                    4465 	.db #0x50	; 80	'P'
      0011DF 40                    4466 	.db #0x40	; 64
      0011E0 50                    4467 	.db #0x50	; 80	'P'
      0011E1 80                    4468 	.db #0x80	; 128
      0011E2 03                    4469 	.db #0x03	; 3
      0011E3 00                    4470 	.db #0x00	; 0
      0011E4 00                    4471 	.db #0x00	; 0
      0011E5 41                    4472 	.db #0x41	; 65	'A'
      0011E6 23                    4473 	.db #0x23	; 35
      0011E7 2E                    4474 	.db #0x2e	; 46
      0011E8 35                    4475 	.db #0x35	; 53	'5'
      0011E9 68                    4476 	.db #0x68	; 104	'h'
      0011EA D0                    4477 	.db #0xd0	; 208
      0011EB 03                    4478 	.db #0x03	; 3
      0011EC 1A                    4479 	.db #0x1a	; 26
      0011ED 74                    4480 	.db #0x74	; 116	't'
      0011EE A0                    4481 	.db #0xa0	; 160
      0011EF 40                    4482 	.db #0x40	; 64
      0011F0 B8                    4483 	.db #0xb8	; 184
      0011F1 06                    4484 	.db #0x06	; 6
      0011F2 00                    4485 	.db #0x00	; 0
      0011F3 00                    4486 	.db #0x00	; 0
      0011F4 02                    4487 	.db #0x02	; 2
      0011F5 00                    4488 	.db #0x00	; 0
      0011F6 00                    4489 	.db #0x00	; 0
      0011F7 00                    4490 	.db #0x00	; 0
      0011F8 00                    4491 	.db #0x00	; 0
      0011F9 02                    4492 	.db #0x02	; 2
      0011FA 04                    4493 	.db #0x04	; 4
      0011FB 0B                    4494 	.db #0x0b	; 11
      0011FC 1C                    4495 	.db #0x1c	; 28
      0011FD 02                    4496 	.db #0x02	; 2
      0011FE 00                    4497 	.db #0x00	; 0
      0011FF 00                    4498 	.db #0x00	; 0
      001200 00                    4499 	.db #0x00	; 0
      001201 40                    4500 	.db #0x40	; 64
      001202 6C                    4501 	.db #0x6c	; 108	'l'
      001203 B6                    4502 	.db #0xb6	; 182
      001204 41                    4503 	.db #0x41	; 65	'A'
      001205 AC                    4504 	.db #0xac	; 172
      001206 03                    4505 	.db #0x03	; 3
      001207 00                    4506 	.db #0x00	; 0
      001208 00                    4507 	.db #0x00	; 0
      001209 00                    4508 	.db #0x00	; 0
      00120A 00                    4509 	.db #0x00	; 0
      00120B 80                    4510 	.db #0x80	; 128
      00120C E0                    4511 	.db #0xe0	; 224
      00120D 70                    4512 	.db #0x70	; 112	'p'
      00120E 38                    4513 	.db #0x38	; 56	'8'
      00120F 03                    4514 	.db #0x03	; 3
      001210 51                    4515 	.db #0x51	; 81	'Q'
      001211 87                    4516 	.db #0x87	; 135
      001212 52                    4517 	.db #0x52	; 82	'R'
      001213 C5                    4518 	.db #0xc5	; 197
      001214 52                    4519 	.db #0x52	; 82	'R'
      001215 44                    4520 	.db #0x44	; 68	'D'
      001216 50                    4521 	.db #0x50	; 80	'P'
      001217 00                    4522 	.db #0x00	; 0
      001218 03                    4523 	.db #0x03	; 3
      001219 A0                    4524 	.db #0xa0	; 160
      00121A 40                    4525 	.db #0x40	; 64
      00121B 80                    4526 	.db #0x80	; 128
      00121C 00                    4527 	.db #0x00	; 0
      00121D 00                    4528 	.db #0x00	; 0
      00121E 00                    4529 	.db #0x00	; 0
      00121F 00                    4530 	.db #0x00	; 0
      001220 00                    4531 	.db #0x00	; 0
      001221 02                    4532 	.db #0x02	; 2
      001222 10                    4533 	.db #0x10	; 16
      001223 0B                    4534 	.db #0x0b	; 11
      001224 34                    4535 	.db #0x34	; 52	'4'
      001225 21                    4536 	.db #0x21	; 33
      001226 0C                    4537 	.db #0x0c	; 12
      001227 13                    4538 	.db #0x13	; 19
      001228 0A                    4539 	.db #0x0a	; 10
      001229 18                    4540 	.db #0x18	; 24
      00122A 03                    4541 	.db #0x03	; 3
      00122B C1                    4542 	.db #0xc1	; 193
      00122C 30                    4543 	.db #0x30	; 48	'0'
      00122D 08                    4544 	.db #0x08	; 8
      00122E 1F                    4545 	.db #0x1f	; 31
      00122F 60                    4546 	.db #0x60	; 96
      001230 80                    4547 	.db #0x80	; 128
      001231 00                    4548 	.db #0x00	; 0
      001232 00                    4549 	.db #0x00	; 0
      001233 03                    4550 	.db #0x03	; 3
      001234 1C                    4551 	.db #0x1c	; 28
      001235 8E                    4552 	.db #0x8e	; 142
      001236 47                    4553 	.db #0x47	; 71	'G'
      001237 A2                    4554 	.db #0xa2	; 162
      001238 71                    4555 	.db #0x71	; 113	'q'
      001239 08                    4556 	.db #0x08	; 8
      00123A 04                    4557 	.db #0x04	; 4
      00123B 02                    4558 	.db #0x02	; 2
      00123C 03                    4559 	.db #0x03	; 3
      00123D 50                    4560 	.db #0x50	; 80	'P'
      00123E 80                    4561 	.db #0x80	; 128
      00123F 50                    4562 	.db #0x50	; 80	'P'
      001240 80                    4563 	.db #0x80	; 128
      001241 50                    4564 	.db #0x50	; 80	'P'
      001242 40                    4565 	.db #0x40	; 64
      001243 50                    4566 	.db #0x50	; 80	'P'
      001244 40                    4567 	.db #0x40	; 64
      001245 01                    4568 	.db #0x01	; 1
      001246 01                    4569 	.db #0x01	; 1
      001247 03                    4570 	.db #0x03	; 3
      001248 02                    4571 	.db #0x02	; 2
      001249 05                    4572 	.db #0x05	; 5
      00124A 05                    4573 	.db #0x05	; 5
      00124B 0A                    4574 	.db #0x0a	; 10
      00124C 0B                    4575 	.db #0x0b	; 11
      00124D 1A                    4576 	.db #0x1a	; 26
      00124E 01                    4577 	.db #0x01	; 1
      00124F EE                    4578 	.db #0xee	; 238
      001250 D1                    4579 	.db #0xd1	; 209
      001251 ED                    4580 	.db #0xed	; 237
      001252 55                    4581 	.db #0x55	; 85	'U'
      001253 55                    4582 	.db #0x55	; 85	'U'
      001254 55                    4583 	.db #0x55	; 85	'U'
      001255 77                    4584 	.db #0x77	; 119	'w'
      001256 BB                    4585 	.db #0xbb	; 187
      001257 01                    4586 	.db #0x01	; 1
      001258 DC                    4587 	.db #0xdc	; 220
      001259 6A                    4588 	.db #0x6a	; 106	'j'
      00125A 2B                    4589 	.db #0x2b	; 43
      00125B AF                    4590 	.db #0xaf	; 175
      00125C AD                    4591 	.db #0xad	; 173
      00125D AD                    4592 	.db #0xad	; 173
      00125E 6B                    4593 	.db #0x6b	; 107	'k'
      00125F 7B                    4594 	.db #0x7b	; 123
      001260 01                    4595 	.db #0x01	; 1
      001261 80                    4596 	.db #0x80	; 128
      001262 C0                    4597 	.db #0xc0	; 192
      001263 40                    4598 	.db #0x40	; 64
      001264 A0                    4599 	.db #0xa0	; 160
      001265 A0                    4600 	.db #0xa0	; 160
      001266 50                    4601 	.db #0x50	; 80	'P'
      001267 D0                    4602 	.db #0xd0	; 208
      001268 58                    4603 	.db #0x58	; 88	'X'
      001269 02                    4604 	.db #0x02	; 2
      00126A 14                    4605 	.db #0x14	; 20
      00126B 03                    4606 	.db #0x03	; 3
      00126C 02                    4607 	.db #0x02	; 2
      00126D 00                    4608 	.db #0x00	; 0
      00126E 00                    4609 	.db #0x00	; 0
      00126F 00                    4610 	.db #0x00	; 0
      001270 00                    4611 	.db #0x00	; 0
      001271 00                    4612 	.db #0x00	; 0
      001272 01                    4613 	.db #0x01	; 1
      001273 12                    4614 	.db #0x12	; 18
      001274 1A                    4615 	.db #0x1a	; 26
      001275 35                    4616 	.db #0x35	; 53	'5'
      001276 35                    4617 	.db #0x35	; 53	'5'
      001277 25                    4618 	.db #0x25	; 37
      001278 2D                    4619 	.db #0x2d	; 45
      001279 25                    4620 	.db #0x25	; 37
      00127A 55                    4621 	.db #0x55	; 85	'U'
      00127B 01                    4622 	.db #0x01	; 1
      00127C 48                    4623 	.db #0x48	; 72	'H'
      00127D 58                    4624 	.db #0x58	; 88	'X'
      00127E AC                    4625 	.db #0xac	; 172
      00127F AC                    4626 	.db #0xac	; 172
      001280 A4                    4627 	.db #0xa4	; 164
      001281 B4                    4628 	.db #0xb4	; 180
      001282 A4                    4629 	.db #0xa4	; 164
      001283 AA                    4630 	.db #0xaa	; 170
      001284 01                    4631 	.db #0x01	; 1
      001285 55                    4632 	.db #0x55	; 85	'U'
      001286 6D                    4633 	.db #0x6d	; 109	'm'
      001287 6D                    4634 	.db #0x6d	; 109	'm'
      001288 25                    4635 	.db #0x25	; 37
      001289 AD                    4636 	.db #0xad	; 173
      00128A ED                    4637 	.db #0xed	; 237
      00128B AB                    4638 	.db #0xab	; 171
      00128C AB                    4639 	.db #0xab	; 171
      00128D 01                    4640 	.db #0x01	; 1
      00128E AA                    4641 	.db #0xaa	; 170
      00128F B6                    4642 	.db #0xb6	; 182
      001290 B6                    4643 	.db #0xb6	; 182
      001291 A4                    4644 	.db #0xa4	; 164
      001292 B5                    4645 	.db #0xb5	; 181
      001293 B7                    4646 	.db #0xb7	; 183
      001294 D5                    4647 	.db #0xd5	; 213
      001295 D5                    4648 	.db #0xd5	; 213
      001296 03                    4649 	.db #0x03	; 3
      001297 80                    4650 	.db #0x80	; 128
      001298 10                    4651 	.db #0x10	; 16
      001299 80                    4652 	.db #0x80	; 128
      00129A 10                    4653 	.db #0x10	; 16
      00129B 80                    4654 	.db #0x80	; 128
      00129C 10                    4655 	.db #0x10	; 16
      00129D 80                    4656 	.db #0x80	; 128
      00129E 11                    4657 	.db #0x11	; 17
      00129F 03                    4658 	.db #0x03	; 3
      0012A0 00                    4659 	.db #0x00	; 0
      0012A1 00                    4660 	.db #0x00	; 0
      0012A2 00                    4661 	.db #0x00	; 0
      0012A3 20                    4662 	.db #0x20	; 32
      0012A4 41                    4663 	.db #0x41	; 65	'A'
      0012A5 47                    4664 	.db #0x47	; 71	'G'
      0012A6 9A                    4665 	.db #0x9a	; 154
      0012A7 70                    4666 	.db #0x70	; 112	'p'
      0012A8 04                    4667 	.db #0x04	; 4
      0012A9 04                    4668 	.db #0x04	; 4
      0012AA 04                    4669 	.db #0x04	; 4
      0012AB 08                    4670 	.db #0x08	; 8
      0012AC 08                    4671 	.db #0x08	; 8
      0012AD 30                    4672 	.db #0x30	; 48	'0'
      0012AE 30                    4673 	.db #0x30	; 48	'0'
      0012AF 40                    4674 	.db #0x40	; 64
      0012B0 40                    4675 	.db #0x40	; 64
      0012B1 80                    4676 	.db #0x80	; 128
      0012B2 80                    4677 	.db #0x80	; 128
      0012B3 00                    4678 	.db #0x00	; 0
      0012B4 00                    4679 	.db #0x00	; 0
      0012B5 F0                    4680 	.db #0xf0	; 240
      0012B6 F1                    4681 	.db #0xf1	; 241
      0012B7 0C                    4682 	.db #0x0c	; 12
      0012B8 0D                    4683 	.db #0x0d	; 13
      0012B9 02                    4684 	.db #0x02	; 2
      0012BA 00                    4685 	.db #0x00	; 0
      0012BB 00                    4686 	.db #0x00	; 0
      0012BC 00                    4687 	.db #0x00	; 0
      0012BD 00                    4688 	.db #0x00	; 0
      0012BE 02                    4689 	.db #0x02	; 2
      0012BF 05                    4690 	.db #0x05	; 5
      0012C0 00                    4691 	.db #0x00	; 0
      0012C1 05                    4692 	.db #0x05	; 5
      0012C2 04                    4693 	.db #0x04	; 4
      0012C3 01                    4694 	.db #0x01	; 1
      0012C4 61                    4695 	.db #0x61	; 97	'a'
      0012C5 0A                    4696 	.db #0x0a	; 10
      0012C6 8A                    4697 	.db #0x8a	; 138
      0012C7 01                    4698 	.db #0x01	; 1
      0012C8 01                    4699 	.db #0x01	; 1
      0012C9 0A                    4700 	.db #0x0a	; 10
      0012CA 2A                    4701 	.db #0x2a	; 42
      0012CB 01                    4702 	.db #0x01	; 1
      0012CC 81                    4703 	.db #0x81	; 129
      0012CD 0A                    4704 	.db #0x0a	; 10
      0012CE 8A                    4705 	.db #0x8a	; 138
      0012CF 01                    4706 	.db #0x01	; 1
      0012D0 61                    4707 	.db #0x61	; 97	'a'
      0012D1 0A                    4708 	.db #0x0a	; 10
      0012D2 8A                    4709 	.db #0x8a	; 138
      0012D3 03                    4710 	.db #0x03	; 3
      0012D4 50                    4711 	.db #0x50	; 80	'P'
      0012D5 80                    4712 	.db #0x80	; 128
      0012D6 50                    4713 	.db #0x50	; 80	'P'
      0012D7 C0                    4714 	.db #0xc0	; 192
      0012D8 50                    4715 	.db #0x50	; 80	'P'
      0012D9 40                    4716 	.db #0x40	; 64
      0012DA 50                    4717 	.db #0x50	; 80	'P'
      0012DB 00                    4718 	.db #0x00	; 0
      0012DC 03                    4719 	.db #0x03	; 3
      0012DD 7A                    4720 	.db #0x7a	; 122	'z'
      0012DE 55                    4721 	.db #0x55	; 85	'U'
      0012DF 72                    4722 	.db #0x72	; 114	'r'
      0012E0 55                    4723 	.db #0x55	; 85	'U'
      0012E1 70                    4724 	.db #0x70	; 112	'p'
      0012E2 55                    4725 	.db #0x55	; 85	'U'
      0012E3 78                    4726 	.db #0x78	; 120	'x'
      0012E4 55                    4727 	.db #0x55	; 85	'U'
      0012E5 03                    4728 	.db #0x03	; 3
      0012E6 46                    4729 	.db #0x46	; 70	'F'
      0012E7 55                    4730 	.db #0x55	; 85	'U'
      0012E8 70                    4731 	.db #0x70	; 112	'p'
      0012E9 55                    4732 	.db #0x55	; 85	'U'
      0012EA 78                    4733 	.db #0x78	; 120	'x'
      0012EB 55                    4734 	.db #0x55	; 85	'U'
      0012EC 7A                    4735 	.db #0x7a	; 122	'z'
      0012ED 55                    4736 	.db #0x55	; 85	'U'
      0012EE 03                    4737 	.db #0x03	; 3
      0012EF 83                    4738 	.db #0x83	; 131
      0012F0 15                    4739 	.db #0x15	; 21
      0012F1 82                    4740 	.db #0x82	; 130
      0012F2 14                    4741 	.db #0x14	; 20
      0012F3 80                    4742 	.db #0x80	; 128
      0012F4 10                    4743 	.db #0x10	; 16
      0012F5 80                    4744 	.db #0x80	; 128
      0012F6 10                    4745 	.db #0x10	; 16
      0012F7 03                    4746 	.db #0x03	; 3
      0012F8 A0                    4747 	.db #0xa0	; 160
      0012F9 40                    4748 	.db #0x40	; 64
      0012FA 00                    4749 	.db #0x00	; 0
      0012FB 00                    4750 	.db #0x00	; 0
      0012FC 00                    4751 	.db #0x00	; 0
      0012FD 00                    4752 	.db #0x00	; 0
      0012FE 00                    4753 	.db #0x00	; 0
      0012FF 00                    4754 	.db #0x00	; 0
      001300 03                    4755 	.db #0x03	; 3
      001301 7C                    4756 	.db #0x7c	; 124
      001302 55                    4757 	.db #0x55	; 85	'U'
      001303 6C                    4758 	.db #0x6c	; 108	'l'
      001304 45                    4759 	.db #0x45	; 69	'E'
      001305 6E                    4760 	.db #0x6e	; 110	'n'
      001306 41                    4761 	.db #0x41	; 65	'A'
      001307 6A                    4762 	.db #0x6a	; 106	'j'
      001308 51                    4763 	.db #0x51	; 81	'Q'
      001309 01                    4764 	.db #0x01	; 1
      00130A 00                    4765 	.db #0x00	; 0
      00130B 2A                    4766 	.db #0x2a	; 42
      00130C 7F                    4767 	.db #0x7f	; 127
      00130D 55                    4768 	.db #0x55	; 85	'U'
      00130E 00                    4769 	.db #0x00	; 0
      00130F 60                    4770 	.db #0x60	; 96
      001310 60                    4771 	.db #0x60	; 96
      001311 6D                    4772 	.db #0x6d	; 109	'm'
      001312 01                    4773 	.db #0x01	; 1
      001313 00                    4774 	.db #0x00	; 0
      001314 AA                    4775 	.db #0xaa	; 170
      001315 FE                    4776 	.db #0xfe	; 254
      001316 54                    4777 	.db #0x54	; 84	'T'
      001317 00                    4778 	.db #0x00	; 0
      001318 06                    4779 	.db #0x06	; 6
      001319 06                    4780 	.db #0x06	; 6
      00131A 06                    4781 	.db #0x06	; 6
      00131B 03                    4782 	.db #0x03	; 3
      00131C 66                    4783 	.db #0x66	; 102	'f'
      00131D 55                    4784 	.db #0x55	; 85	'U'
      00131E 66                    4785 	.db #0x66	; 102	'f'
      00131F 55                    4786 	.db #0x55	; 85	'U'
      001320 66                    4787 	.db #0x66	; 102	'f'
      001321 55                    4788 	.db #0x55	; 85	'U'
      001322 46                    4789 	.db #0x46	; 70	'F'
      001323 55                    4790 	.db #0x55	; 85	'U'
      001324 01                    4791 	.db #0x01	; 1
      001325 00                    4792 	.db #0x00	; 0
      001326 7E                    4793 	.db #0x7e	; 126
      001327 7F                    4794 	.db #0x7f	; 127
      001328 2A                    4795 	.db #0x2a	; 42
      001329 00                    4796 	.db #0x00	; 0
      00132A 70                    4797 	.db #0x70	; 112	'p'
      00132B 60                    4798 	.db #0x60	; 96
      00132C 30                    4799 	.db #0x30	; 48	'0'
      00132D 01                    4800 	.db #0x01	; 1
      00132E 00                    4801 	.db #0x00	; 0
      00132F FF                    4802 	.db #0xff	; 255
      001330 FF                    4803 	.db #0xff	; 255
      001331 AA                    4804 	.db #0xaa	; 170
      001332 00                    4805 	.db #0x00	; 0
      001333 07                    4806 	.db #0x07	; 7
      001334 06                    4807 	.db #0x06	; 6
      001335 0F                    4808 	.db #0x0f	; 15
      001336 02                    4809 	.db #0x02	; 2
      001337 51                    4810 	.db #0x51	; 81	'Q'
      001338 2C                    4811 	.db #0x2c	; 44
      001339 25                    4812 	.db #0x25	; 37
      00133A 01                    4813 	.db #0x01	; 1
      00133B 00                    4814 	.db #0x00	; 0
      00133C 00                    4815 	.db #0x00	; 0
      00133D 00                    4816 	.db #0x00	; 0
      00133E 00                    4817 	.db #0x00	; 0
      00133F 03                    4818 	.db #0x03	; 3
      001340 7A                    4819 	.db #0x7a	; 122	'z'
      001341 55                    4820 	.db #0x55	; 85	'U'
      001342 6C                    4821 	.db #0x6c	; 108	'l'
      001343 45                    4822 	.db #0x45	; 69	'E'
      001344 6C                    4823 	.db #0x6c	; 108	'l'
      001345 45                    4824 	.db #0x45	; 69	'E'
      001346 6E                    4825 	.db #0x6e	; 110	'n'
      001347 55                    4826 	.db #0x55	; 85	'U'
      001348 01                    4827 	.db #0x01	; 1
      001349 62                    4828 	.db #0x62	; 98	'b'
      00134A 62                    4829 	.db #0x62	; 98	'b'
      00134B 67                    4830 	.db #0x67	; 103	'g'
      00134C 67                    4831 	.db #0x67	; 103	'g'
      00134D 60                    4832 	.db #0x60	; 96
      00134E 7F                    4833 	.db #0x7f	; 127
      00134F 6F                    4834 	.db #0x6f	; 111	'o'
      001350 00                    4835 	.db #0x00	; 0
      001351 01                    4836 	.db #0x01	; 1
      001352 06                    4837 	.db #0x06	; 6
      001353 06                    4838 	.db #0x06	; 6
      001354 06                    4839 	.db #0x06	; 6
      001355 06                    4840 	.db #0x06	; 6
      001356 06                    4841 	.db #0x06	; 6
      001357 F6                    4842 	.db #0xf6	; 246
      001358 E6                    4843 	.db #0xe6	; 230
      001359 00                    4844 	.db #0x00	; 0
      00135A 03                    4845 	.db #0x03	; 3
      00135B 3A                    4846 	.db #0x3a	; 58
      00135C 55                    4847 	.db #0x55	; 85	'U'
      00135D 7E                    4848 	.db #0x7e	; 126
      00135E 55                    4849 	.db #0x55	; 85	'U'
      00135F 7E                    4850 	.db #0x7e	; 126
      001360 55                    4851 	.db #0x55	; 85	'U'
      001361 76                    4852 	.db #0x76	; 118	'v'
      001362 55                    4853 	.db #0x55	; 85	'U'
      001363 01                    4854 	.db #0x01	; 1
      001364 60                    4855 	.db #0x60	; 96
      001365 70                    4856 	.db #0x70	; 112	'p'
      001366 60                    4857 	.db #0x60	; 96
      001367 70                    4858 	.db #0x70	; 112	'p'
      001368 60                    4859 	.db #0x60	; 96
      001369 70                    4860 	.db #0x70	; 112	'p'
      00136A 60                    4861 	.db #0x60	; 96
      00136B 70                    4862 	.db #0x70	; 112	'p'
      00136C 01                    4863 	.db #0x01	; 1
      00136D 06                    4864 	.db #0x06	; 6
      00136E 07                    4865 	.db #0x07	; 7
      00136F 06                    4866 	.db #0x06	; 6
      001370 07                    4867 	.db #0x07	; 7
      001371 06                    4868 	.db #0x06	; 6
      001372 03                    4869 	.db #0x03	; 3
      001373 06                    4870 	.db #0x06	; 6
      001374 07                    4871 	.db #0x07	; 7
      001375 01                    4872 	.db #0x01	; 1
      001376 FF                    4873 	.db #0xff	; 255
      001377 AA                    4874 	.db #0xaa	; 170
      001378 55                    4875 	.db #0x55	; 85	'U'
      001379 02                    4876 	.db #0x02	; 2
      00137A 00                    4877 	.db #0x00	; 0
      00137B C1                    4878 	.db #0xc1	; 193
      00137C 63                    4879 	.db #0x63	; 99	'c'
      00137D A6                    4880 	.db #0xa6	; 166
      00137E 01                    4881 	.db #0x01	; 1
      00137F FF                    4882 	.db #0xff	; 255
      001380 AA                    4883 	.db #0xaa	; 170
      001381 55                    4884 	.db #0x55	; 85	'U'
      001382 00                    4885 	.db #0x00	; 0
      001383 04                    4886 	.db #0x04	; 4
      001384 94                    4887 	.db #0x94	; 148
      001385 4C                    4888 	.db #0x4c	; 76	'L'
      001386 94                    4889 	.db #0x94	; 148
      001387 01                    4890 	.db #0x01	; 1
      001388 06                    4891 	.db #0x06	; 6
      001389 07                    4892 	.db #0x07	; 7
      00138A 06                    4893 	.db #0x06	; 6
      00138B 07                    4894 	.db #0x07	; 7
      00138C 06                    4895 	.db #0x06	; 6
      00138D 0F                    4896 	.db #0x0f	; 15
      00138E 06                    4897 	.db #0x06	; 6
      00138F 07                    4898 	.db #0x07	; 7
      001390 01                    4899 	.db #0x01	; 1
      001391 4D                    4900 	.db #0x4d	; 77	'M'
      001392 1A                    4901 	.db #0x1a	; 26
      001393 34                    4902 	.db #0x34	; 52	'4'
      001394 69                    4903 	.db #0x69	; 105	'i'
      001395 D1                    4904 	.db #0xd1	; 209
      001396 A2                    4905 	.db #0xa2	; 162
      001397 41                    4906 	.db #0x41	; 65	'A'
      001398 80                    4907 	.db #0x80	; 128
      001399 01                    4908 	.db #0x01	; 1
      00139A 1C                    4909 	.db #0x1c	; 28
      00139B 14                    4910 	.db #0x14	; 20
      00139C 0C                    4911 	.db #0x0c	; 12
      00139D 14                    4912 	.db #0x14	; 20
      00139E 8C                    4913 	.db #0x8c	; 140
      00139F D4                    4914 	.db #0xd4	; 212
      0013A0 4C                    4915 	.db #0x4c	; 76	'L'
      0013A1 94                    4916 	.db #0x94	; 148
      0013A2 03                    4917 	.db #0x03	; 3
      0013A3 70                    4918 	.db #0x70	; 112	'p'
      0013A4 80                    4919 	.db #0x80	; 128
      0013A5 00                    4920 	.db #0x00	; 0
      0013A6 00                    4921 	.db #0x00	; 0
      0013A7 00                    4922 	.db #0x00	; 0
      0013A8 00                    4923 	.db #0x00	; 0
      0013A9 00                    4924 	.db #0x00	; 0
      0013AA 00                    4925 	.db #0x00	; 0
      0013AB 02                    4926 	.db #0x02	; 2
      0013AC 40                    4927 	.db #0x40	; 64
      0013AD 40                    4928 	.db #0x40	; 64
      0013AE 00                    4929 	.db #0x00	; 0
      0013AF 00                    4930 	.db #0x00	; 0
      0013B0 00                    4931 	.db #0x00	; 0
      0013B1 00                    4932 	.db #0x00	; 0
      0013B2 00                    4933 	.db #0x00	; 0
      0013B3 00                    4934 	.db #0x00	; 0
      0013B4 01                    4935 	.db #0x01	; 1
      0013B5 38                    4936 	.db #0x38	; 56	'8'
      0013B6 54                    4937 	.db #0x54	; 84	'T'
      0013B7 AA                    4938 	.db #0xaa	; 170
      0013B8 D2                    4939 	.db #0xd2	; 210
      0013B9 82                    4940 	.db #0x82	; 130
      0013BA 44                    4941 	.db #0x44	; 68	'D'
      0013BB 38                    4942 	.db #0x38	; 56	'8'
      0013BC 00                    4943 	.db #0x00	; 0
      0013BD 01                    4944 	.db #0x01	; 1
      0013BE 01                    4945 	.db #0x01	; 1
      0013BF 03                    4946 	.db #0x03	; 3
      0013C0 07                    4947 	.db #0x07	; 7
      0013C1 06                    4948 	.db #0x06	; 6
      0013C2 06                    4949 	.db #0x06	; 6
      0013C3 06                    4950 	.db #0x06	; 6
      0013C4 07                    4951 	.db #0x07	; 7
      0013C5 03                    4952 	.db #0x03	; 3
      0013C6 01                    4953 	.db #0x01	; 1
      0013C7 F0                    4954 	.db #0xf0	; 240
      0013C8 F8                    4955 	.db #0xf8	; 248
      0013C9 18                    4956 	.db #0x18	; 24
      0013CA E8                    4957 	.db #0xe8	; 232
      0013CB A0                    4958 	.db #0xa0	; 160
      0013CC E0                    4959 	.db #0xe0	; 224
      0013CD 00                    4960 	.db #0x00	; 0
      0013CE 80                    4961 	.db #0x80	; 128
      0013CF 01                    4962 	.db #0x01	; 1
      0013D0 01                    4963 	.db #0x01	; 1
      0013D1 01                    4964 	.db #0x01	; 1
      0013D2 01                    4965 	.db #0x01	; 1
      0013D3 01                    4966 	.db #0x01	; 1
      0013D4 01                    4967 	.db #0x01	; 1
      0013D5 01                    4968 	.db #0x01	; 1
      0013D6 01                    4969 	.db #0x01	; 1
      0013D7 01                    4970 	.db #0x01	; 1
      0013D8 01                    4971 	.db #0x01	; 1
      0013D9 80                    4972 	.db #0x80	; 128
      0013DA 80                    4973 	.db #0x80	; 128
      0013DB 80                    4974 	.db #0x80	; 128
      0013DC 80                    4975 	.db #0x80	; 128
      0013DD 80                    4976 	.db #0x80	; 128
      0013DE 80                    4977 	.db #0x80	; 128
      0013DF 80                    4978 	.db #0x80	; 128
      0013E0 80                    4979 	.db #0x80	; 128
      0013E1                       4980 _enemies_2_0_tiles:
      0013E1 05                    4981 	.db #0x05	; 5
      0013E2 18                    4982 	.db #0x18	; 24
      0013E3 00                    4983 	.db #0x00	; 0
      0013E4 67                    4984 	.db #0x67	; 103	'g'
      0013E5 18                    4985 	.db #0x18	; 24
      0013E6 98                    4986 	.db #0x98	; 152
      0013E7 67                    4987 	.db #0x67	; 103	'g'
      0013E8 52                    4988 	.db #0x52	; 82	'R'
      0013E9 8D                    4989 	.db #0x8d	; 141
      0013EA A0                    4990 	.db #0xa0	; 160
      0013EB 1F                    4991 	.db #0x1f	; 31
      0013EC 5D                    4992 	.db #0x5d	; 93
      0013ED 22                    4993 	.db #0x22	; 34
      0013EE A2                    4994 	.db #0xa2	; 162
      0013EF 41                    4995 	.db #0x41	; 65	'A'
      0013F0 41                    4996 	.db #0x41	; 65	'A'
      0013F1 00                    4997 	.db #0x00	; 0
      0013F2 1E                    4998 	.db #0x1e	; 30
      0013F3 00                    4999 	.db #0x00	; 0
      0013F4 E1                    5000 	.db #0xe1	; 225
      0013F5 1E                    5001 	.db #0x1e	; 30
      0013F6 1E                    5002 	.db #0x1e	; 30
      0013F7 E1                    5003 	.db #0xe1	; 225
      0013F8 42                    5004 	.db #0x42	; 66	'B'
      0013F9 BC                    5005 	.db #0xbc	; 188
      0013FA 0D                    5006 	.db #0x0d	; 13
      0013FB F2                    5007 	.db #0xf2	; 242
      0013FC B6                    5008 	.db #0xb6	; 182
      0013FD 49                    5009 	.db #0x49	; 73	'I'
      0013FE 69                    5010 	.db #0x69	; 105	'i'
      0013FF 90                    5011 	.db #0x90	; 144
      001400 90                    5012 	.db #0x90	; 144
      001401 00                    5013 	.db #0x00	; 0
      001402 70                    5014 	.db #0x70	; 112	'p'
      001403 00                    5015 	.db #0x00	; 0
      001404 8F                    5016 	.db #0x8f	; 143
      001405 70                    5017 	.db #0x70	; 112	'p'
      001406 70                    5018 	.db #0x70	; 112	'p'
      001407 8F                    5019 	.db #0x8f	; 143
      001408 C2                    5020 	.db #0xc2	; 194
      001409 3D                    5021 	.db #0x3d	; 61
      00140A B0                    5022 	.db #0xb0	; 176
      00140B 4F                    5023 	.db #0x4f	; 79	'O'
      00140C 6D                    5024 	.db #0x6d	; 109	'm'
      00140D 92                    5025 	.db #0x92	; 146
      00140E 96                    5026 	.db #0x96	; 150
      00140F 09                    5027 	.db #0x09	; 9
      001410 09                    5028 	.db #0x09	; 9
      001411 00                    5029 	.db #0x00	; 0
      001412 18                    5030 	.db #0x18	; 24
      001413 00                    5031 	.db #0x00	; 0
      001414 E6                    5032 	.db #0xe6	; 230
      001415 18                    5033 	.db #0x18	; 24
      001416 19                    5034 	.db #0x19	; 25
      001417 E6                    5035 	.db #0xe6	; 230
      001418 4E                    5036 	.db #0x4e	; 78	'N'
      001419 B1                    5037 	.db #0xb1	; 177
      00141A 05                    5038 	.db #0x05	; 5
      00141B F8                    5039 	.db #0xf8	; 248
      00141C BA                    5040 	.db #0xba	; 186
      00141D 44                    5041 	.db #0x44	; 68	'D'
      00141E 45                    5042 	.db #0x45	; 69	'E'
      00141F 82                    5043 	.db #0x82	; 130
      001420 82                    5044 	.db #0x82	; 130
      001421 00                    5045 	.db #0x00	; 0
      001422 00                    5046 	.db #0x00	; 0
      001423 00                    5047 	.db #0x00	; 0
      001424 00                    5048 	.db #0x00	; 0
      001425 01                    5049 	.db #0x01	; 1
      001426 00                    5050 	.db #0x00	; 0
      001427 00                    5051 	.db #0x00	; 0
      001428 00                    5052 	.db #0x00	; 0
      001429 01                    5053 	.db #0x01	; 1
      00142A 00                    5054 	.db #0x00	; 0
      00142B 00                    5055 	.db #0x00	; 0
      00142C 00                    5056 	.db #0x00	; 0
      00142D 01                    5057 	.db #0x01	; 1
      00142E 00                    5058 	.db #0x00	; 0
      00142F 00                    5059 	.db #0x00	; 0
      001430 00                    5060 	.db #0x00	; 0
      001431 01                    5061 	.db #0x01	; 1
      001432                       5062 _room_3_0_map:
      001432 12 00                 5063 	.dw #0x0012
      001434 FF                    5064 	.db #0xff	; 255
      001435 00                    5065 	.db #0x00	; 0
      001436 FF                    5066 	.db #0xff	; 255
      001437 00                    5067 	.db #0x00	; 0
      001438 FF                    5068 	.db #0xff	; 255
      001439 00                    5069 	.db #0x00	; 0
      00143A FF                    5070 	.db #0xff	; 255
      00143B 00                    5071 	.db #0x00	; 0
      00143C FF                    5072 	.db #0xff	; 255
      00143D 00                    5073 	.db #0x00	; 0
      00143E FF                    5074 	.db #0xff	; 255
      00143F 00                    5075 	.db #0x00	; 0
      001440 FF                    5076 	.db #0xff	; 255
      001441 00                    5077 	.db #0x00	; 0
      001442 FF                    5078 	.db #0xff	; 255
      001443 00                    5079 	.db #0x00	; 0
      001444 C6                    5080 	.db #0xc6	; 198
      001445 00                    5081 	.db #0x00	; 0
      001446                       5082 _room_3_0_coll:
      001446 12 00                 5083 	.dw #0x0012
      001448 FF                    5084 	.db #0xff	; 255
      001449 00                    5085 	.db #0x00	; 0
      00144A FF                    5086 	.db #0xff	; 255
      00144B 00                    5087 	.db #0x00	; 0
      00144C FF                    5088 	.db #0xff	; 255
      00144D 00                    5089 	.db #0x00	; 0
      00144E FF                    5090 	.db #0xff	; 255
      00144F 00                    5091 	.db #0x00	; 0
      001450 FF                    5092 	.db #0xff	; 255
      001451 00                    5093 	.db #0x00	; 0
      001452 FF                    5094 	.db #0xff	; 255
      001453 00                    5095 	.db #0x00	; 0
      001454 FF                    5096 	.db #0xff	; 255
      001455 00                    5097 	.db #0x00	; 0
      001456 FF                    5098 	.db #0xff	; 255
      001457 00                    5099 	.db #0x00	; 0
      001458 C6                    5100 	.db #0xc6	; 198
      001459 00                    5101 	.db #0x00	; 0
      00145A                       5102 _room_3_0_tiles:
      00145A 01                    5103 	.db #0x01	; 1
      00145B 00                    5104 	.db #0x00	; 0
      00145C                       5105 _room_4_0_map:
      00145C 4E 00                 5106 	.dw #0x004e
      00145E FF                    5107 	.db #0xff	; 255
      00145F 00                    5108 	.db #0x00	; 0
      001460 FF                    5109 	.db #0xff	; 255
      001461 00                    5110 	.db #0x00	; 0
      001462 F8                    5111 	.db #0xf8	; 248
      001463 00                    5112 	.db #0x00	; 0
      001464 01                    5113 	.db #0x01	; 1
      001465 02                    5114 	.db #0x02	; 2
      001466 03                    5115 	.db #0x03	; 3
      001467 04                    5116 	.db #0x04	; 4
      001468 05                    5117 	.db #0x05	; 5
      001469 06                    5118 	.db #0x06	; 6
      00146A D8                    5119 	.db #0xd8	; 216
      00146B 00                    5120 	.db #0x00	; 0
      00146C 07                    5121 	.db #0x07	; 7
      00146D 08                    5122 	.db #0x08	; 8
      00146E 09                    5123 	.db #0x09	; 9
      00146F 0A                    5124 	.db #0x0a	; 10
      001470 0B                    5125 	.db #0x0b	; 11
      001471 0C                    5126 	.db #0x0c	; 12
      001472 E2                    5127 	.db #0xe2	; 226
      001473 00                    5128 	.db #0x00	; 0
      001474 01                    5129 	.db #0x01	; 1
      001475 02                    5130 	.db #0x02	; 2
      001476 03                    5131 	.db #0x03	; 3
      001477 04                    5132 	.db #0x04	; 4
      001478 05                    5133 	.db #0x05	; 5
      001479 06                    5134 	.db #0x06	; 6
      00147A D8                    5135 	.db #0xd8	; 216
      00147B 00                    5136 	.db #0x00	; 0
      00147C 07                    5137 	.db #0x07	; 7
      00147D 08                    5138 	.db #0x08	; 8
      00147E 09                    5139 	.db #0x09	; 9
      00147F 0A                    5140 	.db #0x0a	; 10
      001480 0B                    5141 	.db #0x0b	; 11
      001481 0C                    5142 	.db #0x0c	; 12
      001482 FF                    5143 	.db #0xff	; 255
      001483 00                    5144 	.db #0x00	; 0
      001484 CF                    5145 	.db #0xcf	; 207
      001485 00                    5146 	.db #0x00	; 0
      001486 01                    5147 	.db #0x01	; 1
      001487 02                    5148 	.db #0x02	; 2
      001488 C2                    5149 	.db #0xc2	; 194
      001489 03                    5150 	.db #0x03	; 3
      00148A 04                    5151 	.db #0x04	; 4
      00148B 03                    5152 	.db #0x03	; 3
      00148C 04                    5153 	.db #0x04	; 4
      00148D 05                    5154 	.db #0x05	; 5
      00148E 06                    5155 	.db #0x06	; 6
      00148F D5                    5156 	.db #0xd5	; 213
      001490 00                    5157 	.db #0x00	; 0
      001491 07                    5158 	.db #0x07	; 7
      001492 08                    5159 	.db #0x08	; 8
      001493 C2                    5160 	.db #0xc2	; 194
      001494 09                    5161 	.db #0x09	; 9
      001495 0A                    5162 	.db #0x0a	; 10
      001496 09                    5163 	.db #0x09	; 9
      001497 0A                    5164 	.db #0x0a	; 10
      001498 0B                    5165 	.db #0x0b	; 11
      001499 0C                    5166 	.db #0x0c	; 12
      00149A E1                    5167 	.db #0xe1	; 225
      00149B 00                    5168 	.db #0x00	; 0
      00149C 01                    5169 	.db #0x01	; 1
      00149D 02                    5170 	.db #0x02	; 2
      00149E 03                    5171 	.db #0x03	; 3
      00149F 04                    5172 	.db #0x04	; 4
      0014A0 05                    5173 	.db #0x05	; 5
      0014A1 06                    5174 	.db #0x06	; 6
      0014A2 D8                    5175 	.db #0xd8	; 216
      0014A3 00                    5176 	.db #0x00	; 0
      0014A4 07                    5177 	.db #0x07	; 7
      0014A5 08                    5178 	.db #0x08	; 8
      0014A6 09                    5179 	.db #0x09	; 9
      0014A7 0A                    5180 	.db #0x0a	; 10
      0014A8 0B                    5181 	.db #0x0b	; 11
      0014A9 0C                    5182 	.db #0x0c	; 12
      0014AA E4                    5183 	.db #0xe4	; 228
      0014AB 00                    5184 	.db #0x00	; 0
      0014AC                       5185 _room_4_0_coll:
      0014AC 28 00                 5186 	.dw #0x0028
      0014AE FF                    5187 	.db #0xff	; 255
      0014AF 00                    5188 	.db #0x00	; 0
      0014B0 FF                    5189 	.db #0xff	; 255
      0014B1 00                    5190 	.db #0x00	; 0
      0014B2 F9                    5191 	.db #0xf9	; 249
      0014B3 00                    5192 	.db #0x00	; 0
      0014B4 C4                    5193 	.db #0xc4	; 196
      0014B5 05                    5194 	.db #0x05	; 5
      0014B6 D9                    5195 	.db #0xd9	; 217
      0014B7 00                    5196 	.db #0x00	; 0
      0014B8 C6                    5197 	.db #0xc6	; 198
      0014B9 05                    5198 	.db #0x05	; 5
      0014BA E3                    5199 	.db #0xe3	; 227
      0014BB 00                    5200 	.db #0x00	; 0
      0014BC C4                    5201 	.db #0xc4	; 196
      0014BD 05                    5202 	.db #0x05	; 5
      0014BE D9                    5203 	.db #0xd9	; 217
      0014BF 00                    5204 	.db #0x00	; 0
      0014C0 C6                    5205 	.db #0xc6	; 198
      0014C1 05                    5206 	.db #0x05	; 5
      0014C2 FF                    5207 	.db #0xff	; 255
      0014C3 00                    5208 	.db #0x00	; 0
      0014C4 D0                    5209 	.db #0xd0	; 208
      0014C5 00                    5210 	.db #0x00	; 0
      0014C6 C7                    5211 	.db #0xc7	; 199
      0014C7 05                    5212 	.db #0x05	; 5
      0014C8 D6                    5213 	.db #0xd6	; 214
      0014C9 00                    5214 	.db #0x00	; 0
      0014CA C9                    5215 	.db #0xc9	; 201
      0014CB 05                    5216 	.db #0x05	; 5
      0014CC E2                    5217 	.db #0xe2	; 226
      0014CD 00                    5218 	.db #0x00	; 0
      0014CE C4                    5219 	.db #0xc4	; 196
      0014CF 05                    5220 	.db #0x05	; 5
      0014D0 D9                    5221 	.db #0xd9	; 217
      0014D1 00                    5222 	.db #0x00	; 0
      0014D2 C6                    5223 	.db #0xc6	; 198
      0014D3 05                    5224 	.db #0x05	; 5
      0014D4 E4                    5225 	.db #0xe4	; 228
      0014D5 00                    5226 	.db #0x00	; 0
      0014D6                       5227 _room_4_0_tiles:
      0014D6 0D                    5228 	.db #0x0d	; 13
      0014D7 00                    5229 	.db #0x00	; 0
      0014D8 01                    5230 	.db #0x01	; 1
      0014D9 00                    5231 	.db #0x00	; 0
      0014DA 00                    5232 	.db #0x00	; 0
      0014DB 00                    5233 	.db #0x00	; 0
      0014DC 00                    5234 	.db #0x00	; 0
      0014DD 00                    5235 	.db #0x00	; 0
      0014DE 03                    5236 	.db #0x03	; 3
      0014DF 07                    5237 	.db #0x07	; 7
      0014E0 1F                    5238 	.db #0x1f	; 31
      0014E1 01                    5239 	.db #0x01	; 1
      0014E2 00                    5240 	.db #0x00	; 0
      0014E3 1D                    5241 	.db #0x1d	; 29
      0014E4 3F                    5242 	.db #0x3f	; 63
      0014E5 3F                    5243 	.db #0x3f	; 63
      0014E6 17                    5244 	.db #0x17	; 23
      0014E7 2F                    5245 	.db #0x2f	; 47
      0014E8 DB                    5246 	.db #0xdb	; 219
      0014E9 B5                    5247 	.db #0xb5	; 181
      0014EA 01                    5248 	.db #0x01	; 1
      0014EB 18                    5249 	.db #0x18	; 24
      0014EC 7C                    5250 	.db #0x7c	; 124
      0014ED FE                    5251 	.db #0xfe	; 254
      0014EE FE                    5252 	.db #0xfe	; 254
      0014EF 7C                    5253 	.db #0x7c	; 124
      0014F0 FB                    5254 	.db #0xfb	; 251
      0014F1 F5                    5255 	.db #0xf5	; 245
      0014F2 EF                    5256 	.db #0xef	; 239
      0014F3 01                    5257 	.db #0x01	; 1
      0014F4 06                    5258 	.db #0x06	; 6
      0014F5 6F                    5259 	.db #0x6f	; 111	'o'
      0014F6 FD                    5260 	.db #0xfd	; 253
      0014F7 FE                    5261 	.db #0xfe	; 254
      0014F8 BF                    5262 	.db #0xbf	; 191
      0014F9 5F                    5263 	.db #0x5f	; 95
      0014FA FF                    5264 	.db #0xff	; 255
      0014FB FE                    5265 	.db #0xfe	; 254
      0014FC 01                    5266 	.db #0x01	; 1
      0014FD 00                    5267 	.db #0x00	; 0
      0014FE B8                    5268 	.db #0xb8	; 184
      0014FF FC                    5269 	.db #0xfc	; 252
      001500 FC                    5270 	.db #0xfc	; 252
      001501 E8                    5271 	.db #0xe8	; 232
      001502 F4                    5272 	.db #0xf4	; 244
      001503 DB                    5273 	.db #0xdb	; 219
      001504 AD                    5274 	.db #0xad	; 173
      001505 01                    5275 	.db #0x01	; 1
      001506 00                    5276 	.db #0x00	; 0
      001507 00                    5277 	.db #0x00	; 0
      001508 00                    5278 	.db #0x00	; 0
      001509 00                    5279 	.db #0x00	; 0
      00150A 00                    5280 	.db #0x00	; 0
      00150B C0                    5281 	.db #0xc0	; 192
      00150C E0                    5282 	.db #0xe0	; 224
      00150D F8                    5283 	.db #0xf8	; 248
      00150E 01                    5284 	.db #0x01	; 1
      00150F 1F                    5285 	.db #0x1f	; 31
      001510 1F                    5286 	.db #0x1f	; 31
      001511 6B                    5287 	.db #0x6b	; 107	'k'
      001512 F5                    5288 	.db #0xf5	; 245
      001513 EF                    5289 	.db #0xef	; 239
      001514 7D                    5290 	.db #0x7d	; 125
      001515 AA                    5291 	.db #0xaa	; 170
      001516 40                    5292 	.db #0x40	; 64
      001517 01                    5293 	.db #0x01	; 1
      001518 FF                    5294 	.db #0xff	; 255
      001519 FF                    5295 	.db #0xff	; 255
      00151A F7                    5296 	.db #0xf7	; 247
      00151B FF                    5297 	.db #0xff	; 255
      00151C 6E                    5298 	.db #0x6e	; 110	'n'
      00151D B5                    5299 	.db #0xb5	; 181
      00151E 4A                    5300 	.db #0x4a	; 74	'J'
      00151F A1                    5301 	.db #0xa1	; 161
      001520 01                    5302 	.db #0x01	; 1
      001521 F5                    5303 	.db #0xf5	; 245
      001522 FF                    5304 	.db #0xff	; 255
      001523 EF                    5305 	.db #0xef	; 239
      001524 55                    5306 	.db #0x55	; 85	'U'
      001525 AA                    5307 	.db #0xaa	; 170
      001526 57                    5308 	.db #0x57	; 87	'W'
      001527 AB                    5309 	.db #0xab	; 171
      001528 05                    5310 	.db #0x05	; 5
      001529 01                    5311 	.db #0x01	; 1
      00152A FD                    5312 	.db #0xfd	; 253
      00152B FF                    5313 	.db #0xff	; 255
      00152C 6D                    5314 	.db #0x6d	; 109	'm'
      00152D FB                    5315 	.db #0xfb	; 251
      00152E AE                    5316 	.db #0xae	; 174
      00152F 55                    5317 	.db #0x55	; 85	'U'
      001530 AA                    5318 	.db #0xaa	; 170
      001531 41                    5319 	.db #0x41	; 65	'A'
      001532 01                    5320 	.db #0x01	; 1
      001533 FB                    5321 	.db #0xfb	; 251
      001534 B7                    5322 	.db #0xb7	; 183
      001535 FA                    5323 	.db #0xfa	; 250
      001536 D5                    5324 	.db #0xd5	; 213
      001537 EB                    5325 	.db #0xeb	; 235
      001538 55                    5326 	.db #0x55	; 85	'U'
      001539 AE                    5327 	.db #0xae	; 174
      00153A 44                    5328 	.db #0x44	; 68	'D'
      00153B 01                    5329 	.db #0x01	; 1
      00153C F8                    5330 	.db #0xf8	; 248
      00153D F8                    5331 	.db #0xf8	; 248
      00153E D6                    5332 	.db #0xd6	; 214
      00153F AF                    5333 	.db #0xaf	; 175
      001540 F7                    5334 	.db #0xf7	; 247
      001541 BE                    5335 	.db #0xbe	; 190
      001542 55                    5336 	.db #0x55	; 85	'U'
      001543 02                    5337 	.db #0x02	; 2
      001544                       5338 _enemies_4_0_tiles:
      001544 02                    5339 	.db #0x02	; 2
      001545 00                    5340 	.db #0x00	; 0
      001546 00                    5341 	.db #0x00	; 0
      001547 18                    5342 	.db #0x18	; 24
      001548 18                    5343 	.db #0x18	; 24
      001549 18                    5344 	.db #0x18	; 24
      00154A 18                    5345 	.db #0x18	; 24
      00154B 42                    5346 	.db #0x42	; 66	'B'
      00154C 42                    5347 	.db #0x42	; 66	'B'
      00154D DB                    5348 	.db #0xdb	; 219
      00154E DB                    5349 	.db #0xdb	; 219
      00154F 99                    5350 	.db #0x99	; 153
      001550 99                    5351 	.db #0x99	; 153
      001551 18                    5352 	.db #0x18	; 24
      001552 18                    5353 	.db #0x18	; 24
      001553 00                    5354 	.db #0x00	; 0
      001554 00                    5355 	.db #0x00	; 0
      001555 00                    5356 	.db #0x00	; 0
      001556 00                    5357 	.db #0x00	; 0
      001557 81                    5358 	.db #0x81	; 129
      001558 81                    5359 	.db #0x81	; 129
      001559 42                    5360 	.db #0x42	; 66	'B'
      00155A 42                    5361 	.db #0x42	; 66	'B'
      00155B 18                    5362 	.db #0x18	; 24
      00155C 18                    5363 	.db #0x18	; 24
      00155D 18                    5364 	.db #0x18	; 24
      00155E 18                    5365 	.db #0x18	; 24
      00155F 00                    5366 	.db #0x00	; 0
      001560 00                    5367 	.db #0x00	; 0
      001561 18                    5368 	.db #0x18	; 24
      001562 18                    5369 	.db #0x18	; 24
      001563 00                    5370 	.db #0x00	; 0
      001564 00                    5371 	.db #0x00	; 0
      001565                       5372 _room_5_0_map:
      001565 2E 01                 5373 	.dw #0x012e
      001567 C9                    5374 	.db #0xc9	; 201
      001568 00                    5375 	.db #0x00	; 0
      001569 01                    5376 	.db #0x01	; 1
      00156A 02                    5377 	.db #0x02	; 2
      00156B 03                    5378 	.db #0x03	; 3
      00156C 04                    5379 	.db #0x04	; 4
      00156D 05                    5380 	.db #0x05	; 5
      00156E CD                    5381 	.db #0xcd	; 205
      00156F 00                    5382 	.db #0x00	; 0
      001570 06                    5383 	.db #0x06	; 6
      001571 07                    5384 	.db #0x07	; 7
      001572 08                    5385 	.db #0x08	; 8
      001573 C8                    5386 	.db #0xc8	; 200
      001574 00                    5387 	.db #0x00	; 0
      001575 09                    5388 	.db #0x09	; 9
      001576 0A                    5389 	.db #0x0a	; 10
      001577 0B                    5390 	.db #0x0b	; 11
      001578 0C                    5391 	.db #0x0c	; 12
      001579 0D                    5392 	.db #0x0d	; 13
      00157A 05                    5393 	.db #0x05	; 5
      00157B CD                    5394 	.db #0xcd	; 205
      00157C 00                    5395 	.db #0x00	; 0
      00157D 06                    5396 	.db #0x06	; 6
      00157E 0E                    5397 	.db #0x0e	; 14
      00157F 0C                    5398 	.db #0x0c	; 12
      001580 C2                    5399 	.db #0xc2	; 194
      001581 00                    5400 	.db #0x00	; 0
      001582 0F                    5401 	.db #0x0f	; 15
      001583 10                    5402 	.db #0x10	; 16
      001584 11                    5403 	.db #0x11	; 17
      001585 12                    5404 	.db #0x12	; 18
      001586 C2                    5405 	.db #0xc2	; 194
      001587 00                    5406 	.db #0x00	; 0
      001588 13                    5407 	.db #0x13	; 19
      001589 14                    5408 	.db #0x14	; 20
      00158A 02                    5409 	.db #0x02	; 2
      00158B 03                    5410 	.db #0x03	; 3
      00158C 04                    5411 	.db #0x04	; 4
      00158D 05                    5412 	.db #0x05	; 5
      00158E 15                    5413 	.db #0x15	; 21
      00158F CC                    5414 	.db #0xcc	; 204
      001590 00                    5415 	.db #0x00	; 0
      001591 06                    5416 	.db #0x06	; 6
      001592 16                    5417 	.db #0x16	; 22
      001593 08                    5418 	.db #0x08	; 8
      001594 C2                    5419 	.db #0xc2	; 194
      001595 00                    5420 	.db #0x00	; 0
      001596 17                    5421 	.db #0x17	; 23
      001597 18                    5422 	.db #0x18	; 24
      001598 19                    5423 	.db #0x19	; 25
      001599 1A                    5424 	.db #0x1a	; 26
      00159A 1B                    5425 	.db #0x1b	; 27
      00159B C2                    5426 	.db #0xc2	; 194
      00159C 00                    5427 	.db #0x00	; 0
      00159D 01                    5428 	.db #0x01	; 1
      00159E 0B                    5429 	.db #0x0b	; 11
      00159F 0C                    5430 	.db #0x0c	; 12
      0015A0 0D                    5431 	.db #0x0d	; 13
      0015A1 1C                    5432 	.db #0x1c	; 28
      0015A2 1D                    5433 	.db #0x1d	; 29
      0015A3 CC                    5434 	.db #0xcc	; 204
      0015A4 00                    5435 	.db #0x00	; 0
      0015A5 06                    5436 	.db #0x06	; 6
      0015A6 1E                    5437 	.db #0x1e	; 30
      0015A7 0C                    5438 	.db #0x0c	; 12
      0015A8 C2                    5439 	.db #0xc2	; 194
      0015A9 00                    5440 	.db #0x00	; 0
      0015AA 1F                    5441 	.db #0x1f	; 31
      0015AB 20                    5442 	.db #0x20	; 32
      0015AC 21                    5443 	.db #0x21	; 33
      0015AD 22                    5444 	.db #0x22	; 34
      0015AE 23                    5445 	.db #0x23	; 35
      0015AF 24                    5446 	.db #0x24	; 36
      0015B0 25                    5447 	.db #0x25	; 37
      0015B1 01                    5448 	.db #0x01	; 1
      0015B2 02                    5449 	.db #0x02	; 2
      0015B3 03                    5450 	.db #0x03	; 3
      0015B4 04                    5451 	.db #0x04	; 4
      0015B5 26                    5452 	.db #0x26	; 38
      0015B6 11                    5453 	.db #0x11	; 17
      0015B7 CC                    5454 	.db #0xcc	; 204
      0015B8 00                    5455 	.db #0x00	; 0
      0015B9 06                    5456 	.db #0x06	; 6
      0015BA 07                    5457 	.db #0x07	; 7
      0015BB 08                    5458 	.db #0x08	; 8
      0015BC C3                    5459 	.db #0xc3	; 195
      0015BD 00                    5460 	.db #0x00	; 0
      0015BE 0F                    5461 	.db #0x0f	; 15
      0015BF 10                    5462 	.db #0x10	; 16
      0015C0 11                    5463 	.db #0x11	; 17
      0015C1 27                    5464 	.db #0x27	; 39
      0015C2 28                    5465 	.db #0x28	; 40
      0015C3 29                    5466 	.db #0x29	; 41
      0015C4 01                    5467 	.db #0x01	; 1
      0015C5 0B                    5468 	.db #0x0b	; 11
      0015C6 0C                    5469 	.db #0x0c	; 12
      0015C7 0D                    5470 	.db #0x0d	; 13
      0015C8 2A                    5471 	.db #0x2a	; 42
      0015C9 19                    5472 	.db #0x19	; 25
      0015CA CC                    5473 	.db #0xcc	; 204
      0015CB 00                    5474 	.db #0x00	; 0
      0015CC 06                    5475 	.db #0x06	; 6
      0015CD 0E                    5476 	.db #0x0e	; 14
      0015CE 0C                    5477 	.db #0x0c	; 12
      0015CF C3                    5478 	.db #0xc3	; 195
      0015D0 00                    5479 	.db #0x00	; 0
      0015D1 17                    5480 	.db #0x17	; 23
      0015D2 18                    5481 	.db #0x18	; 24
      0015D3 19                    5482 	.db #0x19	; 25
      0015D4 00                    5483 	.db #0x00	; 0
      0015D5 2B                    5484 	.db #0x2b	; 43
      0015D6 2C                    5485 	.db #0x2c	; 44
      0015D7 2D                    5486 	.db #0x2d	; 45
      0015D8 02                    5487 	.db #0x02	; 2
      0015D9 03                    5488 	.db #0x03	; 3
      0015DA 04                    5489 	.db #0x04	; 4
      0015DB 2E                    5490 	.db #0x2e	; 46
      0015DC 21                    5491 	.db #0x21	; 33
      0015DD C5                    5492 	.db #0xc5	; 197
      0015DE 00                    5493 	.db #0x00	; 0
      0015DF 2F                    5494 	.db #0x2f	; 47
      0015E0 30                    5495 	.db #0x30	; 48	'0'
      0015E1 31                    5496 	.db #0x31	; 49	'1'
      0015E2 32                    5497 	.db #0x32	; 50	'2'
      0015E3 C3                    5498 	.db #0xc3	; 195
      0015E4 33                    5499 	.db #0x33	; 51	'3'
      0015E5 34                    5500 	.db #0x34	; 52	'4'
      0015E6 16                    5501 	.db #0x16	; 22
      0015E7 08                    5502 	.db #0x08	; 8
      0015E8 C3                    5503 	.db #0xc3	; 195
      0015E9 00                    5504 	.db #0x00	; 0
      0015EA 1F                    5505 	.db #0x1f	; 31
      0015EB 20                    5506 	.db #0x20	; 32
      0015EC 21                    5507 	.db #0x21	; 33
      0015ED C3                    5508 	.db #0xc3	; 195
      0015EE 00                    5509 	.db #0x00	; 0
      0015EF 01                    5510 	.db #0x01	; 1
      0015F0 0B                    5511 	.db #0x0b	; 11
      0015F1 0C                    5512 	.db #0x0c	; 12
      0015F2 0D                    5513 	.db #0x0d	; 13
      0015F3 05                    5514 	.db #0x05	; 5
      0015F4 00                    5515 	.db #0x00	; 0
      0015F5 35                    5516 	.db #0x35	; 53	'5'
      0015F6 36                    5517 	.db #0x36	; 54	'6'
      0015F7 C3                    5518 	.db #0xc3	; 195
      0015F8 00                    5519 	.db #0x00	; 0
      0015F9 37                    5520 	.db #0x37	; 55	'7'
      0015FA 38                    5521 	.db #0x38	; 56	'8'
      0015FB 39                    5522 	.db #0x39	; 57	'9'
      0015FC 3A                    5523 	.db #0x3a	; 58
      0015FD 3B                    5524 	.db #0x3b	; 59
      0015FE 3C                    5525 	.db #0x3c	; 60
      0015FF 3D                    5526 	.db #0x3d	; 61
      001600 3E                    5527 	.db #0x3e	; 62
      001601 1E                    5528 	.db #0x1e	; 30
      001602 0C                    5529 	.db #0x0c	; 12
      001603 C9                    5530 	.db #0xc9	; 201
      001604 00                    5531 	.db #0x00	; 0
      001605 01                    5532 	.db #0x01	; 1
      001606 02                    5533 	.db #0x02	; 2
      001607 03                    5534 	.db #0x03	; 3
      001608 04                    5535 	.db #0x04	; 4
      001609 3F                    5536 	.db #0x3f	; 63
      00160A 40                    5537 	.db #0x40	; 64
      00160B 41                    5538 	.db #0x41	; 65	'A'
      00160C C4                    5539 	.db #0xc4	; 196
      00160D 00                    5540 	.db #0x00	; 0
      00160E 42                    5541 	.db #0x42	; 66	'B'
      00160F 43                    5542 	.db #0x43	; 67	'C'
      001610 44                    5543 	.db #0x44	; 68	'D'
      001611 45                    5544 	.db #0x45	; 69	'E'
      001612 C3                    5545 	.db #0xc3	; 195
      001613 46                    5546 	.db #0x46	; 70	'F'
      001614 47                    5547 	.db #0x47	; 71	'G'
      001615 07                    5548 	.db #0x07	; 7
      001616 08                    5549 	.db #0x08	; 8
      001617 C6                    5550 	.db #0xc6	; 198
      001618 00                    5551 	.db #0x00	; 0
      001619 48                    5552 	.db #0x48	; 72	'H'
      00161A 49                    5553 	.db #0x49	; 73	'I'
      00161B 4A                    5554 	.db #0x4a	; 74	'J'
      00161C 01                    5555 	.db #0x01	; 1
      00161D 0B                    5556 	.db #0x0b	; 11
      00161E 0C                    5557 	.db #0x0c	; 12
      00161F 0D                    5558 	.db #0x0d	; 13
      001620 4B                    5559 	.db #0x4b	; 75	'K'
      001621 4C                    5560 	.db #0x4c	; 76	'L'
      001622 C4                    5561 	.db #0xc4	; 196
      001623 00                    5562 	.db #0x00	; 0
      001624 C9                    5563 	.db #0xc9	; 201
      001625 4D                    5564 	.db #0x4d	; 77	'M'
      001626 4E                    5565 	.db #0x4e	; 78	'N'
      001627 0C                    5566 	.db #0x0c	; 12
      001628 C6                    5567 	.db #0xc6	; 198
      001629 00                    5568 	.db #0x00	; 0
      00162A 4F                    5569 	.db #0x4f	; 79	'O'
      00162B 50                    5570 	.db #0x50	; 80	'P'
      00162C 51                    5571 	.db #0x51	; 81	'Q'
      00162D 01                    5572 	.db #0x01	; 1
      00162E 02                    5573 	.db #0x02	; 2
      00162F 03                    5574 	.db #0x03	; 3
      001630 04                    5575 	.db #0x04	; 4
      001631 05                    5576 	.db #0x05	; 5
      001632 CC                    5577 	.db #0xcc	; 204
      001633 00                    5578 	.db #0x00	; 0
      001634 52                    5579 	.db #0x52	; 82	'R'
      001635 53                    5580 	.db #0x53	; 83	'S'
      001636 54                    5581 	.db #0x54	; 84	'T'
      001637 08                    5582 	.db #0x08	; 8
      001638 C6                    5583 	.db #0xc6	; 198
      001639 00                    5584 	.db #0x00	; 0
      00163A 55                    5585 	.db #0x55	; 85	'U'
      00163B 56                    5586 	.db #0x56	; 86	'V'
      00163C 57                    5587 	.db #0x57	; 87	'W'
      00163D 01                    5588 	.db #0x01	; 1
      00163E 0B                    5589 	.db #0x0b	; 11
      00163F 0C                    5590 	.db #0x0c	; 12
      001640 0D                    5591 	.db #0x0d	; 13
      001641 05                    5592 	.db #0x05	; 5
      001642 CC                    5593 	.db #0xcc	; 204
      001643 00                    5594 	.db #0x00	; 0
      001644 58                    5595 	.db #0x58	; 88	'X'
      001645 59                    5596 	.db #0x59	; 89	'Y'
      001646 5A                    5597 	.db #0x5a	; 90	'Z'
      001647 0C                    5598 	.db #0x0c	; 12
      001648 C6                    5599 	.db #0xc6	; 198
      001649 00                    5600 	.db #0x00	; 0
      00164A C9                    5601 	.db #0xc9	; 201
      00164B 4D                    5602 	.db #0x4d	; 77	'M'
      00164C CC                    5603 	.db #0xcc	; 204
      00164D 00                    5604 	.db #0x00	; 0
      00164E 06                    5605 	.db #0x06	; 6
      00164F 07                    5606 	.db #0x07	; 7
      001650 08                    5607 	.db #0x08	; 8
      001651 C9                    5608 	.db #0xc9	; 201
      001652 00                    5609 	.db #0x00	; 0
      001653 01                    5610 	.db #0x01	; 1
      001654 02                    5611 	.db #0x02	; 2
      001655 03                    5612 	.db #0x03	; 3
      001656 04                    5613 	.db #0x04	; 4
      001657 05                    5614 	.db #0x05	; 5
      001658 CD                    5615 	.db #0xcd	; 205
      001659 00                    5616 	.db #0x00	; 0
      00165A 06                    5617 	.db #0x06	; 6
      00165B 0E                    5618 	.db #0x0e	; 14
      00165C 0C                    5619 	.db #0x0c	; 12
      00165D C4                    5620 	.db #0xc4	; 196
      00165E 00                    5621 	.db #0x00	; 0
      00165F 5B                    5622 	.db #0x5b	; 91
      001660 5C                    5623 	.db #0x5c	; 92
      001661 5D                    5624 	.db #0x5d	; 93
      001662 5C                    5625 	.db #0x5c	; 92
      001663 5E                    5626 	.db #0x5e	; 94
      001664 01                    5627 	.db #0x01	; 1
      001665 0B                    5628 	.db #0x0b	; 11
      001666 0C                    5629 	.db #0x0c	; 12
      001667 0D                    5630 	.db #0x0d	; 13
      001668 05                    5631 	.db #0x05	; 5
      001669 00                    5632 	.db #0x00	; 0
      00166A 5B                    5633 	.db #0x5b	; 91
      00166B 5C                    5634 	.db #0x5c	; 92
      00166C 5D                    5635 	.db #0x5d	; 93
      00166D 5C                    5636 	.db #0x5c	; 92
      00166E 5F                    5637 	.db #0x5f	; 95
      00166F C7                    5638 	.db #0xc7	; 199
      001670 00                    5639 	.db #0x00	; 0
      001671 06                    5640 	.db #0x06	; 6
      001672 16                    5641 	.db #0x16	; 22
      001673 08                    5642 	.db #0x08	; 8
      001674 C4                    5643 	.db #0xc4	; 196
      001675 00                    5644 	.db #0x00	; 0
      001676 60                    5645 	.db #0x60	; 96
      001677 00                    5646 	.db #0x00	; 0
      001678 60                    5647 	.db #0x60	; 96
      001679 00                    5648 	.db #0x00	; 0
      00167A 60                    5649 	.db #0x60	; 96
      00167B 01                    5650 	.db #0x01	; 1
      00167C 02                    5651 	.db #0x02	; 2
      00167D 03                    5652 	.db #0x03	; 3
      00167E 04                    5653 	.db #0x04	; 4
      00167F 05                    5654 	.db #0x05	; 5
      001680 00                    5655 	.db #0x00	; 0
      001681 60                    5656 	.db #0x60	; 96
      001682 00                    5657 	.db #0x00	; 0
      001683 60                    5658 	.db #0x60	; 96
      001684 00                    5659 	.db #0x00	; 0
      001685 61                    5660 	.db #0x61	; 97	'a'
      001686 62                    5661 	.db #0x62	; 98	'b'
      001687 63                    5662 	.db #0x63	; 99	'c'
      001688 C5                    5663 	.db #0xc5	; 197
      001689 00                    5664 	.db #0x00	; 0
      00168A 34                    5665 	.db #0x34	; 52	'4'
      00168B 1E                    5666 	.db #0x1e	; 30
      00168C 0C                    5667 	.db #0x0c	; 12
      00168D 00                    5668 	.db #0x00	; 0
      00168E D4                    5669 	.db #0xd4	; 212
      00168F 4D                    5670 	.db #0x4d	; 77	'M'
      001690 64                    5671 	.db #0x64	; 100	'd'
      001691 C6                    5672 	.db #0xc6	; 198
      001692 00                    5673 	.db #0x00	; 0
      001693 07                    5674 	.db #0x07	; 7
      001694 08                    5675 	.db #0x08	; 8
      001695                       5676 _room_5_0_coll:
      001695 56 00                 5677 	.dw #0x0056
      001697 DC                    5678 	.db #0xdc	; 220
      001698 00                    5679 	.db #0x00	; 0
      001699 C2                    5680 	.db #0xc2	; 194
      00169A 01                    5681 	.db #0x01	; 1
      00169B DC                    5682 	.db #0xdc	; 220
      00169C 00                    5683 	.db #0x00	; 0
      00169D C2                    5684 	.db #0xc2	; 194
      00169E 01                    5685 	.db #0x01	; 1
      00169F DC                    5686 	.db #0xdc	; 220
      0016A0 00                    5687 	.db #0x00	; 0
      0016A1 C2                    5688 	.db #0xc2	; 194
      0016A2 01                    5689 	.db #0x01	; 1
      0016A3 DC                    5690 	.db #0xdc	; 220
      0016A4 00                    5691 	.db #0x00	; 0
      0016A5 C2                    5692 	.db #0xc2	; 194
      0016A6 01                    5693 	.db #0x01	; 1
      0016A7 DC                    5694 	.db #0xdc	; 220
      0016A8 00                    5695 	.db #0x00	; 0
      0016A9 C2                    5696 	.db #0xc2	; 194
      0016AA 01                    5697 	.db #0x01	; 1
      0016AB DC                    5698 	.db #0xdc	; 220
      0016AC 00                    5699 	.db #0x00	; 0
      0016AD C2                    5700 	.db #0xc2	; 194
      0016AE 01                    5701 	.db #0x01	; 1
      0016AF D7                    5702 	.db #0xd7	; 215
      0016B0 00                    5703 	.db #0x00	; 0
      0016B1 C5                    5704 	.db #0xc5	; 197
      0016B2 04                    5705 	.db #0x04	; 4
      0016B3 C2                    5706 	.db #0xc2	; 194
      0016B4 01                    5707 	.db #0x01	; 1
      0016B5 D7                    5708 	.db #0xd7	; 215
      0016B6 00                    5709 	.db #0x00	; 0
      0016B7 C5                    5710 	.db #0xc5	; 197
      0016B8 04                    5711 	.db #0x04	; 4
      0016B9 C2                    5712 	.db #0xc2	; 194
      0016BA 01                    5713 	.db #0x01	; 1
      0016BB D7                    5714 	.db #0xd7	; 215
      0016BC 00                    5715 	.db #0x00	; 0
      0016BD C5                    5716 	.db #0xc5	; 197
      0016BE 04                    5717 	.db #0x04	; 4
      0016BF C2                    5718 	.db #0xc2	; 194
      0016C0 01                    5719 	.db #0x01	; 1
      0016C1 D3                    5720 	.db #0xd3	; 211
      0016C2 00                    5721 	.db #0x00	; 0
      0016C3 02                    5722 	.db #0x02	; 2
      0016C4 CA                    5723 	.db #0xca	; 202
      0016C5 01                    5724 	.db #0x01	; 1
      0016C6 DC                    5725 	.db #0xdc	; 220
      0016C7 00                    5726 	.db #0x00	; 0
      0016C8 C2                    5727 	.db #0xc2	; 194
      0016C9 01                    5728 	.db #0x01	; 1
      0016CA DC                    5729 	.db #0xdc	; 220
      0016CB 00                    5730 	.db #0x00	; 0
      0016CC C2                    5731 	.db #0xc2	; 194
      0016CD 01                    5732 	.db #0x01	; 1
      0016CE C6                    5733 	.db #0xc6	; 198
      0016CF 00                    5734 	.db #0x00	; 0
      0016D0 02                    5735 	.db #0x02	; 2
      0016D1 C7                    5736 	.db #0xc7	; 199
      0016D2 01                    5737 	.db #0x01	; 1
      0016D3 02                    5738 	.db #0x02	; 2
      0016D4 CD                    5739 	.db #0xcd	; 205
      0016D5 00                    5740 	.db #0x00	; 0
      0016D6 C2                    5741 	.db #0xc2	; 194
      0016D7 01                    5742 	.db #0x01	; 1
      0016D8 DC                    5743 	.db #0xdc	; 220
      0016D9 00                    5744 	.db #0x00	; 0
      0016DA C2                    5745 	.db #0xc2	; 194
      0016DB 01                    5746 	.db #0x01	; 1
      0016DC DC                    5747 	.db #0xdc	; 220
      0016DD 00                    5748 	.db #0x00	; 0
      0016DE C2                    5749 	.db #0xc2	; 194
      0016DF 01                    5750 	.db #0x01	; 1
      0016E0 DC                    5751 	.db #0xdc	; 220
      0016E1 00                    5752 	.db #0x00	; 0
      0016E2 C2                    5753 	.db #0xc2	; 194
      0016E3 01                    5754 	.db #0x01	; 1
      0016E4 00                    5755 	.db #0x00	; 0
      0016E5 02                    5756 	.db #0x02	; 2
      0016E6 D2                    5757 	.db #0xd2	; 210
      0016E7 01                    5758 	.db #0x01	; 1
      0016E8 02                    5759 	.db #0x02	; 2
      0016E9 C7                    5760 	.db #0xc7	; 199
      0016EA 00                    5761 	.db #0x00	; 0
      0016EB C2                    5762 	.db #0xc2	; 194
      0016EC 01                    5763 	.db #0x01	; 1
      0016ED                       5764 _room_5_0_tiles:
      0016ED 65                    5765 	.db #0x65	; 101	'e'
      0016EE 00                    5766 	.db #0x00	; 0
      0016EF 03                    5767 	.db #0x03	; 3
      0016F0 08                    5768 	.db #0x08	; 8
      0016F1 01                    5769 	.db #0x01	; 1
      0016F2 08                    5770 	.db #0x08	; 8
      0016F3 01                    5771 	.db #0x01	; 1
      0016F4 08                    5772 	.db #0x08	; 8
      0016F5 01                    5773 	.db #0x01	; 1
      0016F6 08                    5774 	.db #0x08	; 8
      0016F7 01                    5775 	.db #0x01	; 1
      0016F8 03                    5776 	.db #0x03	; 3
      0016F9 3A                    5777 	.db #0x3a	; 58
      0016FA 46                    5778 	.db #0x46	; 70	'F'
      0016FB 2A                    5779 	.db #0x2a	; 42
      0016FC 16                    5780 	.db #0x16	; 22
      0016FD 22                    5781 	.db #0x22	; 34
      0016FE 17                    5782 	.db #0x17	; 23
      0016FF 32                    5783 	.db #0x32	; 50	'2'
      001700 57                    5784 	.db #0x57	; 87	'W'
      001701 03                    5785 	.db #0x03	; 3
      001702 FA                    5786 	.db #0xfa	; 250
      001703 5F                    5787 	.db #0x5f	; 95
      001704 FA                    5788 	.db #0xfa	; 250
      001705 5F                    5789 	.db #0x5f	; 95
      001706 FA                    5790 	.db #0xfa	; 250
      001707 4F                    5791 	.db #0x4f	; 79	'O'
      001708 EA                    5792 	.db #0xea	; 234
      001709 4F                    5793 	.db #0x4f	; 79	'O'
      00170A 03                    5794 	.db #0x03	; 3
      00170B 66                    5795 	.db #0x66	; 102	'f'
      00170C 54                    5796 	.db #0x54	; 84	'T'
      00170D 6A                    5797 	.db #0x6a	; 106	'j'
      00170E 54                    5798 	.db #0x54	; 84	'T'
      00170F 66                    5799 	.db #0x66	; 102	'f'
      001710 54                    5800 	.db #0x54	; 84	'T'
      001711 E6                    5801 	.db #0xe6	; 230
      001712 54                    5802 	.db #0x54	; 84	'T'
      001713 03                    5803 	.db #0x03	; 3
      001714 80                    5804 	.db #0x80	; 128
      001715 10                    5805 	.db #0x10	; 16
      001716 80                    5806 	.db #0x80	; 128
      001717 10                    5807 	.db #0x10	; 16
      001718 80                    5808 	.db #0x80	; 128
      001719 10                    5809 	.db #0x10	; 16
      00171A 80                    5810 	.db #0x80	; 128
      00171B 10                    5811 	.db #0x10	; 16
      00171C 03                    5812 	.db #0x03	; 3
      00171D 10                    5813 	.db #0x10	; 16
      00171E 10                    5814 	.db #0x10	; 16
      00171F 18                    5815 	.db #0x18	; 24
      001720 54                    5816 	.db #0x54	; 84	'T'
      001721 44                    5817 	.db #0x44	; 68	'D'
      001722 54                    5818 	.db #0x54	; 84	'T'
      001723 38                    5819 	.db #0x38	; 56	'8'
      001724 10                    5820 	.db #0x10	; 16
      001725 03                    5821 	.db #0x03	; 3
      001726 0A                    5822 	.db #0x0a	; 10
      001727 01                    5823 	.db #0x01	; 1
      001728 0A                    5824 	.db #0x0a	; 10
      001729 03                    5825 	.db #0x03	; 3
      00172A 0A                    5826 	.db #0x0a	; 10
      00172B 02                    5827 	.db #0x02	; 2
      00172C 0A                    5828 	.db #0x0a	; 10
      00172D 02                    5829 	.db #0x02	; 2
      00172E 03                    5830 	.db #0x03	; 3
      00172F FA                    5831 	.db #0xfa	; 250
      001730 5F                    5832 	.db #0x5f	; 95
      001731 FA                    5833 	.db #0xfa	; 250
      001732 5B                    5834 	.db #0x5b	; 91
      001733 FA                    5835 	.db #0xfa	; 250
      001734 5F                    5836 	.db #0x5f	; 95
      001735 EA                    5837 	.db #0xea	; 234
      001736 4F                    5838 	.db #0x4f	; 79	'O'
      001737 02                    5839 	.db #0x02	; 2
      001738 00                    5840 	.db #0x00	; 0
      001739 00                    5841 	.db #0x00	; 0
      00173A 00                    5842 	.db #0x00	; 0
      00173B 00                    5843 	.db #0x00	; 0
      00173C 02                    5844 	.db #0x02	; 2
      00173D 05                    5845 	.db #0x05	; 5
      00173E 00                    5846 	.db #0x00	; 0
      00173F 05                    5847 	.db #0x05	; 5
      001740 04                    5848 	.db #0x04	; 4
      001741 08                    5849 	.db #0x08	; 8
      001742 08                    5850 	.db #0x08	; 8
      001743 01                    5851 	.db #0x01	; 1
      001744 61                    5852 	.db #0x61	; 97	'a'
      001745 08                    5853 	.db #0x08	; 8
      001746 A8                    5854 	.db #0xa8	; 168
      001747 01                    5855 	.db #0x01	; 1
      001748 01                    5856 	.db #0x01	; 1
      001749 08                    5857 	.db #0x08	; 8
      00174A C8                    5858 	.db #0xc8	; 200
      00174B 01                    5859 	.db #0x01	; 1
      00174C 21                    5860 	.db #0x21	; 33
      00174D 08                    5861 	.db #0x08	; 8
      00174E 08                    5862 	.db #0x08	; 8
      00174F 01                    5863 	.db #0x01	; 1
      001750 A1                    5864 	.db #0xa1	; 161
      001751 03                    5865 	.db #0x03	; 3
      001752 22                    5866 	.db #0x22	; 34
      001753 17                    5867 	.db #0x17	; 23
      001754 2A                    5868 	.db #0x2a	; 42
      001755 17                    5869 	.db #0x17	; 23
      001756 2A                    5870 	.db #0x2a	; 42
      001757 57                    5871 	.db #0x57	; 87	'W'
      001758 22                    5872 	.db #0x22	; 34
      001759 57                    5873 	.db #0x57	; 87	'W'
      00175A 03                    5874 	.db #0x03	; 3
      00175B FA                    5875 	.db #0xfa	; 250
      00175C 5F                    5876 	.db #0x5f	; 95
      00175D EA                    5877 	.db #0xea	; 234
      00175E 4F                    5878 	.db #0x4f	; 79	'O'
      00175F EA                    5879 	.db #0xea	; 234
      001760 4F                    5880 	.db #0x4f	; 79	'O'
      001761 EA                    5881 	.db #0xea	; 234
      001762 5F                    5882 	.db #0x5f	; 95
      001763 03                    5883 	.db #0x03	; 3
      001764 66                    5884 	.db #0x66	; 102	'f'
      001765 54                    5885 	.db #0x54	; 84	'T'
      001766 66                    5886 	.db #0x66	; 102	'f'
      001767 54                    5887 	.db #0x54	; 84	'T'
      001768 EA                    5888 	.db #0xea	; 234
      001769 54                    5889 	.db #0x54	; 84	'T'
      00176A E6                    5890 	.db #0xe6	; 230
      00176B 54                    5891 	.db #0x54	; 84	'T'
      00176C 03                    5892 	.db #0x03	; 3
      00176D 0A                    5893 	.db #0x0a	; 10
      00176E 01                    5894 	.db #0x01	; 1
      00176F 0A                    5895 	.db #0x0a	; 10
      001770 01                    5896 	.db #0x01	; 1
      001771 0A                    5897 	.db #0x0a	; 10
      001772 02                    5898 	.db #0x02	; 2
      001773 0A                    5899 	.db #0x0a	; 10
      001774 01                    5900 	.db #0x01	; 1
      001775 02                    5901 	.db #0x02	; 2
      001776 00                    5902 	.db #0x00	; 0
      001777 00                    5903 	.db #0x00	; 0
      001778 00                    5904 	.db #0x00	; 0
      001779 00                    5905 	.db #0x00	; 0
      00177A 00                    5906 	.db #0x00	; 0
      00177B 01                    5907 	.db #0x01	; 1
      00177C 02                    5908 	.db #0x02	; 2
      00177D 09                    5909 	.db #0x09	; 9
      00177E 02                    5910 	.db #0x02	; 2
      00177F 00                    5911 	.db #0x00	; 0
      001780 00                    5912 	.db #0x00	; 0
      001781 00                    5913 	.db #0x00	; 0
      001782 08                    5914 	.db #0x08	; 8
      001783 2A                    5915 	.db #0x2a	; 42
      001784 13                    5916 	.db #0x13	; 19
      001785 C8                    5917 	.db #0xc8	; 200
      001786 4C                    5918 	.db #0x4c	; 76	'L'
      001787 04                    5919 	.db #0x04	; 4
      001788 00                    5920 	.db #0x00	; 0
      001789 00                    5921 	.db #0x00	; 0
      00178A 00                    5922 	.db #0x00	; 0
      00178B 00                    5923 	.db #0x00	; 0
      00178C 00                    5924 	.db #0x00	; 0
      00178D 00                    5925 	.db #0x00	; 0
      00178E 00                    5926 	.db #0x00	; 0
      00178F 00                    5927 	.db #0x00	; 0
      001790 00                    5928 	.db #0x00	; 0
      001791 40                    5929 	.db #0x40	; 64
      001792 00                    5930 	.db #0x00	; 0
      001793 40                    5931 	.db #0x40	; 64
      001794 00                    5932 	.db #0x00	; 0
      001795 A8                    5933 	.db #0xa8	; 168
      001796 01                    5934 	.db #0x01	; 1
      001797 D9                    5935 	.db #0xd9	; 217
      001798 03                    5936 	.db #0x03	; 3
      001799 00                    5937 	.db #0x00	; 0
      00179A 00                    5938 	.db #0x00	; 0
      00179B 00                    5939 	.db #0x00	; 0
      00179C 00                    5940 	.db #0x00	; 0
      00179D 80                    5941 	.db #0x80	; 128
      00179E 40                    5942 	.db #0x40	; 64
      00179F 40                    5943 	.db #0x40	; 64
      0017A0 20                    5944 	.db #0x20	; 32
      0017A1 02                    5945 	.db #0x02	; 2
      0017A2 03                    5946 	.db #0x03	; 3
      0017A3 02                    5947 	.db #0x02	; 2
      0017A4 0C                    5948 	.db #0x0c	; 12
      0017A5 05                    5949 	.db #0x05	; 5
      0017A6 00                    5950 	.db #0x00	; 0
      0017A7 01                    5951 	.db #0x01	; 1
      0017A8 02                    5952 	.db #0x02	; 2
      0017A9 01                    5953 	.db #0x01	; 1
      0017AA 04                    5954 	.db #0x04	; 4
      0017AB 08                    5955 	.db #0x08	; 8
      0017AC 68                    5956 	.db #0x68	; 104	'h'
      0017AD 01                    5957 	.db #0x01	; 1
      0017AE 41                    5958 	.db #0x41	; 65	'A'
      0017AF 08                    5959 	.db #0x08	; 8
      0017B0 28                    5960 	.db #0x28	; 40
      0017B1 01                    5961 	.db #0x01	; 1
      0017B2 C1                    5962 	.db #0xc1	; 193
      0017B3 08                    5963 	.db #0x08	; 8
      0017B4 A8                    5964 	.db #0xa8	; 168
      0017B5 01                    5965 	.db #0x01	; 1
      0017B6 01                    5966 	.db #0x01	; 1
      0017B7 08                    5967 	.db #0x08	; 8
      0017B8 68                    5968 	.db #0x68	; 104	'h'
      0017B9 01                    5969 	.db #0x01	; 1
      0017BA A1                    5970 	.db #0xa1	; 161
      0017BB 03                    5971 	.db #0x03	; 3
      0017BC 00                    5972 	.db #0x00	; 0
      0017BD 00                    5973 	.db #0x00	; 0
      0017BE 00                    5974 	.db #0x00	; 0
      0017BF 00                    5975 	.db #0x00	; 0
      0017C0 10                    5976 	.db #0x10	; 16
      0017C1 A0                    5977 	.db #0xa0	; 160
      0017C2 40                    5978 	.db #0x40	; 64
      0017C3 40                    5979 	.db #0x40	; 64
      0017C4 03                    5980 	.db #0x03	; 3
      0017C5 0A                    5981 	.db #0x0a	; 10
      0017C6 01                    5982 	.db #0x01	; 1
      0017C7 0A                    5983 	.db #0x0a	; 10
      0017C8 02                    5984 	.db #0x02	; 2
      0017C9 0A                    5985 	.db #0x0a	; 10
      0017CA 02                    5986 	.db #0x02	; 2
      0017CB 0A                    5987 	.db #0x0a	; 10
      0017CC 00                    5988 	.db #0x00	; 0
      0017CD 02                    5989 	.db #0x02	; 2
      0017CE 15                    5990 	.db #0x15	; 21
      0017CF 06                    5991 	.db #0x06	; 6
      0017D0 13                    5992 	.db #0x13	; 19
      0017D1 18                    5993 	.db #0x18	; 24
      0017D2 2D                    5994 	.db #0x2d	; 45
      0017D3 06                    5995 	.db #0x06	; 6
      0017D4 11                    5996 	.db #0x11	; 17
      0017D5 19                    5997 	.db #0x19	; 25
      0017D6 02                    5998 	.db #0x02	; 2
      0017D7 96                    5999 	.db #0x96	; 150
      0017D8 E0                    6000 	.db #0xe0	; 224
      0017D9 09                    6001 	.db #0x09	; 9
      0017DA 4C                    6002 	.db #0x4c	; 76	'L'
      0017DB 16                    6003 	.db #0x16	; 22
      0017DC 1A                    6004 	.db #0x1a	; 26
      0017DD 4C                    6005 	.db #0x4c	; 76	'L'
      0017DE 92                    6006 	.db #0x92	; 146
      0017DF 02                    6007 	.db #0x02	; 2
      0017E0 64                    6008 	.db #0x64	; 100	'd'
      0017E1 88                    6009 	.db #0x88	; 136
      0017E2 D0                    6010 	.db #0xd0	; 208
      0017E3 BA                    6011 	.db #0xba	; 186
      0017E4 43                    6012 	.db #0x43	; 67	'C'
      0017E5 24                    6013 	.db #0x24	; 36
      0017E6 EC                    6014 	.db #0xec	; 236
      0017E7 5A                    6015 	.db #0x5a	; 90	'Z'
      0017E8 03                    6016 	.db #0x03	; 3
      0017E9 90                    6017 	.db #0x90	; 144
      0017EA 70                    6018 	.db #0x70	; 112	'p'
      0017EB 1C                    6019 	.db #0x1c	; 28
      0017EC 06                    6020 	.db #0x06	; 6
      0017ED 03                    6021 	.db #0x03	; 3
      0017EE 01                    6022 	.db #0x01	; 1
      0017EF 00                    6023 	.db #0x00	; 0
      0017F0 00                    6024 	.db #0x00	; 0
      0017F1 03                    6025 	.db #0x03	; 3
      0017F2 00                    6026 	.db #0x00	; 0
      0017F3 00                    6027 	.db #0x00	; 0
      0017F4 00                    6028 	.db #0x00	; 0
      0017F5 00                    6029 	.db #0x00	; 0
      0017F6 00                    6030 	.db #0x00	; 0
      0017F7 80                    6031 	.db #0x80	; 128
      0017F8 C0                    6032 	.db #0xc0	; 192
      0017F9 60                    6033 	.db #0x60	; 96
      0017FA 03                    6034 	.db #0x03	; 3
      0017FB 80                    6035 	.db #0x80	; 128
      0017FC 11                    6036 	.db #0x11	; 17
      0017FD 83                    6037 	.db #0x83	; 131
      0017FE 15                    6038 	.db #0x15	; 21
      0017FF 82                    6039 	.db #0x82	; 130
      001800 14                    6040 	.db #0x14	; 20
      001801 80                    6041 	.db #0x80	; 128
      001802 10                    6042 	.db #0x10	; 16
      001803 03                    6043 	.db #0x03	; 3
      001804 98                    6044 	.db #0x98	; 152
      001805 70                    6045 	.db #0x70	; 112	'p'
      001806 80                    6046 	.db #0x80	; 128
      001807 00                    6047 	.db #0x00	; 0
      001808 00                    6048 	.db #0x00	; 0
      001809 00                    6049 	.db #0x00	; 0
      00180A 00                    6050 	.db #0x00	; 0
      00180B 00                    6051 	.db #0x00	; 0
      00180C 03                    6052 	.db #0x03	; 3
      00180D 0A                    6053 	.db #0x0a	; 10
      00180E 01                    6054 	.db #0x01	; 1
      00180F 0A                    6055 	.db #0x0a	; 10
      001810 01                    6056 	.db #0x01	; 1
      001811 0A                    6057 	.db #0x0a	; 10
      001812 01                    6058 	.db #0x01	; 1
      001813 0A                    6059 	.db #0x0a	; 10
      001814 01                    6060 	.db #0x01	; 1
      001815 02                    6061 	.db #0x02	; 2
      001816 2C                    6062 	.db #0x2c	; 44
      001817 30                    6063 	.db #0x30	; 48	'0'
      001818 05                    6064 	.db #0x05	; 5
      001819 06                    6065 	.db #0x06	; 6
      00181A 0B                    6066 	.db #0x0b	; 11
      00181B 04                    6067 	.db #0x04	; 4
      00181C 00                    6068 	.db #0x00	; 0
      00181D 00                    6069 	.db #0x00	; 0
      00181E 02                    6070 	.db #0x02	; 2
      00181F E1                    6071 	.db #0xe1	; 225
      001820 14                    6072 	.db #0x14	; 20
      001821 18                    6073 	.db #0x18	; 24
      001822 4E                    6074 	.db #0x4e	; 78	'N'
      001823 80                    6075 	.db #0x80	; 128
      001824 12                    6076 	.db #0x12	; 18
      001825 EB                    6077 	.db #0xeb	; 235
      001826 31                    6078 	.db #0x31	; 49	'1'
      001827 02                    6079 	.db #0x02	; 2
      001828 80                    6080 	.db #0x80	; 128
      001829 4A                    6081 	.db #0x4a	; 74	'J'
      00182A 34                    6082 	.db #0x34	; 52	'4'
      00182B 80                    6083 	.db #0x80	; 128
      00182C D0                    6084 	.db #0xd0	; 208
      00182D 60                    6085 	.db #0x60	; 96
      00182E 00                    6086 	.db #0x00	; 0
      00182F 80                    6087 	.db #0x80	; 128
      001830 03                    6088 	.db #0x03	; 3
      001831 00                    6089 	.db #0x00	; 0
      001832 06                    6090 	.db #0x06	; 6
      001833 01                    6091 	.db #0x01	; 1
      001834 00                    6092 	.db #0x00	; 0
      001835 00                    6093 	.db #0x00	; 0
      001836 00                    6094 	.db #0x00	; 0
      001837 00                    6095 	.db #0x00	; 0
      001838 00                    6096 	.db #0x00	; 0
      001839 03                    6097 	.db #0x03	; 3
      00183A 70                    6098 	.db #0x70	; 112	'p'
      00183B 38                    6099 	.db #0x38	; 56	'8'
      00183C AC                    6100 	.db #0xac	; 172
      00183D 46                    6101 	.db #0x46	; 70	'F'
      00183E 2B                    6102 	.db #0x2b	; 43
      00183F 13                    6103 	.db #0x13	; 19
      001840 08                    6104 	.db #0x08	; 8
      001841 04                    6105 	.db #0x04	; 4
      001842 03                    6106 	.db #0x03	; 3
      001843 00                    6107 	.db #0x00	; 0
      001844 00                    6108 	.db #0x00	; 0
      001845 00                    6109 	.db #0x00	; 0
      001846 00                    6110 	.db #0x00	; 0
      001847 00                    6111 	.db #0x00	; 0
      001848 80                    6112 	.db #0x80	; 128
      001849 E0                    6113 	.db #0xe0	; 224
      00184A 70                    6114 	.db #0x70	; 112	'p'
      00184B 03                    6115 	.db #0x03	; 3
      00184C 00                    6116 	.db #0x00	; 0
      00184D 00                    6117 	.db #0x00	; 0
      00184E 00                    6118 	.db #0x00	; 0
      00184F 00                    6119 	.db #0x00	; 0
      001850 00                    6120 	.db #0x00	; 0
      001851 42                    6121 	.db #0x42	; 66	'B'
      001852 24                    6122 	.db #0x24	; 36
      001853 18                    6123 	.db #0x18	; 24
      001854 04                    6124 	.db #0x04	; 4
      001855 80                    6125 	.db #0x80	; 128
      001856 80                    6126 	.db #0x80	; 128
      001857 10                    6127 	.db #0x10	; 16
      001858 10                    6128 	.db #0x10	; 16
      001859 80                    6129 	.db #0x80	; 128
      00185A 80                    6130 	.db #0x80	; 128
      00185B 10                    6131 	.db #0x10	; 16
      00185C 11                    6132 	.db #0x11	; 17
      00185D 80                    6133 	.db #0x80	; 128
      00185E 83                    6134 	.db #0x83	; 131
      00185F 10                    6135 	.db #0x10	; 16
      001860 14                    6136 	.db #0x14	; 20
      001861 80                    6137 	.db #0x80	; 128
      001862 84                    6138 	.db #0x84	; 132
      001863 10                    6139 	.db #0x10	; 16
      001864 11                    6140 	.db #0x11	; 17
      001865 03                    6141 	.db #0x03	; 3
      001866 02                    6142 	.db #0x02	; 2
      001867 C1                    6143 	.db #0xc1	; 193
      001868 30                    6144 	.db #0x30	; 48	'0'
      001869 08                    6145 	.db #0x08	; 8
      00186A 1F                    6146 	.db #0x1f	; 31
      00186B 60                    6147 	.db #0x60	; 96
      00186C 80                    6148 	.db #0x80	; 128
      00186D 00                    6149 	.db #0x00	; 0
      00186E 03                    6150 	.db #0x03	; 3
      00186F 38                    6151 	.db #0x38	; 56	'8'
      001870 1C                    6152 	.db #0x1c	; 28
      001871 8E                    6153 	.db #0x8e	; 142
      001872 47                    6154 	.db #0x47	; 71	'G'
      001873 A2                    6155 	.db #0xa2	; 162
      001874 71                    6156 	.db #0x71	; 113	'q'
      001875 08                    6157 	.db #0x08	; 8
      001876 04                    6158 	.db #0x04	; 4
      001877 03                    6159 	.db #0x03	; 3
      001878 10                    6160 	.db #0x10	; 16
      001879 10                    6161 	.db #0x10	; 16
      00187A 20                    6162 	.db #0x20	; 32
      00187B A0                    6163 	.db #0xa0	; 160
      00187C E0                    6164 	.db #0xe0	; 224
      00187D F0                    6165 	.db #0xf0	; 240
      00187E BC                    6166 	.db #0xbc	; 188
      00187F 57                    6167 	.db #0x57	; 87	'W'
      001880 04                    6168 	.db #0x04	; 4
      001881 80                    6169 	.db #0x80	; 128
      001882 84                    6170 	.db #0x84	; 132
      001883 10                    6171 	.db #0x10	; 16
      001884 16                    6172 	.db #0x16	; 22
      001885 80                    6173 	.db #0x80	; 128
      001886 84                    6174 	.db #0x84	; 132
      001887 10                    6175 	.db #0x10	; 16
      001888 11                    6176 	.db #0x11	; 17
      001889 80                    6177 	.db #0x80	; 128
      00188A 81                    6178 	.db #0x81	; 129
      00188B 10                    6179 	.db #0x10	; 16
      00188C 14                    6180 	.db #0x14	; 20
      00188D 80                    6181 	.db #0x80	; 128
      00188E 81                    6182 	.db #0x81	; 129
      00188F 10                    6183 	.db #0x10	; 16
      001890 16                    6184 	.db #0x16	; 22
      001891 03                    6185 	.db #0x03	; 3
      001892 02                    6186 	.db #0x02	; 2
      001893 01                    6187 	.db #0x01	; 1
      001894 00                    6188 	.db #0x00	; 0
      001895 00                    6189 	.db #0x00	; 0
      001896 00                    6190 	.db #0x00	; 0
      001897 00                    6191 	.db #0x00	; 0
      001898 00                    6192 	.db #0x00	; 0
      001899 00                    6193 	.db #0x00	; 0
      00189A 03                    6194 	.db #0x03	; 3
      00189B 0B                    6195 	.db #0x0b	; 11
      00189C 07                    6196 	.db #0x07	; 7
      00189D A2                    6197 	.db #0xa2	; 162
      00189E 11                    6198 	.db #0x11	; 17
      00189F 08                    6199 	.db #0x08	; 8
      0018A0 05                    6200 	.db #0x05	; 5
      0018A1 00                    6201 	.db #0x00	; 0
      0018A2 00                    6202 	.db #0x00	; 0
      0018A3 03                    6203 	.db #0x03	; 3
      0018A4 E8                    6204 	.db #0xe8	; 232
      0018A5 C1                    6205 	.db #0xc1	; 193
      0018A6 E8                    6206 	.db #0xe8	; 232
      0018A7 41                    6207 	.db #0x41	; 65	'A'
      0018A8 A8                    6208 	.db #0xa8	; 168
      0018A9 01                    6209 	.db #0x01	; 1
      0018AA A8                    6210 	.db #0xa8	; 168
      0018AB 41                    6211 	.db #0x41	; 65	'A'
      0018AC 04                    6212 	.db #0x04	; 4
      0018AD 80                    6213 	.db #0x80	; 128
      0018AE 80                    6214 	.db #0x80	; 128
      0018AF 10                    6215 	.db #0x10	; 16
      0018B0 10                    6216 	.db #0x10	; 16
      0018B1 80                    6217 	.db #0x80	; 128
      0018B2 85                    6218 	.db #0x85	; 133
      0018B3 10                    6219 	.db #0x10	; 16
      0018B4 14                    6220 	.db #0x14	; 20
      0018B5 80                    6221 	.db #0x80	; 128
      0018B6 81                    6222 	.db #0x81	; 129
      0018B7 10                    6223 	.db #0x10	; 16
      0018B8 13                    6224 	.db #0x13	; 19
      0018B9 80                    6225 	.db #0x80	; 128
      0018BA 86                    6226 	.db #0x86	; 134
      0018BB 10                    6227 	.db #0x10	; 16
      0018BC 10                    6228 	.db #0x10	; 16
      0018BD 01                    6229 	.db #0x01	; 1
      0018BE 00                    6230 	.db #0x00	; 0
      0018BF 00                    6231 	.db #0x00	; 0
      0018C0 00                    6232 	.db #0x00	; 0
      0018C1 00                    6233 	.db #0x00	; 0
      0018C2 00                    6234 	.db #0x00	; 0
      0018C3 00                    6235 	.db #0x00	; 0
      0018C4 01                    6236 	.db #0x01	; 1
      0018C5 01                    6237 	.db #0x01	; 1
      0018C6 01                    6238 	.db #0x01	; 1
      0018C7 00                    6239 	.db #0x00	; 0
      0018C8 00                    6240 	.db #0x00	; 0
      0018C9 3E                    6241 	.db #0x3e	; 62
      0018CA 7F                    6242 	.db #0x7f	; 127
      0018CB FF                    6243 	.db #0xff	; 255
      0018CC DD                    6244 	.db #0xdd	; 221
      0018CD 9C                    6245 	.db #0x9c	; 156
      0018CE 63                    6246 	.db #0x63	; 99	'c'
      0018CF 01                    6247 	.db #0x01	; 1
      0018D0 00                    6248 	.db #0x00	; 0
      0018D1 00                    6249 	.db #0x00	; 0
      0018D2 00                    6250 	.db #0x00	; 0
      0018D3 00                    6251 	.db #0x00	; 0
      0018D4 80                    6252 	.db #0x80	; 128
      0018D5 80                    6253 	.db #0x80	; 128
      0018D6 C0                    6254 	.db #0xc0	; 192
      0018D7 40                    6255 	.db #0x40	; 64
      0018D8 03                    6256 	.db #0x03	; 3
      0018D9 00                    6257 	.db #0x00	; 0
      0018DA 00                    6258 	.db #0x00	; 0
      0018DB 18                    6259 	.db #0x18	; 24
      0018DC 3C                    6260 	.db #0x3c	; 60
      0018DD 2C                    6261 	.db #0x2c	; 44
      0018DE 18                    6262 	.db #0x18	; 24
      0018DF 00                    6263 	.db #0x00	; 0
      0018E0 19                    6264 	.db #0x19	; 25
      0018E1 03                    6265 	.db #0x03	; 3
      0018E2 00                    6266 	.db #0x00	; 0
      0018E3 00                    6267 	.db #0x00	; 0
      0018E4 00                    6268 	.db #0x00	; 0
      0018E5 00                    6269 	.db #0x00	; 0
      0018E6 00                    6270 	.db #0x00	; 0
      0018E7 00                    6271 	.db #0x00	; 0
      0018E8 88                    6272 	.db #0x88	; 136
      0018E9 DD                    6273 	.db #0xdd	; 221
      0018EA 03                    6274 	.db #0x03	; 3
      0018EB 10                    6275 	.db #0x10	; 16
      0018EC 10                    6276 	.db #0x10	; 16
      0018ED 00                    6277 	.db #0x00	; 0
      0018EE 00                    6278 	.db #0x00	; 0
      0018EF 00                    6279 	.db #0x00	; 0
      0018F0 00                    6280 	.db #0x00	; 0
      0018F1 00                    6281 	.db #0x00	; 0
      0018F2 00                    6282 	.db #0x00	; 0
      0018F3 03                    6283 	.db #0x03	; 3
      0018F4 00                    6284 	.db #0x00	; 0
      0018F5 00                    6285 	.db #0x00	; 0
      0018F6 00                    6286 	.db #0x00	; 0
      0018F7 00                    6287 	.db #0x00	; 0
      0018F8 00                    6288 	.db #0x00	; 0
      0018F9 01                    6289 	.db #0x01	; 1
      0018FA 07                    6290 	.db #0x07	; 7
      0018FB 1A                    6291 	.db #0x1a	; 26
      0018FC 03                    6292 	.db #0x03	; 3
      0018FD 00                    6293 	.db #0x00	; 0
      0018FE 00                    6294 	.db #0x00	; 0
      0018FF 00                    6295 	.db #0x00	; 0
      001900 08                    6296 	.db #0x08	; 8
      001901 70                    6297 	.db #0x70	; 112	'p'
      001902 C0                    6298 	.db #0xc0	; 192
      001903 00                    6299 	.db #0x00	; 0
      001904 00                    6300 	.db #0x00	; 0
      001905 01                    6301 	.db #0x01	; 1
      001906 01                    6302 	.db #0x01	; 1
      001907 03                    6303 	.db #0x03	; 3
      001908 03                    6304 	.db #0x03	; 3
      001909 03                    6305 	.db #0x03	; 3
      00190A 03                    6306 	.db #0x03	; 3
      00190B 03                    6307 	.db #0x03	; 3
      00190C 13                    6308 	.db #0x13	; 19
      00190D 29                    6309 	.db #0x29	; 41
      00190E 01                    6310 	.db #0x01	; 1
      00190F 6B                    6311 	.db #0x6b	; 107	'k'
      001910 88                    6312 	.db #0x88	; 136
      001911 DD                    6313 	.db #0xdd	; 221
      001912 7F                    6314 	.db #0x7f	; 127
      001913 AA                    6315 	.db #0xaa	; 170
      001914 D5                    6316 	.db #0xd5	; 213
      001915 FF                    6317 	.db #0xff	; 255
      001916 7F                    6318 	.db #0x7f	; 127
      001917 01                    6319 	.db #0x01	; 1
      001918 40                    6320 	.db #0x40	; 64
      001919 E0                    6321 	.db #0xe0	; 224
      00191A E0                    6322 	.db #0xe0	; 224
      00191B 60                    6323 	.db #0x60	; 96
      00191C E6                    6324 	.db #0xe6	; 230
      00191D EF                    6325 	.db #0xef	; 239
      00191E EB                    6326 	.db #0xeb	; 235
      00191F 43                    6327 	.db #0x43	; 67	'C'
      001920 03                    6328 	.db #0x03	; 3
      001921 08                    6329 	.db #0x08	; 8
      001922 DB                    6330 	.db #0xdb	; 219
      001923 8A                    6331 	.db #0x8a	; 138
      001924 DB                    6332 	.db #0xdb	; 219
      001925 82                    6333 	.db #0x82	; 130
      001926 0F                    6334 	.db #0x0f	; 15
      001927 00                    6335 	.db #0x00	; 0
      001928 55                    6336 	.db #0x55	; 85	'U'
      001929 03                    6337 	.db #0x03	; 3
      00192A 00                    6338 	.db #0x00	; 0
      00192B FF                    6339 	.db #0xff	; 255
      00192C A0                    6340 	.db #0xa0	; 160
      00192D EA                    6341 	.db #0xea	; 234
      00192E A0                    6342 	.db #0xa0	; 160
      00192F FF                    6343 	.db #0xff	; 255
      001930 00                    6344 	.db #0x00	; 0
      001931 7F                    6345 	.db #0x7f	; 127
      001932 03                    6346 	.db #0x03	; 3
      001933 00                    6347 	.db #0x00	; 0
      001934 FD                    6348 	.db #0xfd	; 253
      001935 01                    6349 	.db #0x01	; 1
      001936 A9                    6350 	.db #0xa9	; 169
      001937 01                    6351 	.db #0x01	; 1
      001938 F1                    6352 	.db #0xf1	; 241
      001939 00                    6353 	.db #0x00	; 0
      00193A FF                    6354 	.db #0xff	; 255
      00193B 03                    6355 	.db #0x03	; 3
      00193C 00                    6356 	.db #0x00	; 0
      00193D 15                    6357 	.db #0x15	; 21
      00193E 30                    6358 	.db #0x30	; 48	'0'
      00193F 11                    6359 	.db #0x11	; 17
      001940 20                    6360 	.db #0x20	; 32
      001941 71                    6361 	.db #0x71	; 113	'q'
      001942 01                    6362 	.db #0x01	; 1
      001943 FF                    6363 	.db #0xff	; 255
      001944 03                    6364 	.db #0x03	; 3
      001945 8E                    6365 	.db #0x8e	; 142
      001946 17                    6366 	.db #0x17	; 23
      001947 07                    6367 	.db #0x07	; 7
      001948 39                    6368 	.db #0x39	; 57	'9'
      001949 FE                    6369 	.db #0xfe	; 254
      00194A D7                    6370 	.db #0xd7	; 215
      00194B 55                    6371 	.db #0x55	; 85	'U'
      00194C 55                    6372 	.db #0x55	; 85	'U'
      00194D 03                    6373 	.db #0x03	; 3
      00194E 80                    6374 	.db #0x80	; 128
      00194F 10                    6375 	.db #0x10	; 16
      001950 80                    6376 	.db #0x80	; 128
      001951 10                    6377 	.db #0x10	; 16
      001952 80                    6378 	.db #0x80	; 128
      001953 10                    6379 	.db #0x10	; 16
      001954 80                    6380 	.db #0x80	; 128
      001955 11                    6381 	.db #0x11	; 17
      001956 03                    6382 	.db #0x03	; 3
      001957 00                    6383 	.db #0x00	; 0
      001958 41                    6384 	.db #0x41	; 65	'A'
      001959 23                    6385 	.db #0x23	; 35
      00195A 2E                    6386 	.db #0x2e	; 46
      00195B 35                    6387 	.db #0x35	; 53	'5'
      00195C 68                    6388 	.db #0x68	; 104	'h'
      00195D D0                    6389 	.db #0xd0	; 208
      00195E A0                    6390 	.db #0xa0	; 160
      00195F 03                    6391 	.db #0x03	; 3
      001960 74                    6392 	.db #0x74	; 116	't'
      001961 A0                    6393 	.db #0xa0	; 160
      001962 40                    6394 	.db #0x40	; 64
      001963 B8                    6395 	.db #0xb8	; 184
      001964 06                    6396 	.db #0x06	; 6
      001965 00                    6397 	.db #0x00	; 0
      001966 00                    6398 	.db #0x00	; 0
      001967 00                    6399 	.db #0x00	; 0
      001968 01                    6400 	.db #0x01	; 1
      001969 70                    6401 	.db #0x70	; 112	'p'
      00196A 78                    6402 	.db #0x78	; 120	'x'
      00196B 28                    6403 	.db #0x28	; 40
      00196C 00                    6404 	.db #0x00	; 0
      00196D 00                    6405 	.db #0x00	; 0
      00196E 07                    6406 	.db #0x07	; 7
      00196F 07                    6407 	.db #0x07	; 7
      001970 00                    6408 	.db #0x00	; 0
      001971 01                    6409 	.db #0x01	; 1
      001972 AA                    6410 	.db #0xaa	; 170
      001973 55                    6411 	.db #0x55	; 85	'U'
      001974 00                    6412 	.db #0x00	; 0
      001975 00                    6413 	.db #0x00	; 0
      001976 C1                    6414 	.db #0xc1	; 193
      001977 77                    6415 	.db #0x77	; 119	'w'
      001978 F7                    6416 	.db #0xf7	; 247
      001979 00                    6417 	.db #0x00	; 0
      00197A 01                    6418 	.db #0x01	; 1
      00197B 80                    6419 	.db #0x80	; 128
      00197C 04                    6420 	.db #0x04	; 4
      00197D 04                    6421 	.db #0x04	; 4
      00197E 02                    6422 	.db #0x02	; 2
      00197F 82                    6423 	.db #0x82	; 130
      001980 72                    6424 	.db #0x72	; 114	'r'
      001981 F2                    6425 	.db #0xf2	; 242
      001982 00                    6426 	.db #0x00	; 0
      001983 03                    6427 	.db #0x03	; 3
      001984 AA                    6428 	.db #0xaa	; 170
      001985 00                    6429 	.db #0x00	; 0
      001986 0A                    6430 	.db #0x0a	; 10
      001987 16                    6431 	.db #0x16	; 22
      001988 2A                    6432 	.db #0x2a	; 42
      001989 1E                    6433 	.db #0x1e	; 30
      00198A 00                    6434 	.db #0x00	; 0
      00198B 3E                    6435 	.db #0x3e	; 62
      00198C 03                    6436 	.db #0x03	; 3
      00198D FF                    6437 	.db #0xff	; 255
      00198E 00                    6438 	.db #0x00	; 0
      00198F 00                    6439 	.db #0x00	; 0
      001990 00                    6440 	.db #0x00	; 0
      001991 00                    6441 	.db #0x00	; 0
      001992 00                    6442 	.db #0x00	; 0
      001993 00                    6443 	.db #0x00	; 0
      001994 00                    6444 	.db #0x00	; 0
      001995 03                    6445 	.db #0x03	; 3
      001996 FF                    6446 	.db #0xff	; 255
      001997 00                    6447 	.db #0x00	; 0
      001998 28                    6448 	.db #0x28	; 40
      001999 58                    6449 	.db #0x58	; 88	'X'
      00199A A8                    6450 	.db #0xa8	; 168
      00199B 78                    6451 	.db #0x78	; 120	'x'
      00199C 00                    6452 	.db #0x00	; 0
      00199D F8                    6453 	.db #0xf8	; 248
      00199E 03                    6454 	.db #0x03	; 3
      00199F 02                    6455 	.db #0x02	; 2
      0019A0 04                    6456 	.db #0x04	; 4
      0019A1 04                    6457 	.db #0x04	; 4
      0019A2 09                    6458 	.db #0x09	; 9
      0019A3 00                    6459 	.db #0x00	; 0
      0019A4 1F                    6460 	.db #0x1f	; 31
      0019A5 00                    6461 	.db #0x00	; 0
      0019A6 00                    6462 	.db #0x00	; 0
      0019A7 03                    6463 	.db #0x03	; 3
      0019A8 B6                    6464 	.db #0xb6	; 182
      0019A9 57                    6465 	.db #0x57	; 87	'W'
      0019AA B3                    6466 	.db #0xb3	; 179
      0019AB 57                    6467 	.db #0x57	; 87	'W'
      0019AC 00                    6468 	.db #0x00	; 0
      0019AD FF                    6469 	.db #0xff	; 255
      0019AE 0A                    6470 	.db #0x0a	; 10
      0019AF 00                    6471 	.db #0x00	; 0
      0019B0 03                    6472 	.db #0x03	; 3
      0019B1 C0                    6473 	.db #0xc0	; 192
      0019B2 60                    6474 	.db #0x60	; 96
      0019B3 60                    6475 	.db #0x60	; 96
      0019B4 70                    6476 	.db #0x70	; 112	'p'
      0019B5 00                    6477 	.db #0x00	; 0
      0019B6 F8                    6478 	.db #0xf8	; 248
      0019B7 A8                    6479 	.db #0xa8	; 168
      0019B8 00                    6480 	.db #0x00	; 0
      0019B9 03                    6481 	.db #0x03	; 3
      0019BA 87                    6482 	.db #0x87	; 135
      0019BB 12                    6483 	.db #0x12	; 18
      0019BC 85                    6484 	.db #0x85	; 133
      0019BD 12                    6485 	.db #0x12	; 18
      0019BE 84                    6486 	.db #0x84	; 132
      0019BF 10                    6487 	.db #0x10	; 16
      0019C0 80                    6488 	.db #0x80	; 128
      0019C1 10                    6489 	.db #0x10	; 16
      0019C2 03                    6490 	.db #0x03	; 3
      0019C3 40                    6491 	.db #0x40	; 64
      0019C4 80                    6492 	.db #0x80	; 128
      0019C5 00                    6493 	.db #0x00	; 0
      0019C6 00                    6494 	.db #0x00	; 0
      0019C7 00                    6495 	.db #0x00	; 0
      0019C8 00                    6496 	.db #0x00	; 0
      0019C9 00                    6497 	.db #0x00	; 0
      0019CA 00                    6498 	.db #0x00	; 0
      0019CB 01                    6499 	.db #0x01	; 1
      0019CC 38                    6500 	.db #0x38	; 56	'8'
      0019CD 54                    6501 	.db #0x54	; 84	'T'
      0019CE AA                    6502 	.db #0xaa	; 170
      0019CF D2                    6503 	.db #0xd2	; 210
      0019D0 82                    6504 	.db #0x82	; 130
      0019D1 44                    6505 	.db #0x44	; 68	'D'
      0019D2 38                    6506 	.db #0x38	; 56	'8'
      0019D3 00                    6507 	.db #0x00	; 0
      0019D4 04                    6508 	.db #0x04	; 4
      0019D5 2A                    6509 	.db #0x2a	; 42
      0019D6 0A                    6510 	.db #0x0a	; 10
      0019D7 41                    6511 	.db #0x41	; 65	'A'
      0019D8 01                    6512 	.db #0x01	; 1
      0019D9 AA                    6513 	.db #0xaa	; 170
      0019DA 0A                    6514 	.db #0x0a	; 10
      0019DB C1                    6515 	.db #0xc1	; 193
      0019DC 01                    6516 	.db #0x01	; 1
      0019DD 8A                    6517 	.db #0x8a	; 138
      0019DE 0A                    6518 	.db #0x0a	; 10
      0019DF 42                    6519 	.db #0x42	; 66	'B'
      0019E0 02                    6520 	.db #0x02	; 2
      0019E1 2A                    6521 	.db #0x2a	; 42
      0019E2 0A                    6522 	.db #0x0a	; 10
      0019E3 01                    6523 	.db #0x01	; 1
      0019E4 01                    6524 	.db #0x01	; 1
      0019E5 03                    6525 	.db #0x03	; 3
      0019E6 21                    6526 	.db #0x21	; 33
      0019E7 00                    6527 	.db #0x00	; 0
      0019E8 21                    6528 	.db #0x21	; 33
      0019E9 00                    6529 	.db #0x00	; 0
      0019EA 21                    6530 	.db #0x21	; 33
      0019EB 00                    6531 	.db #0x00	; 0
      0019EC 21                    6532 	.db #0x21	; 33
      0019ED 00                    6533 	.db #0x00	; 0
      0019EE 03                    6534 	.db #0x03	; 3
      0019EF 57                    6535 	.db #0x57	; 87	'W'
      0019F0 B2                    6536 	.db #0xb2	; 178
      0019F1 57                    6537 	.db #0x57	; 87	'W'
      0019F2 B2                    6538 	.db #0xb2	; 178
      0019F3 57                    6539 	.db #0x57	; 87	'W'
      0019F4 B2                    6540 	.db #0xb2	; 178
      0019F5 57                    6541 	.db #0x57	; 87	'W'
      0019F6 00                    6542 	.db #0x00	; 0
      0019F7 03                    6543 	.db #0x03	; 3
      0019F8 DC                    6544 	.db #0xdc	; 220
      0019F9 DC                    6545 	.db #0xdc	; 220
      0019FA DC                    6546 	.db #0xdc	; 220
      0019FB DC                    6547 	.db #0xdc	; 220
      0019FC DC                    6548 	.db #0xdc	; 220
      0019FD DC                    6549 	.db #0xdc	; 220
      0019FE DC                    6550 	.db #0xdc	; 220
      0019FF 00                    6551 	.db #0x00	; 0
      001A00 03                    6552 	.db #0x03	; 3
      001A01 03                    6553 	.db #0x03	; 3
      001A02 03                    6554 	.db #0x03	; 3
      001A03 01                    6555 	.db #0x01	; 1
      001A04 00                    6556 	.db #0x00	; 0
      001A05 01                    6557 	.db #0x01	; 1
      001A06 02                    6558 	.db #0x02	; 2
      001A07 04                    6559 	.db #0x04	; 4
      001A08 04                    6560 	.db #0x04	; 4
      001A09 03                    6561 	.db #0x03	; 3
      001A0A FB                    6562 	.db #0xfb	; 251
      001A0B CD                    6563 	.db #0xcd	; 205
      001A0C B6                    6564 	.db #0xb6	; 182
      001A0D 30                    6565 	.db #0x30	; 48	'0'
      001A0E 76                    6566 	.db #0x76	; 118	'v'
      001A0F 61                    6567 	.db #0x61	; 97	'a'
      001A10 E6                    6568 	.db #0xe6	; 230
      001A11 52                    6569 	.db #0x52	; 82	'R'
      001A12 03                    6570 	.db #0x03	; 3
      001A13 EA                    6571 	.db #0xea	; 234
      001A14 E1                    6572 	.db #0xe1	; 225
      001A15 EA                    6573 	.db #0xea	; 234
      001A16 62                    6574 	.db #0x62	; 98	'b'
      001A17 2A                    6575 	.db #0x2a	; 42
      001A18 02                    6576 	.db #0x02	; 2
      001A19 8A                    6577 	.db #0x8a	; 138
      001A1A 80                    6578 	.db #0x80	; 128
      001A1B 03                    6579 	.db #0x03	; 3
      001A1C 3F                    6580 	.db #0x3f	; 63
      001A1D 00                    6581 	.db #0x00	; 0
      001A1E 00                    6582 	.db #0x00	; 0
      001A1F 08                    6583 	.db #0x08	; 8
      001A20 08                    6584 	.db #0x08	; 8
      001A21 04                    6585 	.db #0x04	; 4
      001A22 04                    6586 	.db #0x04	; 4
      001A23 02                    6587 	.db #0x02	; 2
      001A24 03                    6588 	.db #0x03	; 3
      001A25 FF                    6589 	.db #0xff	; 255
      001A26 0A                    6590 	.db #0x0a	; 10
      001A27 00                    6591 	.db #0x00	; 0
      001A28 B7                    6592 	.db #0xb7	; 183
      001A29 53                    6593 	.db #0x53	; 83	'S'
      001A2A B7                    6594 	.db #0xb7	; 183
      001A2B 57                    6595 	.db #0x57	; 87	'W'
      001A2C 36                    6596 	.db #0x36	; 54	'6'
      001A2D 03                    6597 	.db #0x03	; 3
      001A2E F8                    6598 	.db #0xf8	; 248
      001A2F A8                    6599 	.db #0xa8	; 168
      001A30 00                    6600 	.db #0x00	; 0
      001A31 B0                    6601 	.db #0xb0	; 176
      001A32 B0                    6602 	.db #0xb0	; 176
      001A33 60                    6603 	.db #0x60	; 96
      001A34 60                    6604 	.db #0x60	; 96
      001A35 C0                    6605 	.db #0xc0	; 192
      001A36 03                    6606 	.db #0x03	; 3
      001A37 09                    6607 	.db #0x09	; 9
      001A38 09                    6608 	.db #0x09	; 9
      001A39 04                    6609 	.db #0x04	; 4
      001A3A 05                    6610 	.db #0x05	; 5
      001A3B 02                    6611 	.db #0x02	; 2
      001A3C 02                    6612 	.db #0x02	; 2
      001A3D 01                    6613 	.db #0x01	; 1
      001A3E 00                    6614 	.db #0x00	; 0
      001A3F 03                    6615 	.db #0x03	; 3
      001A40 95                    6616 	.db #0x95	; 149
      001A41 B5                    6617 	.db #0xb5	; 181
      001A42 02                    6618 	.db #0x02	; 2
      001A43 B6                    6619 	.db #0xb6	; 182
      001A44 31                    6620 	.db #0x31	; 49	'1'
      001A45 B6                    6621 	.db #0xb6	; 182
      001A46 30                    6622 	.db #0x30	; 48	'0'
      001A47 10                    6623 	.db #0x10	; 16
      001A48 03                    6624 	.db #0x03	; 3
      001A49 4A                    6625 	.db #0x4a	; 74	'J'
      001A4A 41                    6626 	.db #0x41	; 65	'A'
      001A4B 8A                    6627 	.db #0x8a	; 138
      001A4C 81                    6628 	.db #0x81	; 129
      001A4D 0A                    6629 	.db #0x0a	; 10
      001A4E 01                    6630 	.db #0x01	; 1
      001A4F 0A                    6631 	.db #0x0a	; 10
      001A50 01                    6632 	.db #0x01	; 1
      001A51 01                    6633 	.db #0x01	; 1
      001A52 00                    6634 	.db #0x00	; 0
      001A53 30                    6635 	.db #0x30	; 48	'0'
      001A54 28                    6636 	.db #0x28	; 40
      001A55 30                    6637 	.db #0x30	; 48	'0'
      001A56 2A                    6638 	.db #0x2a	; 42
      001A57 33                    6639 	.db #0x33	; 51	'3'
      001A58 28                    6640 	.db #0x28	; 40
      001A59 30                    6641 	.db #0x30	; 48	'0'
      001A5A 01                    6642 	.db #0x01	; 1
      001A5B 00                    6643 	.db #0x00	; 0
      001A5C 00                    6644 	.db #0x00	; 0
      001A5D 00                    6645 	.db #0x00	; 0
      001A5E 00                    6646 	.db #0x00	; 0
      001A5F 00                    6647 	.db #0x00	; 0
      001A60 01                    6648 	.db #0x01	; 1
      001A61 DB                    6649 	.db #0xdb	; 219
      001A62 6C                    6650 	.db #0x6c	; 108	'l'
      001A63 01                    6651 	.db #0x01	; 1
      001A64 00                    6652 	.db #0x00	; 0
      001A65 30                    6653 	.db #0x30	; 48	'0'
      001A66 28                    6654 	.db #0x28	; 40
      001A67 30                    6655 	.db #0x30	; 48	'0'
      001A68 AA                    6656 	.db #0xaa	; 170
      001A69 B3                    6657 	.db #0xb3	; 179
      001A6A 28                    6658 	.db #0x28	; 40
      001A6B 30                    6659 	.db #0x30	; 48	'0'
      001A6C 01                    6660 	.db #0x01	; 1
      001A6D 00                    6661 	.db #0x00	; 0
      001A6E 30                    6662 	.db #0x30	; 48	'0'
      001A6F 28                    6663 	.db #0x28	; 40
      001A70 30                    6664 	.db #0x30	; 48	'0'
      001A71 A8                    6665 	.db #0xa8	; 168
      001A72 B0                    6666 	.db #0xb0	; 176
      001A73 28                    6667 	.db #0x28	; 40
      001A74 30                    6668 	.db #0x30	; 48	'0'
      001A75 01                    6669 	.db #0x01	; 1
      001A76 00                    6670 	.db #0x00	; 0
      001A77 30                    6671 	.db #0x30	; 48	'0'
      001A78 28                    6672 	.db #0x28	; 40
      001A79 30                    6673 	.db #0x30	; 48	'0'
      001A7A A8                    6674 	.db #0xa8	; 168
      001A7B B2                    6675 	.db #0xb2	; 178
      001A7C 2B                    6676 	.db #0x2b	; 43
      001A7D 31                    6677 	.db #0x31	; 49	'1'
      001A7E 01                    6678 	.db #0x01	; 1
      001A7F 28                    6679 	.db #0x28	; 40
      001A80 30                    6680 	.db #0x30	; 48	'0'
      001A81 28                    6681 	.db #0x28	; 40
      001A82 30                    6682 	.db #0x30	; 48	'0'
      001A83 28                    6683 	.db #0x28	; 40
      001A84 30                    6684 	.db #0x30	; 48	'0'
      001A85 28                    6685 	.db #0x28	; 40
      001A86 00                    6686 	.db #0x00	; 0
      001A87 01                    6687 	.db #0x01	; 1
      001A88 29                    6688 	.db #0x29	; 41
      001A89 30                    6689 	.db #0x30	; 48	'0'
      001A8A 28                    6690 	.db #0x28	; 40
      001A8B 30                    6691 	.db #0x30	; 48	'0'
      001A8C 28                    6692 	.db #0x28	; 40
      001A8D 30                    6693 	.db #0x30	; 48	'0'
      001A8E 28                    6694 	.db #0x28	; 40
      001A8F 00                    6695 	.db #0x00	; 0
      001A90 01                    6696 	.db #0x01	; 1
      001A91 80                    6697 	.db #0x80	; 128
      001A92 C0                    6698 	.db #0xc0	; 192
      001A93 20                    6699 	.db #0x20	; 32
      001A94 38                    6700 	.db #0x38	; 56	'8'
      001A95 0E                    6701 	.db #0x0e	; 14
      001A96 01                    6702 	.db #0x01	; 1
      001A97 00                    6703 	.db #0x00	; 0
      001A98 00                    6704 	.db #0x00	; 0
      001A99 01                    6705 	.db #0x01	; 1
      001A9A 00                    6706 	.db #0x00	; 0
      001A9B 18                    6707 	.db #0x18	; 24
      001A9C 28                    6708 	.db #0x28	; 40
      001A9D 18                    6709 	.db #0x18	; 24
      001A9E A8                    6710 	.db #0xa8	; 168
      001A9F 98                    6711 	.db #0x98	; 152
      001AA0 28                    6712 	.db #0x28	; 40
      001AA1 18                    6713 	.db #0x18	; 24
      001AA2 01                    6714 	.db #0x01	; 1
      001AA3 28                    6715 	.db #0x28	; 40
      001AA4 18                    6716 	.db #0x18	; 24
      001AA5 28                    6717 	.db #0x28	; 40
      001AA6 18                    6718 	.db #0x18	; 24
      001AA7 28                    6719 	.db #0x28	; 40
      001AA8 18                    6720 	.db #0x18	; 24
      001AA9 28                    6721 	.db #0x28	; 40
      001AAA 00                    6722 	.db #0x00	; 0
                                   6723 	.area _INITIALIZER
      000000                       6724 __xinit__spider_phase:
      000000 00                    6725 	.db #0x00	; 0
      000001                       6726 __xinit__spider_dir:
      000001 01                    6727 	.db #0x01	; 1
      000002                       6728 __xinit__spider_pos_y:
      000002 38 00                 6729 	.dw #0x0038
                                   6730 	.area _CABS (ABS)
