                                      1 ;--------------------------------------------------------
                                      2 ; File Created by SDCC : free open source ANSI-C Compiler
                                      3 ; Version 4.1.6 #12533 (MINGW32)
                                      4 ;--------------------------------------------------------
                                      5 	.module 02_rooms_gfx_data1_0
                                      6 	.optsdcc -mgbz80
                                      7 	
                                      8 ;--------------------------------------------------------
                                      9 ; Public variables in this module
                                     10 ;--------------------------------------------------------
                                     11 	.globl _enemies_2_1_tiles
                                     12 	.globl _room_2_1_tiles
                                     13 	.globl _room_2_1_coll
                                     14 	.globl _room_2_1_map
                                     15 	.globl _enemies_1_1_tiles
                                     16 	.globl _room_1_1_tiles
                                     17 	.globl _room_1_1_coll
                                     18 	.globl _room_1_1_map
                                     19 	.globl _enemies_0_1_tiles
                                     20 	.globl _room_0_1_tiles
                                     21 	.globl _room_0_1_coll
                                     22 	.globl _room_0_1_map
                                     23 	.globl _dylan_gets_key
                                     24 	.globl _vcoll_dylan
                                     25 	.globl _hcoll_elevator
                                     26 	.globl _draw_elevator
                                     27 	.globl _move_elevator
                                     28 	.globl _init_room2
                                     29 	.globl _reset_room2
                                     30 	.globl _cleaning_path
                                     31 	.globl _vcoll_blockage
                                     32 	.globl _hcoll_blockage
                                     33 	.globl _draw_flames1_1
                                     34 	.globl _init_room1_1
                                     35 	.globl _reset_room1
                                     36 	.globl _dizzy_drops_firefly
                                     37 	.globl _hcoll_darkness
                                     38 	.globl _coll_bats
                                     39 	.globl _draw_bats0
                                     40 	.globl _move_bats0
                                     41 	.globl _draw_room0_1
                                     42 	.globl _init_room0_1
                                     43 	.globl _reset_room0_1
                                     44 	.globl _rle_decompress_tilemap
                                     45 	.globl _multiple_set_sprite_tiles
                                     46 	.globl _multiple_move_sprites
                                     47 	.globl _default_drop
                                     48 	.globl _default_draw
                                     49 	.globl _find_by_id
                                     50 	.globl _pop_by_id
                                     51 	.globl _push_last
                                     52 	.globl _get_v_coll
                                     53 	.globl _get_h_coll
                                     54 	.globl _show_dialog_window
                                     55 	.globl _set_sprite_data
                                     56 	.globl _flame2_phase
                                     57 	.globl _flame1_phase
                                     58 	.globl _flame_timer
                                     59 	.globl _bat2_dir
                                     60 	.globl _bat2_pos_x
                                     61 	.globl _bat1_dir
                                     62 	.globl _bat1_pos_x
                                     63 	.globl _bat_phase
                                     64 	.globl _bite_timer
                                     65 	.globl _dylan_negotiated
                                     66 	.globl _elevator_enabled
                                     67 	.globl _elevator_move
                                     68 	.globl _elevator_dir
                                     69 	.globl _elevator_pos_y
                                     70 	.globl _path_cleaned
                                     71 	.globl _intro_shown
                                     72 	.globl _firefly_pos_y
                                     73 	.globl _firefly_pos_x
                                     74 	.globl _warning_shown
                                     75 	.globl _room_dark
                                     76 	.globl _elevator_offsets
                                     77 	.globl _elevator_map
                                     78 	.globl _flames
                                     79 	.globl _ftn
                                     80 	.globl _flames_offsets
                                     81 	.globl _evils
                                     82 	.globl _bftn
                                     83 	.globl _bat_offsets
                                     84 ;--------------------------------------------------------
                                     85 ; special function registers
                                     86 ;--------------------------------------------------------
                                     87 ;--------------------------------------------------------
                                     88 ; ram data
                                     89 ;--------------------------------------------------------
                                     90 	.area _DATA
      000000                         91 _room_dark::
      000000                         92 	.ds 1
      000001                         93 _warning_shown::
      000001                         94 	.ds 1
      000002                         95 _firefly_pos_x::
      000002                         96 	.ds 2
      000004                         97 _firefly_pos_y::
      000004                         98 	.ds 2
      000006                         99 _intro_shown::
      000006                        100 	.ds 1
      000007                        101 _path_cleaned::
      000007                        102 	.ds 1
      000008                        103 _elevator_pos_y::
      000008                        104 	.ds 1
      000009                        105 _elevator_dir::
      000009                        106 	.ds 1
      00000A                        107 _elevator_move::
      00000A                        108 	.ds 1
      00000B                        109 _elevator_enabled::
      00000B                        110 	.ds 1
      00000C                        111 _dylan_negotiated::
      00000C                        112 	.ds 1
                                    113 ;--------------------------------------------------------
                                    114 ; ram data
                                    115 ;--------------------------------------------------------
                                    116 	.area _INITIALIZED
      000000                        117 _bite_timer::
      000000                        118 	.ds 1
      000001                        119 _bat_phase::
      000001                        120 	.ds 1
      000002                        121 _bat1_pos_x::
      000002                        122 	.ds 2
      000004                        123 _bat1_dir::
      000004                        124 	.ds 2
      000006                        125 _bat2_pos_x::
      000006                        126 	.ds 2
      000008                        127 _bat2_dir::
      000008                        128 	.ds 2
      00000A                        129 _flame_timer::
      00000A                        130 	.ds 1
      00000B                        131 _flame1_phase::
      00000B                        132 	.ds 1
      00000C                        133 _flame2_phase::
      00000C                        134 	.ds 1
                                    135 ;--------------------------------------------------------
                                    136 ; absolute external ram data
                                    137 ;--------------------------------------------------------
                                    138 	.area _DABS (ABS)
                                    139 ;--------------------------------------------------------
                                    140 ; global & static initialisations
                                    141 ;--------------------------------------------------------
                                    142 	.area _HOME
                                    143 	.area _GSINIT
                                    144 	.area _GSFINAL
                                    145 	.area _GSINIT
                                    146 ;--------------------------------------------------------
                                    147 ; Home
                                    148 ;--------------------------------------------------------
                                    149 	.area _HOME
                                    150 	.area _HOME
                                    151 ;--------------------------------------------------------
                                    152 ; code
                                    153 ;--------------------------------------------------------
                                    154 	.area _CODE_4
                                    155 ;src/rooms/room_0_1.c:16: void reset_room0_1() {
                                    156 ;	---------------------------------
                                    157 ; Function reset_room0_1
                                    158 ; ---------------------------------
      000000                        159 _reset_room0_1::
                                    160 ;src/rooms/room_0_1.c:17: room_dark = 1; warning_shown = 0;
      000000 21r00r00               161 	ld	hl, #_room_dark
      000003 36 01                  162 	ld	(hl), #0x01
      000005 21r01r00               163 	ld	hl, #_warning_shown
      000008 36 00                  164 	ld	(hl), #0x00
                                    165 ;src/rooms/room_0_1.c:18: }
      00000A C9                     166 	ret
      00000B                        167 _bat_offsets:
      00000B 28                     168 	.db #0x28	; 40
      00000C 08                     169 	.db #0x08	; 8
      00000D 28                     170 	.db #0x28	; 40
      00000E 10                     171 	.db #0x10	; 16
      00000F                        172 _bftn:
      00000F 09                     173 	.db #0x09	; 9
      000010 0A                     174 	.db #0x0a	; 10
      000011 0B                     175 	.db #0x0b	; 11
      000012 0C                     176 	.db #0x0c	; 12
      000013 0D                     177 	.db #0x0d	; 13
      000014 0B                     178 	.db #0x0b	; 11
      000015 0C                     179 	.db #0x0c	; 12
      000016 09                     180 	.db #0x09	; 9
      000017 0A                     181 	.db #0x0a	; 10
      000018 0E                     182 	.db #0x0e	; 14
      000019                        183 _evils:
      000019r0Fr00                  184 	.dw (_bftn + 0)
      00001Br14r00                  185 	.dw (_bftn + 5)
                                    186 ;src/rooms/room_0_1.c:19: void init_room0_1() {
                                    187 ;	---------------------------------
                                    188 ; Function init_room0_1
                                    189 ; ---------------------------------
      00001D                        190 _init_room0_1::
                                    191 ;src/rooms/room_0_1.c:20: set_sprite_data(evil_sprites_tileoffset, current_room->raw_enemies_tiles->count, current_room->raw_enemies_tiles->data);
      00001D 21r00r00               192 	ld	hl, #_current_room
      000020 2A                     193 	ld	a, (hl+)
      000021 4F                     194 	ld	c, a
      000022 46                     195 	ld	b, (hl)
      000023 21 07 00               196 	ld	hl, #0x0007
      000026 09                     197 	add	hl, bc
      000027 2A                     198 	ld	a, (hl+)
      000028 4F                     199 	ld	c, a
      000029 46                     200 	ld	b, (hl)
      00002A 59                     201 	ld	e, c
      00002B 50                     202 	ld	d, b
      00002C 13                     203 	inc	de
      00002D 0A                     204 	ld	a, (bc)
      00002E D5                     205 	push	de
      00002F 67                     206 	ld	h, a
      000030 2E 09                  207 	ld	l, #0x09
      000032 E5                     208 	push	hl
      000033 CDr00r00               209 	call	_set_sprite_data
      000036 E8 04                  210 	add	sp, #4
                                    211 ;src/rooms/room_0_1.c:21: }
      000038 C9                     212 	ret
                                    213 ;src/rooms/room_0_1.c:22: void draw_room0_1() {
                                    214 ;	---------------------------------
                                    215 ; Function draw_room0_1
                                    216 ; ---------------------------------
      000039                        217 _draw_room0_1::
                                    218 ;src/rooms/room_0_1.c:23: if (room_dark) {
      000039 21r00r00               219 	ld	hl, #_room_dark
      00003C 7E                     220 	ld	a, (hl)
      00003D B7                     221 	or	a, a
      00003E CAr00r00               222 	jp	Z,_default_draw
                                    223 ;src/rooms/room_0_1.c:24: rle_decompress_tilemap(rle_decompress_to_bkg, 0, 3, room_width, room_height, empty_compressed_map);
      000041 11r00r00               224 	ld	de, #_empty_compressed_map
      000044 D5                     225 	push	de
      000045 21 1E 11               226 	ld	hl, #0x111e
      000048 E5                     227 	push	hl
      000049 3E 03                  228 	ld	a, #0x03
      00004B F5                     229 	push	af
      00004C 33                     230 	inc	sp
      00004D AF                     231 	xor	a, a
      00004E 0F                     232 	rrca
      00004F F5                     233 	push	af
      000050 CDr00r00               234 	call	_rle_decompress_tilemap
      000053 E8 07                  235 	add	sp, #7
                                    236 ;src/rooms/room_0_1.c:25: } else default_draw();
      000055 C9                     237 	ret
                                    238 ;src/rooms/room_0_1.c:26: }
      000056 C9                     239 	ret
                                    240 ;src/rooms/room_0_1.c:41: void move_bats0() {
                                    241 ;	---------------------------------
                                    242 ; Function move_bats0
                                    243 ; ---------------------------------
      000057                        244 _move_bats0::
                                    245 ;src/rooms/room_0_1.c:42: if (room_dark) return;
      000057 FAr00r00               246 	ld	a, (#_room_dark)
      00005A B7                     247 	or	a, a
      00005B C0                     248 	ret	NZ
                                    249 ;src/rooms/room_0_1.c:43: if (bat1_dir) {
      00005C 21r05r00               250 	ld	hl, #_bat1_dir + 1
      00005F 3A                     251 	ld	a, (hl-)
      000060 B6                     252 	or	a, (hl)
      000061 28 2E                  253 	jr	Z, 00108$
                                    254 ;src/rooms/room_0_1.c:44: bat1_pos_x++; if (bat1_pos_x >= bat1_max_x) bat1_dir = 0;
      000063 21r02r00               255 	ld	hl, #_bat1_pos_x
      000066 34                     256 	inc	(hl)
      000067 20 02                  257 	jr	NZ, 00192$
      000069 23                     258 	inc	hl
      00006A 34                     259 	inc	(hl)
      00006B                        260 00192$:
      00006B 21r02r00               261 	ld	hl, #_bat1_pos_x
      00006E 2A                     262 	ld	a, (hl+)
      00006F D6 C8                  263 	sub	a, #0xc8
      000071 7E                     264 	ld	a, (hl)
      000072 DE 00                  265 	sbc	a, #0x00
      000074 56                     266 	ld	d, (hl)
      000075 3E 00                  267 	ld	a, #0x00
      000077 CB 7F                  268 	bit	7,a
      000079 28 07                  269 	jr	Z, 00193$
      00007B CB 7A                  270 	bit	7, d
      00007D 20 08                  271 	jr	NZ, 00194$
      00007F BF                     272 	cp	a, a
      000080 18 05                  273 	jr	00194$
      000082                        274 00193$:
      000082 CB 7A                  275 	bit	7, d
      000084 28 01                  276 	jr	Z, 00194$
      000086 37                     277 	scf
      000087                        278 00194$:
      000087 38 38                  279 	jr	C, 00109$
      000089 AF                     280 	xor	a, a
      00008A 21r04r00               281 	ld	hl, #_bat1_dir
      00008D 22                     282 	ld	(hl+), a
      00008E 77                     283 	ld	(hl), a
      00008F 18 30                  284 	jr	00109$
      000091                        285 00108$:
                                    286 ;src/rooms/room_0_1.c:46: bat1_pos_x--; if (bat1_pos_x <= bat1_min_x) bat1_dir = 1;
      000091 21r02r00               287 	ld	hl, #_bat1_pos_x
      000094 2A                     288 	ld	a, (hl+)
      000095 5F                     289 	ld	e, a
      000096 3A                     290 	ld	a, (hl-)
      000097 57                     291 	ld	d, a
      000098 1B                     292 	dec	de
      000099 7B                     293 	ld	a, e
      00009A 22                     294 	ld	(hl+), a
      00009B 7A                     295 	ld	a, d
      00009C 32                     296 	ld	(hl-), a
      00009D 3E 10                  297 	ld	a, #0x10
      00009F 96                     298 	sub	a, (hl)
      0000A0 23                     299 	inc	hl
      0000A1 3E 00                  300 	ld	a, #0x00
      0000A3 9E                     301 	sbc	a, (hl)
      0000A4 3E 00                  302 	ld	a, #0x00
      0000A6 57                     303 	ld	d, a
      0000A7 CB 7E                  304 	bit	7, (hl)
      0000A9 28 07                  305 	jr	Z, 00195$
      0000AB CB 7A                  306 	bit	7, d
      0000AD 20 08                  307 	jr	NZ, 00196$
      0000AF BF                     308 	cp	a, a
      0000B0 18 05                  309 	jr	00196$
      0000B2                        310 00195$:
      0000B2 CB 7A                  311 	bit	7, d
      0000B4 28 01                  312 	jr	Z, 00196$
      0000B6 37                     313 	scf
      0000B7                        314 00196$:
      0000B7 38 08                  315 	jr	C, 00109$
      0000B9 21r04r00               316 	ld	hl, #_bat1_dir
      0000BC 3E 01                  317 	ld	a, #0x01
      0000BE 22                     318 	ld	(hl+), a
      0000BF AF                     319 	xor	a, a
      0000C0 77                     320 	ld	(hl), a
      0000C1                        321 00109$:
                                    322 ;src/rooms/room_0_1.c:48: if (bat2_dir) {
      0000C1 21r09r00               323 	ld	hl, #_bat2_dir + 1
      0000C4 3A                     324 	ld	a, (hl-)
      0000C5 B6                     325 	or	a, (hl)
      0000C6 28 2E                  326 	jr	Z, 00115$
                                    327 ;src/rooms/room_0_1.c:49: bat2_pos_x++; if (bat2_pos_x >= bat2_max_x) bat2_dir = 0;
      0000C8 21r06r00               328 	ld	hl, #_bat2_pos_x
      0000CB 34                     329 	inc	(hl)
      0000CC 20 02                  330 	jr	NZ, 00197$
      0000CE 23                     331 	inc	hl
      0000CF 34                     332 	inc	(hl)
      0000D0                        333 00197$:
      0000D0 21r06r00               334 	ld	hl, #_bat2_pos_x
      0000D3 2A                     335 	ld	a, (hl+)
      0000D4 D6 A8                  336 	sub	a, #0xa8
      0000D6 7E                     337 	ld	a, (hl)
      0000D7 DE 00                  338 	sbc	a, #0x00
      0000D9 56                     339 	ld	d, (hl)
      0000DA 3E 00                  340 	ld	a, #0x00
      0000DC CB 7F                  341 	bit	7,a
      0000DE 28 07                  342 	jr	Z, 00198$
      0000E0 CB 7A                  343 	bit	7, d
      0000E2 20 08                  344 	jr	NZ, 00199$
      0000E4 BF                     345 	cp	a, a
      0000E5 18 05                  346 	jr	00199$
      0000E7                        347 00198$:
      0000E7 CB 7A                  348 	bit	7, d
      0000E9 28 01                  349 	jr	Z, 00199$
      0000EB 37                     350 	scf
      0000EC                        351 00199$:
      0000EC 38 38                  352 	jr	C, 00116$
      0000EE AF                     353 	xor	a, a
      0000EF 21r08r00               354 	ld	hl, #_bat2_dir
      0000F2 22                     355 	ld	(hl+), a
      0000F3 77                     356 	ld	(hl), a
      0000F4 18 30                  357 	jr	00116$
      0000F6                        358 00115$:
                                    359 ;src/rooms/room_0_1.c:51: bat2_pos_x--; if (bat2_pos_x <= bat2_min_x) bat2_dir = 1;
      0000F6 21r06r00               360 	ld	hl, #_bat2_pos_x
      0000F9 2A                     361 	ld	a, (hl+)
      0000FA 5F                     362 	ld	e, a
      0000FB 3A                     363 	ld	a, (hl-)
      0000FC 57                     364 	ld	d, a
      0000FD 1B                     365 	dec	de
      0000FE 7B                     366 	ld	a, e
      0000FF 22                     367 	ld	(hl+), a
      000100 7A                     368 	ld	a, d
      000101 32                     369 	ld	(hl-), a
      000102 3E 20                  370 	ld	a, #0x20
      000104 96                     371 	sub	a, (hl)
      000105 23                     372 	inc	hl
      000106 3E 00                  373 	ld	a, #0x00
      000108 9E                     374 	sbc	a, (hl)
      000109 3E 00                  375 	ld	a, #0x00
      00010B 57                     376 	ld	d, a
      00010C CB 7E                  377 	bit	7, (hl)
      00010E 28 07                  378 	jr	Z, 00200$
      000110 CB 7A                  379 	bit	7, d
      000112 20 08                  380 	jr	NZ, 00201$
      000114 BF                     381 	cp	a, a
      000115 18 05                  382 	jr	00201$
      000117                        383 00200$:
      000117 CB 7A                  384 	bit	7, d
      000119 28 01                  385 	jr	Z, 00201$
      00011B 37                     386 	scf
      00011C                        387 00201$:
      00011C 38 08                  388 	jr	C, 00116$
      00011E 21r08r00               389 	ld	hl, #_bat2_dir
      000121 3E 01                  390 	ld	a, #0x01
      000123 22                     391 	ld	(hl+), a
      000124 AF                     392 	xor	a, a
      000125 77                     393 	ld	(hl), a
      000126                        394 00116$:
                                    395 ;src/rooms/room_0_1.c:53: if (bat_phase & 1) {
      000126 21r01r00               396 	ld	hl, #_bat_phase
      000129 5E                     397 	ld	e, (hl)
                                    398 ;src/rooms/room_0_1.c:54: firefly_pos_x += fly_delta[(*(ptr_div_reg)) & 7];
      00012A 21r00r00               399 	ld	hl, #_ptr_div_reg
      00012D 6E                     400 	ld	l, (hl)
                                    401 ;	spillPairReg hl
                                    402 ;	spillPairReg hl
      00012E FAr01r00               403 	ld	a, (_ptr_div_reg + 1)
      000131 67                     404 	ld	h, a
                                    405 ;	spillPairReg hl
                                    406 ;	spillPairReg hl
      000132 7E                     407 	ld	a, (hl)
      000133 E6 07                  408 	and	a, #0x07
      000135 6F                     409 	ld	l, a
                                    410 ;	spillPairReg hl
                                    411 ;	spillPairReg hl
      000136 26 00                  412 	ld	h, #0x00
                                    413 ;	spillPairReg hl
                                    414 ;	spillPairReg hl
      000138 29                     415 	add	hl, hl
      000139 4D                     416 	ld	c, l
      00013A 44                     417 	ld	b, h
                                    418 ;src/rooms/room_0_1.c:53: if (bat_phase & 1) {
      00013B CB 43                  419 	bit	0, e
      00013D 28 40                  420 	jr	Z, 00128$
                                    421 ;src/rooms/room_0_1.c:54: firefly_pos_x += fly_delta[(*(ptr_div_reg)) & 7];
      00013F 21r00r00               422 	ld	hl, #_fly_delta
      000142 09                     423 	add	hl, bc
      000143 2A                     424 	ld	a, (hl+)
      000144 4F                     425 	ld	c, a
      000145 46                     426 	ld	b, (hl)
      000146 21r02r00               427 	ld	hl, #_firefly_pos_x
      000149 7E                     428 	ld	a, (hl)
      00014A 81                     429 	add	a, c
      00014B 22                     430 	ld	(hl+), a
      00014C 7E                     431 	ld	a, (hl)
      00014D 88                     432 	adc	a, b
      00014E 77                     433 	ld	(hl), a
                                    434 ;src/rooms/room_0_1.c:55: if (firefly_pos_x < 0) firefly_pos_x = 0; 
      00014F CB 7E                  435 	bit	7, (hl)
      000151 28 05                  436 	jr	Z, 00120$
      000153 2B                     437 	dec	hl
      000154 AF                     438 	xor	a, a
      000155 22                     439 	ld	(hl+), a
      000156 77                     440 	ld	(hl), a
      000157 C9                     441 	ret
      000158                        442 00120$:
                                    443 ;src/rooms/room_0_1.c:56: else if (firefly_pos_x > (room_width * 8)) firefly_pos_x = ((room_width * 8) - 1);
      000158 21r02r00               444 	ld	hl, #_firefly_pos_x
      00015B 3E F0                  445 	ld	a, #0xf0
      00015D 96                     446 	sub	a, (hl)
      00015E 23                     447 	inc	hl
      00015F 3E 00                  448 	ld	a, #0x00
      000161 9E                     449 	sbc	a, (hl)
      000162 3E 00                  450 	ld	a, #0x00
      000164 57                     451 	ld	d, a
      000165 CB 7E                  452 	bit	7, (hl)
      000167 28 07                  453 	jr	Z, 00203$
      000169 CB 7A                  454 	bit	7, d
      00016B 20 08                  455 	jr	NZ, 00204$
      00016D BF                     456 	cp	a, a
      00016E 18 05                  457 	jr	00204$
      000170                        458 00203$:
      000170 CB 7A                  459 	bit	7, d
      000172 28 01                  460 	jr	Z, 00204$
      000174 37                     461 	scf
      000175                        462 00204$:
      000175 D0                     463 	ret	NC
      000176 21r02r00               464 	ld	hl, #_firefly_pos_x
      000179 3E EF                  465 	ld	a, #0xef
      00017B 22                     466 	ld	(hl+), a
      00017C AF                     467 	xor	a, a
      00017D 77                     468 	ld	(hl), a
      00017E C9                     469 	ret
      00017F                        470 00128$:
                                    471 ;src/rooms/room_0_1.c:58: firefly_pos_y += fly_delta[(*(ptr_div_reg)) & 7];
      00017F 21r00r00               472 	ld	hl, #_fly_delta
      000182 09                     473 	add	hl, bc
      000183 2A                     474 	ld	a, (hl+)
      000184 4F                     475 	ld	c, a
      000185 46                     476 	ld	b, (hl)
      000186 21r04r00               477 	ld	hl, #_firefly_pos_y
      000189 7E                     478 	ld	a, (hl)
      00018A 81                     479 	add	a, c
      00018B 22                     480 	ld	(hl+), a
      00018C 7E                     481 	ld	a, (hl)
      00018D 88                     482 	adc	a, b
      00018E 77                     483 	ld	(hl), a
                                    484 ;src/rooms/room_0_1.c:59: if (firefly_pos_y < 0) firefly_pos_y = 0; 
      00018F CB 7E                  485 	bit	7, (hl)
      000191 28 05                  486 	jr	Z, 00125$
      000193 2B                     487 	dec	hl
      000194 AF                     488 	xor	a, a
      000195 22                     489 	ld	(hl+), a
      000196 77                     490 	ld	(hl), a
      000197 C9                     491 	ret
      000198                        492 00125$:
                                    493 ;src/rooms/room_0_1.c:60: else if (firefly_pos_y > (room_height * 8)) firefly_pos_y = ((room_height * 8) - 1);
      000198 21r04r00               494 	ld	hl, #_firefly_pos_y
      00019B 3E 88                  495 	ld	a, #0x88
      00019D 96                     496 	sub	a, (hl)
      00019E 23                     497 	inc	hl
      00019F 3E 00                  498 	ld	a, #0x00
      0001A1 9E                     499 	sbc	a, (hl)
      0001A2 3E 00                  500 	ld	a, #0x00
      0001A4 57                     501 	ld	d, a
      0001A5 CB 7E                  502 	bit	7, (hl)
      0001A7 28 07                  503 	jr	Z, 00205$
      0001A9 CB 7A                  504 	bit	7, d
      0001AB 20 08                  505 	jr	NZ, 00206$
      0001AD BF                     506 	cp	a, a
      0001AE 18 05                  507 	jr	00206$
      0001B0                        508 00205$:
      0001B0 CB 7A                  509 	bit	7, d
      0001B2 28 01                  510 	jr	Z, 00206$
      0001B4 37                     511 	scf
      0001B5                        512 00206$:
      0001B5 D0                     513 	ret	NC
      0001B6 21r04r00               514 	ld	hl, #_firefly_pos_y
      0001B9 3E 87                  515 	ld	a, #0x87
      0001BB 22                     516 	ld	(hl+), a
      0001BC AF                     517 	xor	a, a
      0001BD 77                     518 	ld	(hl), a
                                    519 ;src/rooms/room_0_1.c:62: }
      0001BE C9                     520 	ret
                                    521 ;src/rooms/room_0_1.c:64: void draw_bats0() {
                                    522 ;	---------------------------------
                                    523 ; Function draw_bats0
                                    524 ; ---------------------------------
      0001BF                        525 _draw_bats0::
                                    526 ;src/rooms/room_0_1.c:65: if (room_dark) return;
      0001BF FAr00r00               527 	ld	a, (#_room_dark)
      0001C2 B7                     528 	or	a, a
      0001C3 C0                     529 	ret	NZ
                                    530 ;src/rooms/room_0_1.c:66: if (bat_phase == 0) {
      0001C4 FAr01r00               531 	ld	a, (#_bat_phase)
      0001C7 B7                     532 	or	a, a
      0001C8 20 12                  533 	jr	NZ, 00106$
                                    534 ;src/rooms/room_0_1.c:67: multiple_set_sprite_tiles(evil_sprite_offset, total_room0_1_evil, evils[0]);        
      0001CA 21r19r00               535 	ld	hl, #_evils
      0001CD 2A                     536 	ld	a, (hl+)
      0001CE 4F                     537 	ld	c, a
      0001CF 46                     538 	ld	b, (hl)
      0001D0 C5                     539 	push	bc
      0001D1 21 09 05               540 	ld	hl, #0x509
      0001D4 E5                     541 	push	hl
      0001D5 CDr00r00               542 	call	_multiple_set_sprite_tiles
      0001D8 E8 04                  543 	add	sp, #4
      0001DA 18 17                  544 	jr	00107$
      0001DC                        545 00106$:
                                    546 ;src/rooms/room_0_1.c:68: } else if (bat_phase == 4) {
      0001DC FAr01r00               547 	ld	a, (#_bat_phase)
      0001DF D6 04                  548 	sub	a, #0x04
      0001E1 20 10                  549 	jr	NZ, 00107$
                                    550 ;src/rooms/room_0_1.c:69: multiple_set_sprite_tiles(evil_sprite_offset, total_room0_1_evil, evils[1]);        
      0001E3 21r1Br00               551 	ld	hl, #(_evils + 2)
      0001E6 2A                     552 	ld	a, (hl+)
      0001E7 4F                     553 	ld	c, a
      0001E8 46                     554 	ld	b, (hl)
      0001E9 C5                     555 	push	bc
      0001EA 21 09 05               556 	ld	hl, #0x509
      0001ED E5                     557 	push	hl
      0001EE CDr00r00               558 	call	_multiple_set_sprite_tiles
      0001F1 E8 04                  559 	add	sp, #4
      0001F3                        560 00107$:
                                    561 ;src/rooms/room_0_1.c:71: bat_phase++; bat_phase &= 7;
      0001F3 21r01r00               562 	ld	hl, #_bat_phase
      0001F6 34                     563 	inc	(hl)
      0001F7 7E                     564 	ld	a, (hl)
      0001F8 E6 07                  565 	and	a, #0x07
      0001FA 77                     566 	ld	(hl), a
                                    567 ;src/rooms/room_0_1.c:74: (unsigned char *)bat_offsets);    
      0001FB 01r0Br00               568 	ld	bc, #_bat_offsets
                                    569 ;src/rooms/room_0_1.c:73: bat1_pos_x - bkg_scroll_x_target, bat1_pos_y - bkg_scroll_y_target, 
      0001FE 3E 38                  570 	ld	a, #0x38
      000200 21r00r00               571 	ld	hl, #_bkg_scroll_y_target
      000203 96                     572 	sub	a, (hl)
      000204 57                     573 	ld	d, a
      000205 FAr02r00               574 	ld	a, (#_bat1_pos_x)
      000208 21r00r00               575 	ld	hl, #_bkg_scroll_x_target
      00020B 5E                     576 	ld	e, (hl)
      00020C 93                     577 	sub	a, e
                                    578 ;src/rooms/room_0_1.c:72: multiple_move_sprites(bat1_sprite_offset, bat_sprite_count, 
      00020D C5                     579 	push	bc
      00020E D5                     580 	push	de
      00020F 33                     581 	inc	sp
      000210 67                     582 	ld	h, a
      000211 2E 02                  583 	ld	l, #0x02
      000213 E5                     584 	push	hl
      000214 3E 09                  585 	ld	a, #0x09
      000216 F5                     586 	push	af
      000217 33                     587 	inc	sp
      000218 CDr00r00               588 	call	_multiple_move_sprites
      00021B E8 06                  589 	add	sp, #6
                                    590 ;src/rooms/room_0_1.c:77: (unsigned char *)bat_offsets);    
                                    591 ;src/rooms/room_0_1.c:76: bat2_pos_x - bkg_scroll_x_target, bat2_pos_y - bkg_scroll_y_target, 
      00021D 3E 58                  592 	ld	a, #0x58
      00021F 21r00r00               593 	ld	hl, #_bkg_scroll_y_target
      000222 96                     594 	sub	a, (hl)
      000223 47                     595 	ld	b, a
      000224 FAr06r00               596 	ld	a, (#_bat2_pos_x)
      000227 21r00r00               597 	ld	hl, #_bkg_scroll_x_target
      00022A 4E                     598 	ld	c, (hl)
      00022B 91                     599 	sub	a, c
                                    600 ;src/rooms/room_0_1.c:75: multiple_move_sprites(bat2_sprite_offset, bat_sprite_count, 
      00022C 11r0Br00               601 	ld	de, #_bat_offsets
      00022F D5                     602 	push	de
      000230 C5                     603 	push	bc
      000231 33                     604 	inc	sp
      000232 67                     605 	ld	h, a
      000233 2E 02                  606 	ld	l, #0x02
      000235 E5                     607 	push	hl
      000236 3E 0B                  608 	ld	a, #0x0b
      000238 F5                     609 	push	af
      000239 33                     610 	inc	sp
      00023A CDr00r00               611 	call	_multiple_move_sprites
      00023D E8 06                  612 	add	sp, #6
                                    613 ;src/rooms/room_0_1.c:80: (unsigned char *)fly_offsets);
                                    614 ;src/rooms/room_0_1.c:79: firefly_pos_x - bkg_scroll_x_target, firefly_pos_y - bkg_scroll_y_target,
      00023F FAr04r00               615 	ld	a, (#_firefly_pos_y)
      000242 21r00r00               616 	ld	hl, #_bkg_scroll_y_target
      000245 4E                     617 	ld	c, (hl)
      000246 91                     618 	sub	a, c
      000247 47                     619 	ld	b, a
      000248 FAr02r00               620 	ld	a, (#_firefly_pos_x)
      00024B 21r00r00               621 	ld	hl, #_bkg_scroll_x_target
      00024E 4E                     622 	ld	c, (hl)
      00024F 91                     623 	sub	a, c
                                    624 ;src/rooms/room_0_1.c:78: multiple_move_sprites(fly_sprite_offset1, fly_sprite_count, 
      000250 11r00r00               625 	ld	de, #_fly_offsets
      000253 D5                     626 	push	de
      000254 C5                     627 	push	bc
      000255 33                     628 	inc	sp
      000256 67                     629 	ld	h, a
      000257 2E 01                  630 	ld	l, #0x01
      000259 E5                     631 	push	hl
      00025A 3E 0D                  632 	ld	a, #0x0d
      00025C F5                     633 	push	af
      00025D 33                     634 	inc	sp
      00025E CDr00r00               635 	call	_multiple_move_sprites
      000261 E8 06                  636 	add	sp, #6
                                    637 ;src/rooms/room_0_1.c:81: }
      000263 C9                     638 	ret
                                    639 ;src/rooms/room_0_1.c:83: void coll_bats(WORD x, WORD y) {
                                    640 ;	---------------------------------
                                    641 ; Function coll_bats
                                    642 ; ---------------------------------
      000264                        643 _coll_bats::
      000264 E8 FB                  644 	add	sp, #-5
                                    645 ;src/rooms/room_0_1.c:84: if (room_dark) return;
      000266 FAr00r00               646 	ld	a, (#_room_dark)
      000269 B7                     647 	or	a, a
      00026A C2r97r03               648 	jp	NZ,00114$
                                    649 ;src/rooms/room_0_1.c:85: if (!((bat1_pos_x > x + 16) || 
      00026D F8 07                  650 	ldhl	sp,#7
      00026F 2A                     651 	ld	a, (hl+)
      000270 5F                     652 	ld	e, a
      000271 56                     653 	ld	d, (hl)
      000272 21 10 00               654 	ld	hl, #0x0010
      000275 19                     655 	add	hl, de
      000276 33                     656 	inc	sp
      000277 33                     657 	inc	sp
      000278 E5                     658 	push	hl
                                    659 ;src/rooms/room_0_1.c:87: (bat1_pos_y > y + 20) ||
      000279 F8 09                  660 	ldhl	sp,#9
      00027B 2A                     661 	ld	a, (hl+)
      00027C 5F                     662 	ld	e, a
      00027D 56                     663 	ld	d, (hl)
      00027E 21 14 00               664 	ld	hl, #0x0014
      000281 19                     665 	add	hl, de
      000282 4D                     666 	ld	c, l
      000283 44                     667 	ld	b, h
                                    668 ;src/rooms/room_0_1.c:89: dec_energy += 3;
      000284 FAr00r00               669 	ld	a, (#_dec_energy)
      000287 C6 03                  670 	add	a, #0x03
      000289 F8 02                  671 	ldhl	sp,	#2
      00028B 77                     672 	ld	(hl), a
                                    673 ;src/rooms/room_0_1.c:85: if (!((bat1_pos_x > x + 16) || 
      00028C F8 00                  674 	ldhl	sp,	#0
      00028E 5D                     675 	ld	e, l
      00028F 54                     676 	ld	d, h
      000290 21r02r00               677 	ld	hl, #_bat1_pos_x
      000293 1A                     678 	ld	a, (de)
      000294 13                     679 	inc	de
      000295 96                     680 	sub	a, (hl)
      000296 23                     681 	inc	hl
      000297 1A                     682 	ld	a, (de)
      000298 9E                     683 	sbc	a, (hl)
      000299 1A                     684 	ld	a, (de)
      00029A 57                     685 	ld	d, a
      00029B CB 7E                  686 	bit	7, (hl)
      00029D 28 07                  687 	jr	Z, 00161$
      00029F CB 7A                  688 	bit	7, d
      0002A1 20 08                  689 	jr	NZ, 00162$
      0002A3 BF                     690 	cp	a, a
      0002A4 18 05                  691 	jr	00162$
      0002A6                        692 00161$:
      0002A6 CB 7A                  693 	bit	7, d
      0002A8 28 01                  694 	jr	Z, 00162$
      0002AA 37                     695 	scf
      0002AB                        696 00162$:
      0002AB 38 66                  697 	jr	C, 00109$
                                    698 ;src/rooms/room_0_1.c:86: (bat1_pos_x + 16 < x) ||
      0002AD 21r02r00               699 	ld	hl, #_bat1_pos_x
      0002B0 2A                     700 	ld	a, (hl+)
      0002B1 5F                     701 	ld	e, a
      0002B2 56                     702 	ld	d, (hl)
      0002B3 21 10 00               703 	ld	hl, #0x0010
      0002B6 19                     704 	add	hl, de
      0002B7 E5                     705 	push	hl
      0002B8 7D                     706 	ld	a, l
      0002B9 F8 05                  707 	ldhl	sp,	#5
      0002BB 77                     708 	ld	(hl), a
      0002BC E1                     709 	pop	hl
      0002BD 7C                     710 	ld	a, h
      0002BE F8 04                  711 	ldhl	sp,	#4
      0002C0 77                     712 	ld	(hl), a
      0002C1 F8 03                  713 	ldhl	sp,	#3
      0002C3 5D                     714 	ld	e, l
      0002C4 54                     715 	ld	d, h
      0002C5 F8 07                  716 	ldhl	sp,	#7
      0002C7 1A                     717 	ld	a, (de)
      0002C8 13                     718 	inc	de
      0002C9 96                     719 	sub	a, (hl)
      0002CA 23                     720 	inc	hl
      0002CB 1A                     721 	ld	a, (de)
      0002CC 9E                     722 	sbc	a, (hl)
      0002CD 1A                     723 	ld	a, (de)
      0002CE 57                     724 	ld	d, a
      0002CF CB 7E                  725 	bit	7, (hl)
      0002D1 28 07                  726 	jr	Z, 00163$
      0002D3 CB 7A                  727 	bit	7, d
      0002D5 20 08                  728 	jr	NZ, 00164$
      0002D7 BF                     729 	cp	a, a
      0002D8 18 05                  730 	jr	00164$
      0002DA                        731 00163$:
      0002DA CB 7A                  732 	bit	7, d
      0002DC 28 01                  733 	jr	Z, 00164$
      0002DE 37                     734 	scf
      0002DF                        735 00164$:
      0002DF 38 32                  736 	jr	C, 00109$
                                    737 ;src/rooms/room_0_1.c:87: (bat1_pos_y > y + 20) ||
      0002E1 79                     738 	ld	a, c
      0002E2 D6 38                  739 	sub	a, #0x38
      0002E4 78                     740 	ld	a, b
      0002E5 17                     741 	rla
      0002E6 3F                     742 	ccf
      0002E7 1F                     743 	rra
      0002E8 DE 80                  744 	sbc	a, #0x80
      0002EA 38 27                  745 	jr	C, 00109$
                                    746 ;src/rooms/room_0_1.c:88: (bat1_pos_y + 8 < y))) {
      0002EC F8 09                  747 	ldhl	sp,	#9
      0002EE 3E 40                  748 	ld	a, #0x40
      0002F0 96                     749 	sub	a, (hl)
      0002F1 23                     750 	inc	hl
      0002F2 3E 00                  751 	ld	a, #0x00
      0002F4 9E                     752 	sbc	a, (hl)
      0002F5 3E 00                  753 	ld	a, #0x00
      0002F7 57                     754 	ld	d, a
      0002F8 CB 7E                  755 	bit	7, (hl)
      0002FA 28 07                  756 	jr	Z, 00165$
      0002FC CB 7A                  757 	bit	7, d
      0002FE 20 08                  758 	jr	NZ, 00166$
      000300 BF                     759 	cp	a, a
      000301 18 05                  760 	jr	00166$
      000303                        761 00165$:
      000303 CB 7A                  762 	bit	7, d
      000305 28 01                  763 	jr	Z, 00166$
      000307 37                     764 	scf
      000308                        765 00166$:
      000308 38 09                  766 	jr	C, 00109$
                                    767 ;src/rooms/room_0_1.c:89: dec_energy += 3;
      00030A F8 02                  768 	ldhl	sp,	#2
      00030C 7E                     769 	ld	a, (hl)
      00030D EAr00r00               770 	ld	(#_dec_energy),a
      000310 C3r97r03               771 	jp	00114$
      000313                        772 00109$:
                                    773 ;src/rooms/room_0_1.c:90: } else if (!((bat2_pos_x > x + 16) || 
      000313 F8 00                  774 	ldhl	sp,	#0
      000315 5D                     775 	ld	e, l
      000316 54                     776 	ld	d, h
      000317 21r06r00               777 	ld	hl, #_bat2_pos_x
      00031A 1A                     778 	ld	a, (de)
      00031B 13                     779 	inc	de
      00031C 96                     780 	sub	a, (hl)
      00031D 23                     781 	inc	hl
      00031E 1A                     782 	ld	a, (de)
      00031F 9E                     783 	sbc	a, (hl)
      000320 1A                     784 	ld	a, (de)
      000321 57                     785 	ld	d, a
      000322 CB 7E                  786 	bit	7, (hl)
      000324 28 07                  787 	jr	Z, 00167$
      000326 CB 7A                  788 	bit	7, d
      000328 20 08                  789 	jr	NZ, 00168$
      00032A BF                     790 	cp	a, a
      00032B 18 05                  791 	jr	00168$
      00032D                        792 00167$:
      00032D CB 7A                  793 	bit	7, d
      00032F 28 01                  794 	jr	Z, 00168$
      000331 37                     795 	scf
      000332                        796 00168$:
      000332 38 63                  797 	jr	C, 00114$
                                    798 ;src/rooms/room_0_1.c:91: (bat2_pos_x + 16 < x) ||
      000334 21r06r00               799 	ld	hl, #_bat2_pos_x
      000337 2A                     800 	ld	a, (hl+)
      000338 5F                     801 	ld	e, a
      000339 56                     802 	ld	d, (hl)
      00033A 21 10 00               803 	ld	hl, #0x0010
      00033D 19                     804 	add	hl, de
      00033E E5                     805 	push	hl
      00033F 7D                     806 	ld	a, l
      000340 F8 05                  807 	ldhl	sp,	#5
      000342 77                     808 	ld	(hl), a
      000343 E1                     809 	pop	hl
      000344 7C                     810 	ld	a, h
      000345 F8 04                  811 	ldhl	sp,	#4
      000347 77                     812 	ld	(hl), a
      000348 F8 03                  813 	ldhl	sp,	#3
      00034A 5D                     814 	ld	e, l
      00034B 54                     815 	ld	d, h
      00034C F8 07                  816 	ldhl	sp,	#7
      00034E 1A                     817 	ld	a, (de)
      00034F 13                     818 	inc	de
      000350 96                     819 	sub	a, (hl)
      000351 23                     820 	inc	hl
      000352 1A                     821 	ld	a, (de)
      000353 9E                     822 	sbc	a, (hl)
      000354 1A                     823 	ld	a, (de)
      000355 57                     824 	ld	d, a
      000356 CB 7E                  825 	bit	7, (hl)
      000358 28 07                  826 	jr	Z, 00169$
      00035A CB 7A                  827 	bit	7, d
      00035C 20 08                  828 	jr	NZ, 00170$
      00035E BF                     829 	cp	a, a
      00035F 18 05                  830 	jr	00170$
      000361                        831 00169$:
      000361 CB 7A                  832 	bit	7, d
      000363 28 01                  833 	jr	Z, 00170$
      000365 37                     834 	scf
      000366                        835 00170$:
      000366 38 2F                  836 	jr	C, 00114$
                                    837 ;src/rooms/room_0_1.c:92: (bat2_pos_y > y + 20) ||
      000368 79                     838 	ld	a, c
      000369 D6 58                  839 	sub	a, #0x58
      00036B 78                     840 	ld	a, b
      00036C 17                     841 	rla
      00036D 3F                     842 	ccf
      00036E 1F                     843 	rra
      00036F DE 80                  844 	sbc	a, #0x80
      000371 38 24                  845 	jr	C, 00114$
                                    846 ;src/rooms/room_0_1.c:93: (bat2_pos_y + 8 < y))) {
      000373 F8 09                  847 	ldhl	sp,	#9
      000375 3E 60                  848 	ld	a, #0x60
      000377 96                     849 	sub	a, (hl)
      000378 23                     850 	inc	hl
      000379 3E 00                  851 	ld	a, #0x00
      00037B 9E                     852 	sbc	a, (hl)
      00037C 3E 00                  853 	ld	a, #0x00
      00037E 57                     854 	ld	d, a
      00037F CB 7E                  855 	bit	7, (hl)
      000381 28 07                  856 	jr	Z, 00171$
      000383 CB 7A                  857 	bit	7, d
      000385 20 08                  858 	jr	NZ, 00172$
      000387 BF                     859 	cp	a, a
      000388 18 05                  860 	jr	00172$
      00038A                        861 00171$:
      00038A CB 7A                  862 	bit	7, d
      00038C 28 01                  863 	jr	Z, 00172$
      00038E 37                     864 	scf
      00038F                        865 00172$:
      00038F 38 06                  866 	jr	C, 00114$
                                    867 ;src/rooms/room_0_1.c:94: dec_energy += 3;
      000391 F8 02                  868 	ldhl	sp,	#2
      000393 7E                     869 	ld	a, (hl)
      000394 EAr00r00               870 	ld	(#_dec_energy),a
      000397                        871 00114$:
                                    872 ;src/rooms/room_0_1.c:96: }
      000397 E8 05                  873 	add	sp, #5
      000399 C9                     874 	ret
                                    875 ;src/rooms/room_0_1.c:98: void hcoll_darkness(WORD x, WORD y) {
                                    876 ;	---------------------------------
                                    877 ; Function hcoll_darkness
                                    878 ; ---------------------------------
      00039A                        879 _hcoll_darkness::
                                    880 ;src/rooms/room_0_1.c:99: if (room_dark) {
      00039A FAr00r00               881 	ld	a, (#_room_dark)
      00039D B7                     882 	or	a, a
      00039E 28 4D                  883 	jr	Z, 00109$
                                    884 ;src/rooms/room_0_1.c:100: if (!warning_shown) {
      0003A0 FAr01r00               885 	ld	a, (#_warning_shown)
      0003A3 B7                     886 	or	a, a
      0003A4 20 12                  887 	jr	NZ, 00102$
                                    888 ;src/rooms/room_0_1.c:101: show_dialog_window(4, &darkness_warn);
      0003A6 11r00r00               889 	ld	de, #_darkness_warn
      0003A9 D5                     890 	push	de
      0003AA 3E 04                  891 	ld	a, #0x04
      0003AC F5                     892 	push	af
      0003AD 33                     893 	inc	sp
      0003AE CDr00r00               894 	call	_show_dialog_window
      0003B1 E8 03                  895 	add	sp, #3
                                    896 ;src/rooms/room_0_1.c:102: warning_shown = 1;
      0003B3 21r01r00               897 	ld	hl, #_warning_shown
      0003B6 36 01                  898 	ld	(hl), #0x01
      0003B8                        899 00102$:
                                    900 ;src/rooms/room_0_1.c:104: if (x < (MAX_DIZZY_X - 8)) {
      0003B8 F8 02                  901 	ldhl	sp,	#2
      0003BA 2A                     902 	ld	a, (hl+)
      0003BB D6 D8                  903 	sub	a, #0xd8
      0003BD 7E                     904 	ld	a, (hl)
      0003BE DE 00                  905 	sbc	a, #0x00
      0003C0 56                     906 	ld	d, (hl)
      0003C1 3E 00                  907 	ld	a, #0x00
      0003C3 CB 7F                  908 	bit	7,a
      0003C5 28 07                  909 	jr	Z, 00137$
      0003C7 CB 7A                  910 	bit	7, d
      0003C9 20 08                  911 	jr	NZ, 00138$
      0003CB BF                     912 	cp	a, a
      0003CC 18 05                  913 	jr	00138$
      0003CE                        914 00137$:
      0003CE CB 7A                  915 	bit	7, d
      0003D0 28 01                  916 	jr	Z, 00138$
      0003D2 37                     917 	scf
      0003D3                        918 00138$:
      0003D3 30 18                  919 	jr	NC, 00109$
                                    920 ;src/rooms/room_0_1.c:105: is_position_safe = 0;
      0003D5 21r00r00               921 	ld	hl, #_is_position_safe
      0003D8 36 00                  922 	ld	(hl), #0x00
                                    923 ;src/rooms/room_0_1.c:106: bite_timer++; bite_timer &= 3;
      0003DA 21r00r00               924 	ld	hl, #_bite_timer
      0003DD 34                     925 	inc	(hl)
      0003DE 7E                     926 	ld	a, (hl)
      0003DF E6 03                  927 	and	a, #0x03
                                    928 ;src/rooms/room_0_1.c:107: if ((!bite_timer) && (!dec_energy)) dec_energy++;
      0003E1 77                     929 	ld	(hl), a
      0003E2 B7                     930 	or	a, a
      0003E3 20 08                  931 	jr	NZ, 00109$
      0003E5 21r00r00               932 	ld	hl, #_dec_energy
      0003E8 7E                     933 	ld	a, (hl)
      0003E9 B7                     934 	or	a, a
      0003EA 20 01                  935 	jr	NZ, 00109$
      0003EC 34                     936 	inc	(hl)
      0003ED                        937 00109$:
                                    938 ;src/rooms/room_0_1.c:110: get_h_coll(x, y);
      0003ED F8 04                  939 	ldhl	sp,	#4
      0003EF 2A                     940 	ld	a, (hl+)
      0003F0 5F                     941 	ld	e, a
      0003F1 56                     942 	ld	d, (hl)
      0003F2 D5                     943 	push	de
      0003F3 F8 04                  944 	ldhl	sp,	#4
      0003F5 2A                     945 	ld	a, (hl+)
      0003F6 5F                     946 	ld	e, a
      0003F7 56                     947 	ld	d, (hl)
      0003F8 D5                     948 	push	de
      0003F9 CDr00r00               949 	call	_get_h_coll
      0003FC E8 04                  950 	add	sp, #4
                                    951 ;src/rooms/room_0_1.c:111: }
      0003FE C9                     952 	ret
                                    953 ;src/rooms/room_0_1.c:113: UBYTE dizzy_drops_firefly(UBYTE tile_x, UBYTE tile_y, UBYTE id) {
                                    954 ;	---------------------------------
                                    955 ; Function dizzy_drops_firefly
                                    956 ; ---------------------------------
      0003FF                        957 _dizzy_drops_firefly::
      0003FF 3B                     958 	dec	sp
      000400 3B                     959 	dec	sp
                                    960 ;src/rooms/room_0_1.c:115: if (id == ID_FIREFLY) {
      000401 F8 06                  961 	ldhl	sp,	#6
      000403 7E                     962 	ld	a, (hl)
      000404 D6 08                  963 	sub	a, #0x08
      000406 20 18                  964 	jr	NZ, 00117$
                                    965 ;src/rooms/room_0_1.c:116: room_dark = 0; firefly_pos_x = (25 * 8); firefly_pos_y = (9 * 8);
      000408 21r00r00               966 	ld	hl, #_room_dark
      00040B 36 00                  967 	ld	(hl), #0x00
      00040D 21r02r00               968 	ld	hl, #_firefly_pos_x
      000410 3E C8                  969 	ld	a, #0xc8
      000412 22                     970 	ld	(hl+), a
      000413 AF                     971 	xor	a, a
      000414 77                     972 	ld	(hl), a
      000415 21r04r00               973 	ld	hl, #_firefly_pos_y
      000418 3E 48                  974 	ld	a, #0x48
      00041A 22                     975 	ld	(hl+), a
      00041B AF                     976 	xor	a, a
      00041C 77                     977 	ld	(hl), a
      00041D C3r26r05               978 	jp	00118$
      000420                        979 00117$:
                                    980 ;src/rooms/room_0_1.c:117: } else if (id == ID_LID) {
      000420 F8 06                  981 	ldhl	sp,	#6
      000422 7E                     982 	ld	a, (hl)
      000423 D6 07                  983 	sub	a, #0x07
      000425 C2r26r05               984 	jp	NZ,00118$
                                    985 ;src/rooms/room_0_1.c:118: temp_item = find_by_id(&inventory_item_list, ID_JAR);
      000428 3E 06                  986 	ld	a, #0x06
      00042A F5                     987 	push	af
      00042B 33                     988 	inc	sp
      00042C 11r00r00               989 	ld	de, #_inventory_item_list
      00042F D5                     990 	push	de
      000430 CDr00r00               991 	call	_find_by_id
      000433 E8 03                  992 	add	sp, #3
      000435 7B                     993 	ld	a, e
                                    994 ;src/rooms/room_0_1.c:119: if (temp_item) {
      000436 B2                     995 	or	a, d
      000437 CAr26r05               996 	jp	Z, 00118$
                                    997 ;src/rooms/room_0_1.c:120: UBYTE ff_tile_x = firefly_pos_x >> 3, ff_tile_y = firefly_pos_y >> 3;
      00043A 21r02r00               998 	ld	hl, #_firefly_pos_x
      00043D 2A                     999 	ld	a, (hl+)
      00043E 5F                    1000 	ld	e, a
      00043F 4E                    1001 	ld	c, (hl)
      000440 CB 29                 1002 	sra	c
      000442 CB 1B                 1003 	rr	e
      000444 CB 29                 1004 	sra	c
      000446 CB 1B                 1005 	rr	e
      000448 CB 29                 1006 	sra	c
      00044A CB 1B                 1007 	rr	e
      00044C 21r04r00              1008 	ld	hl, #_firefly_pos_y
      00044F 2A                    1009 	ld	a, (hl+)
      000450 4F                    1010 	ld	c, a
      000451 46                    1011 	ld	b, (hl)
      000452 CB 28                 1012 	sra	b
      000454 CB 19                 1013 	rr	c
      000456 CB 28                 1014 	sra	b
      000458 CB 19                 1015 	rr	c
      00045A CB 28                 1016 	sra	b
      00045C CB 19                 1017 	rr	c
      00045E F8 01                 1018 	ldhl	sp,	#1
      000460 71                    1019 	ld	(hl), c
                                   1020 ;src/rooms/room_0_1.c:121: if ((ff_tile_x >= tile_x) && (ff_tile_x <= tile_x + 2) &&
      000461 7B                    1021 	ld	a, e
      000462 F8 04                 1022 	ldhl	sp,	#4
      000464 96                    1023 	sub	a, (hl)
      000465 DAr26r05              1024 	jp	C, 00118$
      000468 4E                    1025 	ld	c, (hl)
      000469 06 00                 1026 	ld	b, #0x00
      00046B 03                    1027 	inc	bc
      00046C 03                    1028 	inc	bc
      00046D 6B                    1029 	ld	l, e
                                   1030 ;	spillPairReg hl
                                   1031 ;	spillPairReg hl
      00046E 26 00                 1032 	ld	h, #0x00
                                   1033 ;	spillPairReg hl
                                   1034 ;	spillPairReg hl
      000470 5C                    1035 	ld	e, h
      000471 50                    1036 	ld	d, b
      000472 79                    1037 	ld	a, c
      000473 95                    1038 	sub	a, l
      000474 78                    1039 	ld	a, b
      000475 9C                    1040 	sbc	a, h
      000476 CB 7B                 1041 	bit	7, e
      000478 28 07                 1042 	jr	Z, 00175$
      00047A CB 7A                 1043 	bit	7, d
      00047C 20 08                 1044 	jr	NZ, 00176$
      00047E BF                    1045 	cp	a, a
      00047F 18 05                 1046 	jr	00176$
      000481                       1047 00175$:
      000481 CB 7A                 1048 	bit	7, d
      000483 28 01                 1049 	jr	Z, 00176$
      000485 37                    1050 	scf
      000486                       1051 00176$:
      000486 DAr26r05              1052 	jp	C, 00118$
                                   1053 ;src/rooms/room_0_1.c:122: (ff_tile_y >= tile_y) && (ff_tile_y <= tile_y + 1)) {
      000489 F8 01                 1054 	ldhl	sp,	#1
      00048B 7E                    1055 	ld	a, (hl)
      00048C F8 05                 1056 	ldhl	sp,	#5
      00048E 96                    1057 	sub	a, (hl)
      00048F DAr26r05              1058 	jp	C, 00118$
      000492 4E                    1059 	ld	c, (hl)
      000493 06 00                 1060 	ld	b, #0x00
      000495 03                    1061 	inc	bc
      000496 F8 01                 1062 	ldhl	sp,	#1
      000498 3A                    1063 	ld	a, (hl-)
      000499 22                    1064 	ld	(hl+), a
      00049A AF                    1065 	xor	a, a
      00049B 32                    1066 	ld	(hl-), a
      00049C 79                    1067 	ld	a, c
      00049D 96                    1068 	sub	a, (hl)
      00049E 23                    1069 	inc	hl
      00049F 78                    1070 	ld	a, b
      0004A0 9E                    1071 	sbc	a, (hl)
      0004A1 78                    1072 	ld	a, b
      0004A2 57                    1073 	ld	d, a
      0004A3 CB 7E                 1074 	bit	7, (hl)
      0004A5 28 07                 1075 	jr	Z, 00177$
      0004A7 CB 7A                 1076 	bit	7, d
      0004A9 20 08                 1077 	jr	NZ, 00178$
      0004AB BF                    1078 	cp	a, a
      0004AC 18 05                 1079 	jr	00178$
      0004AE                       1080 00177$:
      0004AE CB 7A                 1081 	bit	7, d
      0004B0 28 01                 1082 	jr	Z, 00178$
      0004B2 37                    1083 	scf
      0004B3                       1084 00178$:
      0004B3 38 71                 1085 	jr	C, 00118$
                                   1086 ;src/rooms/room_0_1.c:124: temp_item = pop_by_id(&inventory_item_list, ID_JAR);
      0004B5 3E 06                 1087 	ld	a, #0x06
      0004B7 F5                    1088 	push	af
      0004B8 33                    1089 	inc	sp
      0004B9 11r00r00              1090 	ld	de, #_inventory_item_list
      0004BC D5                    1091 	push	de
      0004BD CDr00r00              1092 	call	_pop_by_id
      0004C0 E8 03                 1093 	add	sp, #3
                                   1094 ;src/rooms/room_0_1.c:125: if (temp_item) push_last(&item_stack, temp_item);
      0004C2 7A                    1095 	ld	a, d
      0004C3 B3                    1096 	or	a, e
      0004C4 28 0A                 1097 	jr	Z, 00102$
      0004C6 D5                    1098 	push	de
      0004C7 11r00r00              1099 	ld	de, #_item_stack
      0004CA D5                    1100 	push	de
      0004CB CDr00r00              1101 	call	_push_last
      0004CE E8 04                 1102 	add	sp, #4
      0004D0                       1103 00102$:
                                   1104 ;src/rooms/room_0_1.c:127: temp_item = pop_by_id(&game_item_list, ID_FIREFLY);
      0004D0 3E 08                 1105 	ld	a, #0x08
      0004D2 F5                    1106 	push	af
      0004D3 33                    1107 	inc	sp
      0004D4 11r00r00              1108 	ld	de, #_game_item_list
      0004D7 D5                    1109 	push	de
      0004D8 CDr00r00              1110 	call	_pop_by_id
      0004DB E8 03                 1111 	add	sp, #3
      0004DD 4B                    1112 	ld	c, e
      0004DE 42                    1113 	ld	b, d
                                   1114 ;src/rooms/room_0_1.c:128: if (!temp_item) temp_item = pop_by_id(&item_stack, ID_FIREFLY);
      0004DF 78                    1115 	ld	a, b
      0004E0 B1                    1116 	or	a, c
      0004E1 20 0F                 1117 	jr	NZ, 00104$
      0004E3 3E 08                 1118 	ld	a, #0x08
      0004E5 F5                    1119 	push	af
      0004E6 33                    1120 	inc	sp
      0004E7 11r00r00              1121 	ld	de, #_item_stack
      0004EA D5                    1122 	push	de
      0004EB CDr00r00              1123 	call	_pop_by_id
      0004EE E8 03                 1124 	add	sp, #3
      0004F0 4B                    1125 	ld	c, e
      0004F1 42                    1126 	ld	b, d
      0004F2                       1127 00104$:
                                   1128 ;src/rooms/room_0_1.c:129: if (temp_item) push_last(&inventory_item_list, temp_item);                
      0004F2 78                    1129 	ld	a, b
      0004F3 B1                    1130 	or	a, c
      0004F4 28 0A                 1131 	jr	Z, 00106$
      0004F6 C5                    1132 	push	bc
      0004F7 11r00r00              1133 	ld	de, #_inventory_item_list
      0004FA D5                    1134 	push	de
      0004FB CDr00r00              1135 	call	_push_last
      0004FE E8 04                 1136 	add	sp, #4
      000500                       1137 00106$:
                                   1138 ;src/rooms/room_0_1.c:131: show_dialog_window(2, &firefly_caught);
      000500 11r00r00              1139 	ld	de, #_firefly_caught
      000503 D5                    1140 	push	de
      000504 3E 02                 1141 	ld	a, #0x02
      000506 F5                    1142 	push	af
      000507 33                    1143 	inc	sp
      000508 CDr00r00              1144 	call	_show_dialog_window
      00050B E8 03                 1145 	add	sp, #3
                                   1146 ;src/rooms/room_0_1.c:133: multiple_move_sprites(evil_sprite_offset, evil_sprite_total_count, 0, 0, (unsigned char *)evil_hide);           
      00050D 11r00r00              1147 	ld	de, #_evil_hide
      000510 D5                    1148 	push	de
      000511 AF                    1149 	xor	a, a
      000512 0F                    1150 	rrca
      000513 F5                    1151 	push	af
      000514 21 09 10              1152 	ld	hl, #0x1009
      000517 E5                    1153 	push	hl
      000518 CDr00r00              1154 	call	_multiple_move_sprites
      00051B E8 06                 1155 	add	sp, #6
                                   1156 ;src/rooms/room_0_1.c:134: room_dark = 1;
      00051D 21r00r00              1157 	ld	hl, #_room_dark
      000520 36 01                 1158 	ld	(hl), #0x01
                                   1159 ;src/rooms/room_0_1.c:135: return ID_ITEM_USED;
      000522 1E 0F                 1160 	ld	e, #0x0f
      000524 18 09                 1161 	jr	00119$
      000526                       1162 00118$:
                                   1163 ;src/rooms/room_0_1.c:139: return default_drop(id);
      000526 F8 06                 1164 	ldhl	sp,	#6
      000528 7E                    1165 	ld	a, (hl)
      000529 F5                    1166 	push	af
      00052A 33                    1167 	inc	sp
      00052B CDr00r00              1168 	call	_default_drop
      00052E 33                    1169 	inc	sp
      00052F                       1170 00119$:
                                   1171 ;src/rooms/room_0_1.c:140: }
      00052F 33                    1172 	inc	sp
      000530 33                    1173 	inc	sp
      000531 C9                    1174 	ret
                                   1175 ;src/rooms/room_1_1.c:18: void reset_room1() {
                                   1176 ;	---------------------------------
                                   1177 ; Function reset_room1
                                   1178 ; ---------------------------------
      000532                       1179 _reset_room1::
                                   1180 ;src/rooms/room_1_1.c:19: intro_shown = 0, path_cleaned = 0;
      000532 21r06r00              1181 	ld	hl, #_intro_shown
      000535 36 00                 1182 	ld	(hl), #0x00
      000537 21r07r00              1183 	ld	hl, #_path_cleaned
      00053A 36 00                 1184 	ld	(hl), #0x00
                                   1185 ;src/rooms/room_1_1.c:20: }
      00053C C9                    1186 	ret
      00053D                       1187 _flames_offsets:
      00053D 28                    1188 	.db #0x28	; 40
      00053E 08                    1189 	.db #0x08	; 8
      00053F 28                    1190 	.db #0x28	; 40
      000540 10                    1191 	.db #0x10	; 16
      000541 30                    1192 	.db #0x30	; 48	'0'
      000542 08                    1193 	.db #0x08	; 8
      000543 30                    1194 	.db #0x30	; 48	'0'
      000544 10                    1195 	.db #0x10	; 16
      000545                       1196 _ftn:
      000545 09                    1197 	.db #0x09	; 9
      000546 0A                    1198 	.db #0x0a	; 10
      000547 19                    1199 	.db #0x19	; 25
      000548 1A                    1200 	.db #0x1a	; 26
      000549 0B                    1201 	.db #0x0b	; 11
      00054A 0C                    1202 	.db #0x0c	; 12
      00054B 1B                    1203 	.db #0x1b	; 27
      00054C 1C                    1204 	.db #0x1c	; 28
      00054D 0D                    1205 	.db #0x0d	; 13
      00054E 0E                    1206 	.db #0x0e	; 14
      00054F 1D                    1207 	.db #0x1d	; 29
      000550 1E                    1208 	.db #0x1e	; 30
      000551 0F                    1209 	.db #0x0f	; 15
      000552 10                    1210 	.db #0x10	; 16
      000553 1F                    1211 	.db #0x1f	; 31
      000554 20                    1212 	.db #0x20	; 32
      000555 11                    1213 	.db #0x11	; 17
      000556 12                    1214 	.db #0x12	; 18
      000557 21                    1215 	.db #0x21	; 33
      000558 22                    1216 	.db #0x22	; 34
      000559 13                    1217 	.db #0x13	; 19
      00055A 14                    1218 	.db #0x14	; 20
      00055B 23                    1219 	.db #0x23	; 35
      00055C 24                    1220 	.db #0x24	; 36
      00055D 15                    1221 	.db #0x15	; 21
      00055E 16                    1222 	.db #0x16	; 22
      00055F 25                    1223 	.db #0x25	; 37
      000560 26                    1224 	.db #0x26	; 38
      000561 17                    1225 	.db #0x17	; 23
      000562 18                    1226 	.db #0x18	; 24
      000563 27                    1227 	.db #0x27	; 39
      000564 28                    1228 	.db #0x28	; 40
      000565                       1229 _flames:
      000565r45r05                 1230 	.dw (_ftn + 0)
      000567r49r05                 1231 	.dw (_ftn + 4)
      000569r4Dr05                 1232 	.dw (_ftn + 8)
      00056Br51r05                 1233 	.dw (_ftn + 12)
      00056Dr55r05                 1234 	.dw (_ftn + 16)
      00056Fr59r05                 1235 	.dw (_ftn + 20)
      000571r5Dr05                 1236 	.dw (_ftn + 24)
      000573r61r05                 1237 	.dw (_ftn + 28)
                                   1238 ;src/rooms/room_1_1.c:21: void init_room1_1() {
                                   1239 ;	---------------------------------
                                   1240 ; Function init_room1_1
                                   1241 ; ---------------------------------
      000575                       1242 _init_room1_1::
                                   1243 ;src/rooms/room_1_1.c:22: set_sprite_data(evil_sprites_tileoffset, current_room->raw_enemies_tiles->count, current_room->raw_enemies_tiles->data);
      000575 21r00r00              1244 	ld	hl, #_current_room
      000578 2A                    1245 	ld	a, (hl+)
      000579 4F                    1246 	ld	c, a
      00057A 46                    1247 	ld	b, (hl)
      00057B 21 07 00              1248 	ld	hl, #0x0007
      00057E 09                    1249 	add	hl, bc
      00057F 2A                    1250 	ld	a, (hl+)
      000580 4F                    1251 	ld	c, a
      000581 46                    1252 	ld	b, (hl)
      000582 59                    1253 	ld	e, c
      000583 50                    1254 	ld	d, b
      000584 13                    1255 	inc	de
      000585 0A                    1256 	ld	a, (bc)
      000586 D5                    1257 	push	de
      000587 67                    1258 	ld	h, a
      000588 2E 09                 1259 	ld	l, #0x09
      00058A E5                    1260 	push	hl
      00058B CDr00r00              1261 	call	_set_sprite_data
      00058E E8 04                 1262 	add	sp, #4
                                   1263 ;src/rooms/room_1_1.c:23: }
      000590 C9                    1264 	ret
                                   1265 ;src/rooms/room_1_1.c:24: void draw_flames1_1() {
                                   1266 ;	---------------------------------
                                   1267 ; Function draw_flames1_1
                                   1268 ; ---------------------------------
      000591                       1269 _draw_flames1_1::
                                   1270 ;src/rooms/room_1_1.c:25: if (!flame_timer) {
      000591 FAr0Ar00              1271 	ld	a, (#_flame_timer)
      000594 B7                    1272 	or	a, a
      000595 20 3F                 1273 	jr	NZ, 00102$
                                   1274 ;src/rooms/room_1_1.c:26: flame1_phase++; flame1_phase &= 7;
      000597 21r0Br00              1275 	ld	hl, #_flame1_phase
      00059A 34                    1276 	inc	(hl)
      00059B 7E                    1277 	ld	a, (hl)
      00059C E6 07                 1278 	and	a, #0x07
      00059E 77                    1279 	ld	(hl), a
                                   1280 ;src/rooms/room_1_1.c:27: flame2_phase++; flame2_phase &= 7;
      00059F 21r0Cr00              1281 	ld	hl, #_flame2_phase
      0005A2 34                    1282 	inc	(hl)
      0005A3 7E                    1283 	ld	a, (hl)
      0005A4 E6 07                 1284 	and	a, #0x07
      0005A6 77                    1285 	ld	(hl), a
                                   1286 ;src/rooms/room_1_1.c:28: multiple_set_sprite_tiles(flame1_sprite_offset, flame_sprite_count, flames[flame1_phase]);
      0005A7 01r65r05              1287 	ld	bc, #_flames+0
      0005AA 21r0Br00              1288 	ld	hl, #_flame1_phase
      0005AD 6E                    1289 	ld	l, (hl)
                                   1290 ;	spillPairReg hl
                                   1291 ;	spillPairReg hl
      0005AE 26 00                 1292 	ld	h, #0x00
                                   1293 ;	spillPairReg hl
                                   1294 ;	spillPairReg hl
      0005B0 29                    1295 	add	hl, hl
      0005B1 09                    1296 	add	hl, bc
      0005B2 2A                    1297 	ld	a,	(hl+)
      0005B3 66                    1298 	ld	h, (hl)
                                   1299 ;	spillPairReg hl
      0005B4 6F                    1300 	ld	l, a
                                   1301 ;	spillPairReg hl
                                   1302 ;	spillPairReg hl
      0005B5 C5                    1303 	push	bc
      0005B6 E5                    1304 	push	hl
      0005B7 21 09 04              1305 	ld	hl, #0x409
      0005BA E5                    1306 	push	hl
      0005BB CDr00r00              1307 	call	_multiple_set_sprite_tiles
      0005BE E8 04                 1308 	add	sp, #4
      0005C0 C1                    1309 	pop	bc
                                   1310 ;src/rooms/room_1_1.c:29: multiple_set_sprite_tiles(flame2_sprite_offset, flame_sprite_count, flames[flame2_phase]);
      0005C1 21r0Cr00              1311 	ld	hl, #_flame2_phase
      0005C4 6E                    1312 	ld	l, (hl)
                                   1313 ;	spillPairReg hl
                                   1314 ;	spillPairReg hl
      0005C5 26 00                 1315 	ld	h, #0x00
                                   1316 ;	spillPairReg hl
                                   1317 ;	spillPairReg hl
      0005C7 29                    1318 	add	hl, hl
      0005C8 09                    1319 	add	hl, bc
      0005C9 2A                    1320 	ld	a, (hl+)
      0005CA 4F                    1321 	ld	c, a
      0005CB 46                    1322 	ld	b, (hl)
      0005CC C5                    1323 	push	bc
      0005CD 21 0D 04              1324 	ld	hl, #0x40d
      0005D0 E5                    1325 	push	hl
      0005D1 CDr00r00              1326 	call	_multiple_set_sprite_tiles
      0005D4 E8 04                 1327 	add	sp, #4
      0005D6                       1328 00102$:
                                   1329 ;src/rooms/room_1_1.c:31: flame_timer++; flame_timer &= 7;
      0005D6 21r0Ar00              1330 	ld	hl, #_flame_timer
      0005D9 34                    1331 	inc	(hl)
      0005DA 7E                    1332 	ld	a, (hl)
      0005DB E6 07                 1333 	and	a, #0x07
      0005DD 77                    1334 	ld	(hl), a
                                   1335 ;src/rooms/room_1_1.c:34: (unsigned char *)flames_offsets);    
      0005DE 11r3Dr05              1336 	ld	de, #_flames_offsets
                                   1337 ;src/rooms/room_1_1.c:33: flame1_pos_x - bkg_scroll_x_target, flame1_pos_y - bkg_scroll_y_target, 
      0005E1 3E 28                 1338 	ld	a, #0x28
      0005E3 21r00r00              1339 	ld	hl, #_bkg_scroll_y_target
      0005E6 96                    1340 	sub	a, (hl)
      0005E7 47                    1341 	ld	b, a
      0005E8 3E 18                 1342 	ld	a, #0x18
      0005EA 21r00r00              1343 	ld	hl, #_bkg_scroll_x_target
      0005ED 96                    1344 	sub	a, (hl)
                                   1345 ;src/rooms/room_1_1.c:32: multiple_move_sprites(flame1_sprite_offset, flame_sprite_count, 
      0005EE D5                    1346 	push	de
      0005EF C5                    1347 	push	bc
      0005F0 33                    1348 	inc	sp
      0005F1 67                    1349 	ld	h, a
      0005F2 2E 04                 1350 	ld	l, #0x04
      0005F4 E5                    1351 	push	hl
      0005F5 3E 09                 1352 	ld	a, #0x09
      0005F7 F5                    1353 	push	af
      0005F8 33                    1354 	inc	sp
      0005F9 CDr00r00              1355 	call	_multiple_move_sprites
      0005FC E8 06                 1356 	add	sp, #6
                                   1357 ;src/rooms/room_1_1.c:37: (unsigned char *)flames_offsets);
      0005FE 11r3Dr05              1358 	ld	de, #_flames_offsets
                                   1359 ;src/rooms/room_1_1.c:36: flame2_pos_x - bkg_scroll_x_target, flame2_pos_y - bkg_scroll_y_target, 
      000601 3E 38                 1360 	ld	a, #0x38
      000603 21r00r00              1361 	ld	hl, #_bkg_scroll_y_target
      000606 96                    1362 	sub	a, (hl)
      000607 47                    1363 	ld	b, a
      000608 3E 60                 1364 	ld	a, #0x60
      00060A 21r00r00              1365 	ld	hl, #_bkg_scroll_x_target
      00060D 96                    1366 	sub	a, (hl)
                                   1367 ;src/rooms/room_1_1.c:35: multiple_move_sprites(flame2_sprite_offset, flame_sprite_count, 
      00060E D5                    1368 	push	de
      00060F C5                    1369 	push	bc
      000610 33                    1370 	inc	sp
      000611 67                    1371 	ld	h, a
      000612 2E 04                 1372 	ld	l, #0x04
      000614 E5                    1373 	push	hl
      000615 3E 0D                 1374 	ld	a, #0x0d
      000617 F5                    1375 	push	af
      000618 33                    1376 	inc	sp
      000619 CDr00r00              1377 	call	_multiple_move_sprites
      00061C E8 06                 1378 	add	sp, #6
                                   1379 ;src/rooms/room_1_1.c:38: }
      00061E C9                    1380 	ret
                                   1381 ;src/rooms/room_1_1.c:40: void hcoll_blockage(WORD x, WORD y) {
                                   1382 ;	---------------------------------
                                   1383 ; Function hcoll_blockage
                                   1384 ; ---------------------------------
      00061F                       1385 _hcoll_blockage::
                                   1386 ;src/rooms/room_1_1.c:42: if (!intro_shown) {
      00061F FAr06r00              1387 	ld	a, (#_intro_shown)
      000622 B7                    1388 	or	a, a
      000623 20 12                 1389 	jr	NZ, 00102$
                                   1390 ;src/rooms/room_1_1.c:43: show_dialog_window(5, &intro);
      000625 11r00r00              1391 	ld	de, #_intro
      000628 D5                    1392 	push	de
      000629 3E 05                 1393 	ld	a, #0x05
      00062B F5                    1394 	push	af
      00062C 33                    1395 	inc	sp
      00062D CDr00r00              1396 	call	_show_dialog_window
      000630 E8 03                 1397 	add	sp, #3
                                   1398 ;src/rooms/room_1_1.c:44: intro_shown = 1;
      000632 21r06r00              1399 	ld	hl, #_intro_shown
      000635 36 01                 1400 	ld	(hl), #0x01
      000637                       1401 00102$:
                                   1402 ;src/rooms/room_1_1.c:46: get_h_coll(x, y);
      000637 F8 04                 1403 	ldhl	sp,	#4
      000639 2A                    1404 	ld	a, (hl+)
      00063A 5F                    1405 	ld	e, a
      00063B 56                    1406 	ld	d, (hl)
      00063C D5                    1407 	push	de
      00063D F8 04                 1408 	ldhl	sp,	#4
      00063F 2A                    1409 	ld	a, (hl+)
      000640 5F                    1410 	ld	e, a
      000641 56                    1411 	ld	d, (hl)
      000642 D5                    1412 	push	de
      000643 CDr00r00              1413 	call	_get_h_coll
      000646 E8 04                 1414 	add	sp, #4
                                   1415 ;src/rooms/room_1_1.c:47: }
      000648 C9                    1416 	ret
                                   1417 ;src/rooms/room_1_1.c:49: void vcoll_blockage(WORD x, WORD y) {
                                   1418 ;	---------------------------------
                                   1419 ; Function vcoll_blockage
                                   1420 ; ---------------------------------
      000649                       1421 _vcoll_blockage::
                                   1422 ;src/rooms/room_1_1.c:50: if ((!path_cleaned) && (delta_x >= 0)) {
      000649 FAr07r00              1423 	ld	a, (#_path_cleaned)
      00064C B7                    1424 	or	a, a
      00064D 20 44                 1425 	jr	NZ, 00104$
      00064F FAr01r00              1426 	ld	a, (#_delta_x + 1)
      000652 CB 7F                 1427 	bit	7, a
      000654 20 3D                 1428 	jr	NZ, 00104$
                                   1429 ;src/rooms/room_1_1.c:51: if (x >= (17 * 8)) {
      000656 F8 02                 1430 	ldhl	sp,	#2
      000658 2A                    1431 	ld	a, (hl+)
      000659 D6 88                 1432 	sub	a, #0x88
      00065B 7E                    1433 	ld	a, (hl)
      00065C DE 00                 1434 	sbc	a, #0x00
      00065E 56                    1435 	ld	d, (hl)
      00065F 3E 00                 1436 	ld	a, #0x00
      000661 CB 7F                 1437 	bit	7,a
      000663 28 07                 1438 	jr	Z, 00123$
      000665 CB 7A                 1439 	bit	7, d
      000667 20 08                 1440 	jr	NZ, 00124$
      000669 BF                    1441 	cp	a, a
      00066A 18 05                 1442 	jr	00124$
      00066C                       1443 00123$:
      00066C CB 7A                 1444 	bit	7, d
      00066E 28 01                 1445 	jr	Z, 00124$
      000670 37                    1446 	scf
      000671                       1447 00124$:
      000671 38 20                 1448 	jr	C, 00104$
                                   1449 ;src/rooms/room_1_1.c:52: tile_pos_x = x >> 3; 
      000673 F8 02                 1450 	ldhl	sp,#2
      000675 2A                    1451 	ld	a, (hl+)
      000676 4F                    1452 	ld	c, a
      000677 46                    1453 	ld	b, (hl)
      000678 CB 28                 1454 	sra	b
      00067A CB 19                 1455 	rr	c
      00067C CB 28                 1456 	sra	b
      00067E CB 19                 1457 	rr	c
      000680 CB 28                 1458 	sra	b
      000682 CB 19                 1459 	rr	c
      000684 21r00r00              1460 	ld	hl, #_tile_pos_x
      000687 71                    1461 	ld	(hl), c
                                   1462 ;src/rooms/room_1_1.c:53: collision_buf[0] = 1; collision_buf[1] = 1;
      000688 21r00r00              1463 	ld	hl, #_collision_buf
      00068B 36 01                 1464 	ld	(hl), #0x01
      00068D 21r01r00              1465 	ld	hl, #(_collision_buf + 1)
      000690 36 01                 1466 	ld	(hl), #0x01
                                   1467 ;src/rooms/room_1_1.c:54: return;
      000692 C9                    1468 	ret
      000693                       1469 00104$:
                                   1470 ;src/rooms/room_1_1.c:57: get_v_coll(x, y);
      000693 F8 04                 1471 	ldhl	sp,	#4
      000695 2A                    1472 	ld	a, (hl+)
      000696 5F                    1473 	ld	e, a
      000697 56                    1474 	ld	d, (hl)
      000698 D5                    1475 	push	de
      000699 F8 04                 1476 	ldhl	sp,	#4
      00069B 2A                    1477 	ld	a, (hl+)
      00069C 5F                    1478 	ld	e, a
      00069D 56                    1479 	ld	d, (hl)
      00069E D5                    1480 	push	de
      00069F CDr00r00              1481 	call	_get_v_coll
      0006A2 E8 04                 1482 	add	sp, #4
                                   1483 ;src/rooms/room_1_1.c:58: }
      0006A4 C9                    1484 	ret
                                   1485 ;src/rooms/room_1_1.c:60: UBYTE cleaning_path(UBYTE tile_x, UBYTE tile_y, UBYTE id) {
                                   1486 ;	---------------------------------
                                   1487 ; Function cleaning_path
                                   1488 ; ---------------------------------
      0006A5                       1489 _cleaning_path::
                                   1490 ;src/rooms/room_1_1.c:62: if ((!path_cleaned) && (id == ID_PICKAXE)) {
      0006A5 FAr07r00              1491 	ld	a, (#_path_cleaned)
      0006A8 B7                    1492 	or	a, a
      0006A9 20 49                 1493 	jr	NZ, 00104$
      0006AB F8 04                 1494 	ldhl	sp,	#4
      0006AD 7E                    1495 	ld	a, (hl)
      0006AE 3D                    1496 	dec	a
      0006AF 20 43                 1497 	jr	NZ, 00104$
                                   1498 ;src/rooms/room_1_1.c:63: if (tile_x >= 14) {
      0006B1 F8 02                 1499 	ldhl	sp,	#2
      0006B3 7E                    1500 	ld	a, (hl)
      0006B4 D6 0E                 1501 	sub	a, #0x0e
      0006B6 38 3C                 1502 	jr	C, 00104$
                                   1503 ;src/rooms/room_1_1.c:64: show_dialog_window(2, &cleared_path);
      0006B8 11r00r00              1504 	ld	de, #_cleared_path
      0006BB D5                    1505 	push	de
      0006BC 3E 02                 1506 	ld	a, #0x02
      0006BE F5                    1507 	push	af
      0006BF 33                    1508 	inc	sp
      0006C0 CDr00r00              1509 	call	_show_dialog_window
      0006C3 E8 03                 1510 	add	sp, #3
                                   1511 ;src/rooms/room_1_1.c:66: pop_by_id(&game_item_list, ID_BOULDER0);
      0006C5 3E 0C                 1512 	ld	a, #0x0c
      0006C7 F5                    1513 	push	af
      0006C8 33                    1514 	inc	sp
      0006C9 11r00r00              1515 	ld	de, #_game_item_list
      0006CC D5                    1516 	push	de
      0006CD CDr00r00              1517 	call	_pop_by_id
      0006D0 E8 03                 1518 	add	sp, #3
                                   1519 ;src/rooms/room_1_1.c:67: pop_by_id(&game_item_list, ID_BOULDER1);
      0006D2 3E 0D                 1520 	ld	a, #0x0d
      0006D4 F5                    1521 	push	af
      0006D5 33                    1522 	inc	sp
      0006D6 11r00r00              1523 	ld	de, #_game_item_list
      0006D9 D5                    1524 	push	de
      0006DA CDr00r00              1525 	call	_pop_by_id
      0006DD E8 03                 1526 	add	sp, #3
                                   1527 ;src/rooms/room_1_1.c:68: pop_by_id(&game_item_list, ID_BOULDER2);
      0006DF 3E 0E                 1528 	ld	a, #0x0e
      0006E1 F5                    1529 	push	af
      0006E2 33                    1530 	inc	sp
      0006E3 11r00r00              1531 	ld	de, #_game_item_list
      0006E6 D5                    1532 	push	de
      0006E7 CDr00r00              1533 	call	_pop_by_id
      0006EA E8 03                 1534 	add	sp, #3
                                   1535 ;src/rooms/room_1_1.c:69: path_cleaned = 1;
      0006EC 21r07r00              1536 	ld	hl, #_path_cleaned
      0006EF 36 01                 1537 	ld	(hl), #0x01
                                   1538 ;src/rooms/room_1_1.c:70: return ID_ITEM_NONE;
      0006F1 1E 00                 1539 	ld	e, #0x00
      0006F3 C9                    1540 	ret
      0006F4                       1541 00104$:
                                   1542 ;src/rooms/room_1_1.c:73: return default_drop(id);
      0006F4 F8 04                 1543 	ldhl	sp,	#4
      0006F6 7E                    1544 	ld	a, (hl)
      0006F7 F5                    1545 	push	af
      0006F8 33                    1546 	inc	sp
      0006F9 CDr00r00              1547 	call	_default_drop
      0006FC 33                    1548 	inc	sp
                                   1549 ;src/rooms/room_1_1.c:74: }
      0006FD C9                    1550 	ret
                                   1551 ;src/rooms/room_2_1.c:12: void reset_room2() {
                                   1552 ;	---------------------------------
                                   1553 ; Function reset_room2
                                   1554 ; ---------------------------------
      0006FE                       1555 _reset_room2::
                                   1556 ;src/rooms/room_2_1.c:13: elevator_pos_y = elevator_min_y, elevator_dir = 1, elevator_move = 0, elevator_enabled = 0; dylan_negotiated = 0;
      0006FE 21r08r00              1557 	ld	hl, #_elevator_pos_y
      000701 36 18                 1558 	ld	(hl), #0x18
      000703 21r09r00              1559 	ld	hl, #_elevator_dir
      000706 36 01                 1560 	ld	(hl), #0x01
      000708 21r0Ar00              1561 	ld	hl, #_elevator_move
      00070B 36 00                 1562 	ld	(hl), #0x00
      00070D 21r0Br00              1563 	ld	hl, #_elevator_enabled
      000710 36 00                 1564 	ld	(hl), #0x00
      000712 21r0Cr00              1565 	ld	hl, #_dylan_negotiated
      000715 36 00                 1566 	ld	(hl), #0x00
                                   1567 ;src/rooms/room_2_1.c:14: }
      000717 C9                    1568 	ret
      000718                       1569 _elevator_map:
      000718 00                    1570 	.db #0x00	; 0
      000719 00                    1571 	.db #0x00	; 0
      00071A 00                    1572 	.db #0x00	; 0
      00071B 00                    1573 	.db #0x00	; 0
      00071C 00                    1574 	.db #0x00	; 0
      00071D 01                    1575 	.db #0x01	; 1
      00071E 02                    1576 	.db #0x02	; 2
      00071F 03                    1577 	.db #0x03	; 3
      000720 04                    1578 	.db #0x04	; 4
      000721 05                    1579 	.db #0x05	; 5
      000722 06                    1580 	.db #0x06	; 6
      000723 07                    1581 	.db #0x07	; 7
      000724 08                    1582 	.db #0x08	; 8
      000725                       1583 _elevator_offsets:
      000725 00                    1584 	.db #0x00	; 0
      000726 14                    1585 	.db #0x14	; 20
      000727 08                    1586 	.db #0x08	; 8
      000728 14                    1587 	.db #0x14	; 20
      000729 10                    1588 	.db #0x10	; 16
      00072A 14                    1589 	.db #0x14	; 20
      00072B 18                    1590 	.db #0x18	; 24
      00072C 14                    1591 	.db #0x14	; 20
      00072D 20                    1592 	.db #0x20	; 32
      00072E 14                    1593 	.db #0x14	; 20
      00072F 28                    1594 	.db #0x28	; 40
      000730 08                    1595 	.db #0x08	; 8
      000731 28                    1596 	.db #0x28	; 40
      000732 10                    1597 	.db #0x10	; 16
      000733 28                    1598 	.db #0x28	; 40
      000734 18                    1599 	.db #0x18	; 24
      000735 28                    1600 	.db #0x28	; 40
      000736 20                    1601 	.db #0x20	; 32
      000737 48                    1602 	.db #0x48	; 72	'H'
      000738 08                    1603 	.db #0x08	; 8
      000739 48                    1604 	.db #0x48	; 72	'H'
      00073A 10                    1605 	.db #0x10	; 16
      00073B 48                    1606 	.db #0x48	; 72	'H'
      00073C 18                    1607 	.db #0x18	; 24
      00073D 48                    1608 	.db #0x48	; 72	'H'
      00073E 20                    1609 	.db #0x20	; 32
                                   1610 ;src/rooms/room_2_1.c:15: void init_room2() {
                                   1611 ;	---------------------------------
                                   1612 ; Function init_room2
                                   1613 ; ---------------------------------
      00073F                       1614 _init_room2::
                                   1615 ;src/rooms/room_2_1.c:16: set_sprite_data(evil_sprites_tileoffset, current_room->raw_enemies_tiles->count, current_room->raw_enemies_tiles->data);
      00073F 21r00r00              1616 	ld	hl, #_current_room
      000742 2A                    1617 	ld	a, (hl+)
      000743 4F                    1618 	ld	c, a
      000744 46                    1619 	ld	b, (hl)
      000745 21 07 00              1620 	ld	hl, #0x0007
      000748 09                    1621 	add	hl, bc
      000749 2A                    1622 	ld	a, (hl+)
      00074A 4F                    1623 	ld	c, a
      00074B 46                    1624 	ld	b, (hl)
      00074C 59                    1625 	ld	e, c
      00074D 50                    1626 	ld	d, b
      00074E 13                    1627 	inc	de
      00074F 0A                    1628 	ld	a, (bc)
      000750 D5                    1629 	push	de
      000751 67                    1630 	ld	h, a
      000752 2E 09                 1631 	ld	l, #0x09
      000754 E5                    1632 	push	hl
      000755 CDr00r00              1633 	call	_set_sprite_data
      000758 E8 04                 1634 	add	sp, #4
                                   1635 ;src/rooms/room_2_1.c:17: for (__temp_i = 0; __temp_i < elevator_sprite_count; __temp_i++) 
      00075A 21r00r00              1636 	ld	hl, #___temp_i
      00075D 36 00                 1637 	ld	(hl), #0x00
      00075F                       1638 00103$:
                                   1639 ;src/rooms/room_2_1.c:18: set_sprite_tile(elevator_sprite_offset + __temp_i, evil_sprites_tileoffset + elevator_map[__temp_i]);
      00075F 3Er18                 1640 	ld	a, #<(_elevator_map)
      000761 21r00r00              1641 	ld	hl, #___temp_i
      000764 86                    1642 	add	a, (hl)
      000765 4F                    1643 	ld	c, a
      000766 3Es07                 1644 	ld	a, #>(_elevator_map)
      000768 CE 00                 1645 	adc	a, #0x00
      00076A 47                    1646 	ld	b, a
      00076B 0A                    1647 	ld	a, (bc)
      00076C C6 09                 1648 	add	a, #0x09
      00076E 4F                    1649 	ld	c, a
      00076F 7E                    1650 	ld	a, (hl)
      000770 C6 09                 1651 	add	a, #0x09
                                   1652 ;c:/gb/gbdk/include/gb/gb.h:1185: shadow_OAM[nb].tile=tile;
      000772 6F                    1653 	ld	l, a
                                   1654 ;	spillPairReg hl
                                   1655 ;	spillPairReg hl
      000773 26 00                 1656 	ld	h, #0x00
                                   1657 ;	spillPairReg hl
                                   1658 ;	spillPairReg hl
      000775 29                    1659 	add	hl, hl
      000776 29                    1660 	add	hl, hl
      000777 11r00r00              1661 	ld	de, #_shadow_OAM
      00077A 19                    1662 	add	hl, de
      00077B 23                    1663 	inc	hl
      00077C 23                    1664 	inc	hl
      00077D 71                    1665 	ld	(hl), c
                                   1666 ;src/rooms/room_2_1.c:17: for (__temp_i = 0; __temp_i < elevator_sprite_count; __temp_i++) 
      00077E 21r00r00              1667 	ld	hl, #___temp_i
      000781 34                    1668 	inc	(hl)
      000782 7E                    1669 	ld	a, (hl)
      000783 D6 0D                 1670 	sub	a, #0x0d
      000785 38 D8                 1671 	jr	C, 00103$
                                   1672 ;src/rooms/room_2_1.c:19: }
      000787 C9                    1673 	ret
                                   1674 ;src/rooms/room_2_1.c:20: void move_elevator() {
                                   1675 ;	---------------------------------
                                   1676 ; Function move_elevator
                                   1677 ; ---------------------------------
      000788                       1678 _move_elevator::
                                   1679 ;src/rooms/room_2_1.c:21: if (elevator_enabled) {
      000788 FAr0Br00              1680 	ld	a, (#_elevator_enabled)
      00078B B7                    1681 	or	a, a
      00078C C8                    1682 	ret	Z
                                   1683 ;src/rooms/room_2_1.c:22: elevator_move++; elevator_move &= 1;
      00078D 21r0Ar00              1684 	ld	hl, #_elevator_move
      000790 34                    1685 	inc	(hl)
      000791 7E                    1686 	ld	a, (hl)
      000792 E6 01                 1687 	and	a, #0x01
                                   1688 ;src/rooms/room_2_1.c:23: if (!elevator_move) {
      000794 77                    1689 	ld	(hl), a
      000795 B7                    1690 	or	a, a
      000796 C0                    1691 	ret	NZ
                                   1692 ;src/rooms/room_2_1.c:24: if (elevator_dir) {
      000797 FAr09r00              1693 	ld	a, (#_elevator_dir)
      00079A B7                    1694 	or	a, a
      00079B 28 0E                 1695 	jr	Z, 00106$
                                   1696 ;src/rooms/room_2_1.c:25: elevator_pos_y++; if (elevator_pos_y >= elevator_max_y) elevator_dir = 0;
      00079D 21r08r00              1697 	ld	hl, #_elevator_pos_y
      0007A0 34                    1698 	inc	(hl)
      0007A1 7E                    1699 	ld	a, (hl)
      0007A2 D6 48                 1700 	sub	a, #0x48
      0007A4 D8                    1701 	ret	C
      0007A5 21r09r00              1702 	ld	hl, #_elevator_dir
      0007A8 36 00                 1703 	ld	(hl), #0x00
      0007AA C9                    1704 	ret
      0007AB                       1705 00106$:
                                   1706 ;src/rooms/room_2_1.c:27: elevator_pos_y--; if (elevator_pos_y <= elevator_min_y) elevator_dir = 1;
      0007AB 21r08r00              1707 	ld	hl, #_elevator_pos_y
      0007AE 35                    1708 	dec	(hl)
      0007AF 3E 18                 1709 	ld	a, #0x18
      0007B1 96                    1710 	sub	a, (hl)
      0007B2 D8                    1711 	ret	C
      0007B3 21r09r00              1712 	ld	hl, #_elevator_dir
      0007B6 36 01                 1713 	ld	(hl), #0x01
                                   1714 ;src/rooms/room_2_1.c:31: }
      0007B8 C9                    1715 	ret
                                   1716 ;src/rooms/room_2_1.c:32: void draw_elevator() {
                                   1717 ;	---------------------------------
                                   1718 ; Function draw_elevator
                                   1719 ; ---------------------------------
      0007B9                       1720 _draw_elevator::
                                   1721 ;src/rooms/room_2_1.c:33: if (!elevator_move) {
      0007B9 FAr0Ar00              1722 	ld	a, (#_elevator_move)
      0007BC B7                    1723 	or	a, a
      0007BD C0                    1724 	ret	NZ
                                   1725 ;src/rooms/room_2_1.c:36: (unsigned char *)elevator_offsets);
                                   1726 ;src/rooms/room_2_1.c:35: elevator_pos_x - bkg_scroll_x_target, elevator_pos_y - bkg_scroll_y_target, 
      0007BE FAr08r00              1727 	ld	a, (#_elevator_pos_y)
      0007C1 21r00r00              1728 	ld	hl, #_bkg_scroll_y_target
      0007C4 96                    1729 	sub	a, (hl)
      0007C5 47                    1730 	ld	b, a
      0007C6 3E 78                 1731 	ld	a, #0x78
      0007C8 21r00r00              1732 	ld	hl, #_bkg_scroll_x_target
      0007CB 96                    1733 	sub	a, (hl)
                                   1734 ;src/rooms/room_2_1.c:34: multiple_move_sprites(elevator_sprite_offset, elevator_sprite_count, 
      0007CC 11r25r07              1735 	ld	de, #_elevator_offsets
      0007CF D5                    1736 	push	de
      0007D0 C5                    1737 	push	bc
      0007D1 33                    1738 	inc	sp
      0007D2 67                    1739 	ld	h, a
      0007D3 2E 0D                 1740 	ld	l, #0x0d
      0007D5 E5                    1741 	push	hl
      0007D6 3E 09                 1742 	ld	a, #0x09
      0007D8 F5                    1743 	push	af
      0007D9 33                    1744 	inc	sp
      0007DA CDr00r00              1745 	call	_multiple_move_sprites
      0007DD E8 06                 1746 	add	sp, #6
                                   1747 ;src/rooms/room_2_1.c:38: }
      0007DF C9                    1748 	ret
                                   1749 ;src/rooms/room_2_1.c:39: void hcoll_elevator(WORD x, WORD y) {
                                   1750 ;	---------------------------------
                                   1751 ; Function hcoll_elevator
                                   1752 ; ---------------------------------
      0007E0                       1753 _hcoll_elevator::
      0007E0 3B                    1754 	dec	sp
      0007E1 3B                    1755 	dec	sp
                                   1756 ;src/rooms/room_2_1.c:40: if ((elevator_enabled) && (delta_y >= 0)) {
      0007E2 FAr0Br00              1757 	ld	a, (#_elevator_enabled)
      0007E5 B7                    1758 	or	a, a
      0007E6 CArEEr08              1759 	jp	Z, 00113$
      0007E9 FAr01r00              1760 	ld	a, (#_delta_y + 1)
      0007EC CB 7F                 1761 	bit	7, a
      0007EE C2rEEr08              1762 	jp	NZ, 00113$
                                   1763 ;src/rooms/room_2_1.c:41: if ((x >= elevator_pos_x - 8) && (x <= elevator_pos_x + (3 * 8))) {
      0007F1 F8 04                 1764 	ldhl	sp,	#4
      0007F3 2A                    1765 	ld	a, (hl+)
      0007F4 D6 70                 1766 	sub	a, #0x70
      0007F6 7E                    1767 	ld	a, (hl)
      0007F7 DE 00                 1768 	sbc	a, #0x00
      0007F9 56                    1769 	ld	d, (hl)
      0007FA 3E 00                 1770 	ld	a, #0x00
      0007FC CB 7F                 1771 	bit	7,a
      0007FE 28 07                 1772 	jr	Z, 00157$
      000800 CB 7A                 1773 	bit	7, d
      000802 20 08                 1774 	jr	NZ, 00158$
      000804 BF                    1775 	cp	a, a
      000805 18 05                 1776 	jr	00158$
      000807                       1777 00157$:
      000807 CB 7A                 1778 	bit	7, d
      000809 28 01                 1779 	jr	Z, 00158$
      00080B 37                    1780 	scf
      00080C                       1781 00158$:
      00080C DArEEr08              1782 	jp	C, 00113$
      00080F F8 04                 1783 	ldhl	sp,	#4
      000811 3E 90                 1784 	ld	a, #0x90
      000813 96                    1785 	sub	a, (hl)
      000814 23                    1786 	inc	hl
      000815 3E 00                 1787 	ld	a, #0x00
      000817 9E                    1788 	sbc	a, (hl)
      000818 3E 00                 1789 	ld	a, #0x00
      00081A 57                    1790 	ld	d, a
      00081B CB 7E                 1791 	bit	7, (hl)
      00081D 28 07                 1792 	jr	Z, 00159$
      00081F CB 7A                 1793 	bit	7, d
      000821 20 08                 1794 	jr	NZ, 00160$
      000823 BF                    1795 	cp	a, a
      000824 18 05                 1796 	jr	00160$
      000826                       1797 00159$:
      000826 CB 7A                 1798 	bit	7, d
      000828 28 01                 1799 	jr	Z, 00160$
      00082A 37                    1800 	scf
      00082B                       1801 00160$:
      00082B DArEEr08              1802 	jp	C, 00113$
                                   1803 ;src/rooms/room_2_1.c:42: if ((y >= elevator_pos_y + ((4 * 8) - 1)) && (y <= elevator_pos_y + ((4 * 8) + 7))) {
      00082E 21r08r00              1804 	ld	hl, #_elevator_pos_y
      000831 4E                    1805 	ld	c, (hl)
      000832 06 00                 1806 	ld	b, #0x00
      000834 21 1F 00              1807 	ld	hl, #0x001f
      000837 09                    1808 	add	hl, bc
      000838 33                    1809 	inc	sp
      000839 33                    1810 	inc	sp
      00083A E5                    1811 	push	hl
      00083B F8 06                 1812 	ldhl	sp,	#6
      00083D 5D                    1813 	ld	e, l
      00083E 54                    1814 	ld	d, h
      00083F F8 00                 1815 	ldhl	sp,	#0
      000841 1A                    1816 	ld	a, (de)
      000842 13                    1817 	inc	de
      000843 96                    1818 	sub	a, (hl)
      000844 23                    1819 	inc	hl
      000845 1A                    1820 	ld	a, (de)
      000846 9E                    1821 	sbc	a, (hl)
      000847 1A                    1822 	ld	a, (de)
      000848 57                    1823 	ld	d, a
      000849 CB 7E                 1824 	bit	7, (hl)
      00084B 28 07                 1825 	jr	Z, 00161$
      00084D CB 7A                 1826 	bit	7, d
      00084F 20 08                 1827 	jr	NZ, 00162$
      000851 BF                    1828 	cp	a, a
      000852 18 05                 1829 	jr	00162$
      000854                       1830 00161$:
      000854 CB 7A                 1831 	bit	7, d
      000856 28 01                 1832 	jr	Z, 00162$
      000858 37                    1833 	scf
      000859                       1834 00162$:
      000859 DArEEr08              1835 	jp	C, 00113$
      00085C 21 27 00              1836 	ld	hl, #0x0027
      00085F 09                    1837 	add	hl, bc
      000860 4D                    1838 	ld	c, l
      000861 44                    1839 	ld	b, h
      000862 F8 06                 1840 	ldhl	sp,	#6
      000864 79                    1841 	ld	a, c
      000865 96                    1842 	sub	a, (hl)
      000866 23                    1843 	inc	hl
      000867 78                    1844 	ld	a, b
      000868 9E                    1845 	sbc	a, (hl)
      000869 78                    1846 	ld	a, b
      00086A 57                    1847 	ld	d, a
      00086B CB 7E                 1848 	bit	7, (hl)
      00086D 28 07                 1849 	jr	Z, 00163$
      00086F CB 7A                 1850 	bit	7, d
      000871 20 08                 1851 	jr	NZ, 00164$
      000873 BF                    1852 	cp	a, a
      000874 18 05                 1853 	jr	00164$
      000876                       1854 00163$:
      000876 CB 7A                 1855 	bit	7, d
      000878 28 01                 1856 	jr	Z, 00164$
      00087A 37                    1857 	scf
      00087B                       1858 00164$:
      00087B 38 71                 1859 	jr	C, 00113$
                                   1860 ;src/rooms/room_2_1.c:43: tile_pos_x = x >> 3; tile_pos_ox = x & 7;
      00087D F8 04                 1861 	ldhl	sp,#4
      00087F 2A                    1862 	ld	a, (hl+)
      000880 4F                    1863 	ld	c, a
      000881 46                    1864 	ld	b, (hl)
      000882 CB 28                 1865 	sra	b
      000884 CB 19                 1866 	rr	c
      000886 CB 28                 1867 	sra	b
      000888 CB 19                 1868 	rr	c
      00088A CB 28                 1869 	sra	b
      00088C CB 19                 1870 	rr	c
      00088E 21r00r00              1871 	ld	hl, #_tile_pos_x
      000891 71                    1872 	ld	(hl), c
      000892 F8 04                 1873 	ldhl	sp,	#4
      000894 7E                    1874 	ld	a, (hl)
      000895 E6 07                 1875 	and	a, #0x07
      000897 EAr00r00              1876 	ld	(#_tile_pos_ox),a
                                   1877 ;src/rooms/room_2_1.c:44: tile_pos_y = y >> 3; tile_pos_oy = (y - elevator_pos_y) & 7;
      00089A F8 06                 1878 	ldhl	sp,#6
      00089C 2A                    1879 	ld	a, (hl+)
      00089D 4F                    1880 	ld	c, a
      00089E 46                    1881 	ld	b, (hl)
      00089F CB 28                 1882 	sra	b
      0008A1 CB 19                 1883 	rr	c
      0008A3 CB 28                 1884 	sra	b
      0008A5 CB 19                 1885 	rr	c
      0008A7 CB 28                 1886 	sra	b
      0008A9 CB 19                 1887 	rr	c
      0008AB 21r00r00              1888 	ld	hl, #_tile_pos_y
      0008AE 71                    1889 	ld	(hl), c
      0008AF F8 06                 1890 	ldhl	sp,	#6
      0008B1 7E                    1891 	ld	a, (hl)
      0008B2 21r08r00              1892 	ld	hl, #_elevator_pos_y
      0008B5 4E                    1893 	ld	c, (hl)
      0008B6 91                    1894 	sub	a, c
      0008B7 E6 07                 1895 	and	a, #0x07
      0008B9 EAr00r00              1896 	ld	(#_tile_pos_oy),a
                                   1897 ;src/rooms/room_2_1.c:45: collision_buf[0] = 1; collision_buf[1] = 1; collision_buf[2] = 0;
      0008BC 21r00r00              1898 	ld	hl, #_collision_buf
      0008BF 36 01                 1899 	ld	(hl), #0x01
      0008C1 21r01r00              1900 	ld	hl, #(_collision_buf + 1)
      0008C4 36 01                 1901 	ld	(hl), #0x01
      0008C6 21r02r00              1902 	ld	hl, #(_collision_buf + 2)
      0008C9 36 00                 1903 	ld	(hl), #0x00
                                   1904 ;src/rooms/room_2_1.c:46: if (!elevator_move) {
      0008CB FAr0Ar00              1905 	ld	a, (#_elevator_move)
      0008CE B7                    1906 	or	a, a
      0008CF 20 16                 1907 	jr	NZ, 00105$
                                   1908 ;src/rooms/room_2_1.c:47: if (!elevator_dir) delta_y = -1; else delta_y = 0;
      0008D1 FAr09r00              1909 	ld	a, (#_elevator_dir)
      0008D4 B7                    1910 	or	a, a
      0008D5 20 0A                 1911 	jr	NZ, 00102$
      0008D7 21r00r00              1912 	ld	hl, #_delta_y
      0008DA 3E FF                 1913 	ld	a, #0xff
      0008DC 22                    1914 	ld	(hl+), a
      0008DD 36 FF                 1915 	ld	(hl), #0xff
      0008DF 18 06                 1916 	jr	00105$
      0008E1                       1917 00102$:
      0008E1 AF                    1918 	xor	a, a
      0008E2 21r00r00              1919 	ld	hl, #_delta_y
      0008E5 22                    1920 	ld	(hl+), a
      0008E6 77                    1921 	ld	(hl), a
      0008E7                       1922 00105$:
                                   1923 ;src/rooms/room_2_1.c:49: is_position_safe = 0;
      0008E7 21r00r00              1924 	ld	hl, #_is_position_safe
      0008EA 36 00                 1925 	ld	(hl), #0x00
                                   1926 ;src/rooms/room_2_1.c:50: return;
      0008EC 18 11                 1927 	jr	00115$
      0008EE                       1928 00113$:
                                   1929 ;src/rooms/room_2_1.c:54: get_h_coll(x, y);
      0008EE F8 06                 1930 	ldhl	sp,	#6
      0008F0 2A                    1931 	ld	a, (hl+)
      0008F1 5F                    1932 	ld	e, a
      0008F2 56                    1933 	ld	d, (hl)
      0008F3 D5                    1934 	push	de
      0008F4 F8 06                 1935 	ldhl	sp,	#6
      0008F6 2A                    1936 	ld	a, (hl+)
      0008F7 5F                    1937 	ld	e, a
      0008F8 56                    1938 	ld	d, (hl)
      0008F9 D5                    1939 	push	de
      0008FA CDr00r00              1940 	call	_get_h_coll
      0008FD E8 04                 1941 	add	sp, #4
      0008FF                       1942 00115$:
                                   1943 ;src/rooms/room_2_1.c:55: }
      0008FF 33                    1944 	inc	sp
      000900 33                    1945 	inc	sp
      000901 C9                    1946 	ret
                                   1947 ;src/rooms/room_2_1.c:57: void vcoll_dylan(WORD x, WORD y) {
                                   1948 ;	---------------------------------
                                   1949 ; Function vcoll_dylan
                                   1950 ; ---------------------------------
      000902                       1951 _vcoll_dylan::
                                   1952 ;src/rooms/room_2_1.c:58: if (!dylan_negotiated) {
      000902 FAr0Cr00              1953 	ld	a, (#_dylan_negotiated)
      000905 B7                    1954 	or	a, a
      000906 20 6B                 1955 	jr	NZ, 00106$
                                   1956 ;src/rooms/room_2_1.c:59: if ((x > (21 * 8)) && (x < (24 * 8)) && (y > (10 * 8))) {
      000908 F8 02                 1957 	ldhl	sp,	#2
      00090A 3E A8                 1958 	ld	a, #0xa8
      00090C 96                    1959 	sub	a, (hl)
      00090D 23                    1960 	inc	hl
      00090E 3E 00                 1961 	ld	a, #0x00
      000910 9E                    1962 	sbc	a, (hl)
      000911 3E 00                 1963 	ld	a, #0x00
      000913 57                    1964 	ld	d, a
      000914 CB 7E                 1965 	bit	7, (hl)
      000916 28 07                 1966 	jr	Z, 00129$
      000918 CB 7A                 1967 	bit	7, d
      00091A 20 08                 1968 	jr	NZ, 00130$
      00091C BF                    1969 	cp	a, a
      00091D 18 05                 1970 	jr	00130$
      00091F                       1971 00129$:
      00091F CB 7A                 1972 	bit	7, d
      000921 28 01                 1973 	jr	Z, 00130$
      000923 37                    1974 	scf
      000924                       1975 00130$:
      000924 30 4D                 1976 	jr	NC, 00106$
      000926 F8 02                 1977 	ldhl	sp,	#2
      000928 2A                    1978 	ld	a, (hl+)
      000929 D6 C0                 1979 	sub	a, #0xc0
      00092B 7E                    1980 	ld	a, (hl)
      00092C DE 00                 1981 	sbc	a, #0x00
      00092E 56                    1982 	ld	d, (hl)
      00092F 3E 00                 1983 	ld	a, #0x00
      000931 CB 7F                 1984 	bit	7,a
      000933 28 07                 1985 	jr	Z, 00131$
      000935 CB 7A                 1986 	bit	7, d
      000937 20 08                 1987 	jr	NZ, 00132$
      000939 BF                    1988 	cp	a, a
      00093A 18 05                 1989 	jr	00132$
      00093C                       1990 00131$:
      00093C CB 7A                 1991 	bit	7, d
      00093E 28 01                 1992 	jr	Z, 00132$
      000940 37                    1993 	scf
      000941                       1994 00132$:
      000941 30 30                 1995 	jr	NC, 00106$
      000943 F8 04                 1996 	ldhl	sp,	#4
      000945 3E 50                 1997 	ld	a, #0x50
      000947 96                    1998 	sub	a, (hl)
      000948 23                    1999 	inc	hl
      000949 3E 00                 2000 	ld	a, #0x00
      00094B 9E                    2001 	sbc	a, (hl)
      00094C 3E 00                 2002 	ld	a, #0x00
      00094E 57                    2003 	ld	d, a
      00094F CB 7E                 2004 	bit	7, (hl)
      000951 28 07                 2005 	jr	Z, 00133$
      000953 CB 7A                 2006 	bit	7, d
      000955 20 08                 2007 	jr	NZ, 00134$
      000957 BF                    2008 	cp	a, a
      000958 18 05                 2009 	jr	00134$
      00095A                       2010 00133$:
      00095A CB 7A                 2011 	bit	7, d
      00095C 28 01                 2012 	jr	Z, 00134$
      00095E 37                    2013 	scf
      00095F                       2014 00134$:
      00095F 30 12                 2015 	jr	NC, 00106$
                                   2016 ;src/rooms/room_2_1.c:60: show_dialog_window(6, &dylan_dialog);
      000961 11r00r00              2017 	ld	de, #_dylan_dialog
      000964 D5                    2018 	push	de
      000965 3E 06                 2019 	ld	a, #0x06
      000967 F5                    2020 	push	af
      000968 33                    2021 	inc	sp
      000969 CDr00r00              2022 	call	_show_dialog_window
      00096C E8 03                 2023 	add	sp, #3
                                   2024 ;src/rooms/room_2_1.c:61: dylan_negotiated = 1;
      00096E 21r0Cr00              2025 	ld	hl, #_dylan_negotiated
      000971 36 01                 2026 	ld	(hl), #0x01
      000973                       2027 00106$:
                                   2028 ;src/rooms/room_2_1.c:64: get_v_coll(x, y);
      000973 F8 04                 2029 	ldhl	sp,	#4
      000975 2A                    2030 	ld	a, (hl+)
      000976 5F                    2031 	ld	e, a
      000977 56                    2032 	ld	d, (hl)
      000978 D5                    2033 	push	de
      000979 F8 04                 2034 	ldhl	sp,	#4
      00097B 2A                    2035 	ld	a, (hl+)
      00097C 5F                    2036 	ld	e, a
      00097D 56                    2037 	ld	d, (hl)
      00097E D5                    2038 	push	de
      00097F CDr00r00              2039 	call	_get_v_coll
      000982 E8 04                 2040 	add	sp, #4
                                   2041 ;src/rooms/room_2_1.c:65: }
      000984 C9                    2042 	ret
                                   2043 ;src/rooms/room_2_1.c:67: UBYTE dylan_gets_key(UBYTE tile_x, UBYTE tile_y, UBYTE id) {
                                   2044 ;	---------------------------------
                                   2045 ; Function dylan_gets_key
                                   2046 ; ---------------------------------
      000985                       2047 _dylan_gets_key::
                                   2048 ;src/rooms/room_2_1.c:68: if ((!elevator_enabled) && (id == ID_KEY)) {
      000985 FAr0Br00              2049 	ld	a, (#_elevator_enabled)
      000988 B7                    2050 	or	a, a
      000989 20 34                 2051 	jr	NZ, 00106$
      00098B F8 04                 2052 	ldhl	sp,	#4
      00098D 7E                    2053 	ld	a, (hl)
      00098E D6 02                 2054 	sub	a, #0x02
      000990 20 2D                 2055 	jr	NZ, 00106$
                                   2056 ;src/rooms/room_2_1.c:69: if ((tile_y == 12) && (tile_x > 19) && (tile_x < 24)) {
      000992 F8 03                 2057 	ldhl	sp,	#3
      000994 7E                    2058 	ld	a, (hl)
      000995 D6 0C                 2059 	sub	a, #0x0c
      000997 20 26                 2060 	jr	NZ, 00106$
      000999 3E 13                 2061 	ld	a, #0x13
      00099B F8 02                 2062 	ldhl	sp,	#2
      00099D 96                    2063 	sub	a, (hl)
      00099E 30 1F                 2064 	jr	NC, 00106$
      0009A0 7E                    2065 	ld	a, (hl)
      0009A1 D6 18                 2066 	sub	a, #0x18
      0009A3 30 1A                 2067 	jr	NC, 00106$
                                   2068 ;src/rooms/room_2_1.c:70: show_dialog_window(4, &dylan_thanks);
      0009A5 11r00r00              2069 	ld	de, #_dylan_thanks
      0009A8 D5                    2070 	push	de
      0009A9 3E 04                 2071 	ld	a, #0x04
      0009AB F5                    2072 	push	af
      0009AC 33                    2073 	inc	sp
      0009AD CDr00r00              2074 	call	_show_dialog_window
      0009B0 E8 03                 2075 	add	sp, #3
                                   2076 ;src/rooms/room_2_1.c:71: elevator_enabled = 1;
      0009B2 21r0Br00              2077 	ld	hl, #_elevator_enabled
      0009B5 36 01                 2078 	ld	(hl), #0x01
                                   2079 ;src/rooms/room_2_1.c:72: dylan_negotiated = 1;
      0009B7 21r0Cr00              2080 	ld	hl, #_dylan_negotiated
      0009BA 36 01                 2081 	ld	(hl), #0x01
                                   2082 ;src/rooms/room_2_1.c:73: return ID_ITEM_USED;
      0009BC 1E 0F                 2083 	ld	e, #0x0f
      0009BE C9                    2084 	ret
      0009BF                       2085 00106$:
                                   2086 ;src/rooms/room_2_1.c:76: return default_drop(id);
      0009BF F8 04                 2087 	ldhl	sp,	#4
      0009C1 7E                    2088 	ld	a, (hl)
      0009C2 F5                    2089 	push	af
      0009C3 33                    2090 	inc	sp
      0009C4 CDr00r00              2091 	call	_default_drop
      0009C7 33                    2092 	inc	sp
                                   2093 ;src/rooms/room_2_1.c:77: }
      0009C8 C9                    2094 	ret
                                   2095 	.area _CODE_4
      0009C9                       2096 _room_0_1_map:
      0009C9 51 01                 2097 	.dw #0x0151
      0009CB 01                    2098 	.db #0x01	; 1
      0009CC 02                    2099 	.db #0x02	; 2
      0009CD 03                    2100 	.db #0x03	; 3
      0009CE 04                    2101 	.db #0x04	; 4
      0009CF 05                    2102 	.db #0x05	; 5
      0009D0 06                    2103 	.db #0x06	; 6
      0009D1 07                    2104 	.db #0x07	; 7
      0009D2 08                    2105 	.db #0x08	; 8
      0009D3 09                    2106 	.db #0x09	; 9
      0009D4 0A                    2107 	.db #0x0a	; 10
      0009D5 0B                    2108 	.db #0x0b	; 11
      0009D6 0C                    2109 	.db #0x0c	; 12
      0009D7 0D                    2110 	.db #0x0d	; 13
      0009D8 0E                    2111 	.db #0x0e	; 14
      0009D9 0F                    2112 	.db #0x0f	; 15
      0009DA 10                    2113 	.db #0x10	; 16
      0009DB 11                    2114 	.db #0x11	; 17
      0009DC 12                    2115 	.db #0x12	; 18
      0009DD 13                    2116 	.db #0x13	; 19
      0009DE 01                    2117 	.db #0x01	; 1
      0009DF 02                    2118 	.db #0x02	; 2
      0009E0 12                    2119 	.db #0x12	; 18
      0009E1 13                    2120 	.db #0x13	; 19
      0009E2 C4                    2121 	.db #0xc4	; 196
      0009E3 00                    2122 	.db #0x00	; 0
      0009E4 0B                    2123 	.db #0x0b	; 11
      0009E5 0C                    2124 	.db #0x0c	; 12
      0009E6 0D                    2125 	.db #0x0d	; 13
      0009E7 08                    2126 	.db #0x08	; 8
      0009E8 09                    2127 	.db #0x09	; 9
      0009E9 0A                    2128 	.db #0x0a	; 10
      0009EA 14                    2129 	.db #0x14	; 20
      0009EB 15                    2130 	.db #0x15	; 21
      0009EC 16                    2131 	.db #0x16	; 22
      0009ED 17                    2132 	.db #0x17	; 23
      0009EE 0F                    2133 	.db #0x0f	; 15
      0009EF 10                    2134 	.db #0x10	; 16
      0009F0 11                    2135 	.db #0x11	; 17
      0009F1 18                    2136 	.db #0x18	; 24
      0009F2 19                    2137 	.db #0x19	; 25
      0009F3 1A                    2138 	.db #0x1a	; 26
      0009F4 1B                    2139 	.db #0x1b	; 27
      0009F5 1C                    2140 	.db #0x1c	; 28
      0009F6 1D                    2141 	.db #0x1d	; 29
      0009F7 1E                    2142 	.db #0x1e	; 30
      0009F8 03                    2143 	.db #0x03	; 3
      0009F9 1F                    2144 	.db #0x1f	; 31
      0009FA 20                    2145 	.db #0x20	; 32
      0009FB 21                    2146 	.db #0x21	; 33
      0009FC 03                    2147 	.db #0x03	; 3
      0009FD 1F                    2148 	.db #0x1f	; 31
      0009FE C4                    2149 	.db #0xc4	; 196
      0009FF 00                    2150 	.db #0x00	; 0
      000A00 18                    2151 	.db #0x18	; 24
      000A01 19                    2152 	.db #0x19	; 25
      000A02 1A                    2153 	.db #0x1a	; 26
      000A03 0F                    2154 	.db #0x0f	; 15
      000A04 10                    2155 	.db #0x10	; 16
      000A05 11                    2156 	.db #0x11	; 17
      000A06 22                    2157 	.db #0x22	; 34
      000A07 1D                    2158 	.db #0x1d	; 29
      000A08 1E                    2159 	.db #0x1e	; 30
      000A09 23                    2160 	.db #0x23	; 35
      000A0A 1C                    2161 	.db #0x1c	; 28
      000A0B 1D                    2162 	.db #0x1d	; 29
      000A0C 1E                    2163 	.db #0x1e	; 30
      000A0D 24                    2164 	.db #0x24	; 36
      000A0E 01                    2165 	.db #0x01	; 1
      000A0F 02                    2166 	.db #0x02	; 2
      000A10 07                    2167 	.db #0x07	; 7
      000A11 25                    2168 	.db #0x25	; 37
      000A12 26                    2169 	.db #0x26	; 38
      000A13 27                    2170 	.db #0x27	; 39
      000A14 01                    2171 	.db #0x01	; 1
      000A15 02                    2172 	.db #0x02	; 2
      000A16 28                    2173 	.db #0x28	; 40
      000A17 29                    2174 	.db #0x29	; 41
      000A18 2A                    2175 	.db #0x2a	; 42
      000A19 2B                    2176 	.db #0x2b	; 43
      000A1A C5                    2177 	.db #0xc5	; 197
      000A1B 00                    2178 	.db #0x00	; 0
      000A1C 2C                    2179 	.db #0x2c	; 44
      000A1D 24                    2180 	.db #0x24	; 36
      000A1E 1C                    2181 	.db #0x1c	; 28
      000A1F 1D                    2182 	.db #0x1d	; 29
      000A20 2D                    2183 	.db #0x2d	; 45
      000A21 13                    2184 	.db #0x13	; 19
      000A22 2E                    2185 	.db #0x2e	; 46
      000A23 C7                    2186 	.db #0xc7	; 199
      000A24 00                    2187 	.db #0x00	; 0
      000A25 2F                    2188 	.db #0x2f	; 47
      000A26 2E                    2189 	.db #0x2e	; 46
      000A27 30                    2190 	.db #0x30	; 48	'0'
      000A28 31                    2191 	.db #0x31	; 49	'1'
      000A29 32                    2192 	.db #0x32	; 50	'2'
      000A2A 08                    2193 	.db #0x08	; 8
      000A2B 09                    2194 	.db #0x09	; 9
      000A2C 0A                    2195 	.db #0x0a	; 10
      000A2D 33                    2196 	.db #0x33	; 51	'3'
      000A2E 34                    2197 	.db #0x34	; 52	'4'
      000A2F 35                    2198 	.db #0x35	; 53	'5'
      000A30 C5                    2199 	.db #0xc5	; 197
      000A31 00                    2200 	.db #0x00	; 0
      000A32 36                    2201 	.db #0x36	; 54	'6'
      000A33 37                    2202 	.db #0x37	; 55	'7'
      000A34 20                    2203 	.db #0x20	; 32
      000A35 21                    2204 	.db #0x21	; 33
      000A36 03                    2205 	.db #0x03	; 3
      000A37 1F                    2206 	.db #0x1f	; 31
      000A38 38                    2207 	.db #0x38	; 56	'8'
      000A39 C3                    2208 	.db #0xc3	; 195
      000A3A 00                    2209 	.db #0x00	; 0
      000A3B 39                    2210 	.db #0x39	; 57	'9'
      000A3C 3A                    2211 	.db #0x3a	; 58
      000A3D 3B                    2212 	.db #0x3b	; 59
      000A3E 3C                    2213 	.db #0x3c	; 60
      000A3F 00                    2214 	.db #0x00	; 0
      000A40 38                    2215 	.db #0x38	; 56	'8'
      000A41 3D                    2216 	.db #0x3d	; 61
      000A42 3E                    2217 	.db #0x3e	; 62
      000A43 3F                    2218 	.db #0x3f	; 63
      000A44 0F                    2219 	.db #0x0f	; 15
      000A45 10                    2220 	.db #0x10	; 16
      000A46 11                    2221 	.db #0x11	; 17
      000A47 40                    2222 	.db #0x40	; 64
      000A48 41                    2223 	.db #0x41	; 65	'A'
      000A49 42                    2224 	.db #0x42	; 66	'B'
      000A4A C5                    2225 	.db #0xc5	; 197
      000A4B 00                    2226 	.db #0x00	; 0
      000A4C 43                    2227 	.db #0x43	; 67	'C'
      000A4D 00                    2228 	.db #0x00	; 0
      000A4E 28                    2229 	.db #0x28	; 40
      000A4F 29                    2230 	.db #0x29	; 41
      000A50 44                    2231 	.db #0x44	; 68	'D'
      000A51 C5                    2232 	.db #0xc5	; 197
      000A52 00                    2233 	.db #0x00	; 0
      000A53 45                    2234 	.db #0x45	; 69	'E'
      000A54 46                    2235 	.db #0x46	; 70	'F'
      000A55 47                    2236 	.db #0x47	; 71	'G'
      000A56 48                    2237 	.db #0x48	; 72	'H'
      000A57 C3                    2238 	.db #0xc3	; 195
      000A58 00                    2239 	.db #0x00	; 0
      000A59 2F                    2240 	.db #0x2f	; 47
      000A5A 07                    2241 	.db #0x07	; 7
      000A5B 1C                    2242 	.db #0x1c	; 28
      000A5C 1D                    2243 	.db #0x1d	; 29
      000A5D 1E                    2244 	.db #0x1e	; 30
      000A5E 49                    2245 	.db #0x49	; 73	'I'
      000A5F C9                    2246 	.db #0xc9	; 201
      000A60 00                    2247 	.db #0x00	; 0
      000A61 07                    2248 	.db #0x07	; 7
      000A62 44                    2249 	.db #0x44	; 68	'D'
      000A63 4A                    2250 	.db #0x4a	; 74	'J'
      000A64 DB                    2251 	.db #0xdb	; 219
      000A65 00                    2252 	.db #0x00	; 0
      000A66 21                    2253 	.db #0x21	; 33
      000A67 4A                    2254 	.db #0x4a	; 74	'J'
      000A68 DC                    2255 	.db #0xdc	; 220
      000A69 00                    2256 	.db #0x00	; 0
      000A6A 29                    2257 	.db #0x29	; 41
      000A6B C6                    2258 	.db #0xc6	; 198
      000A6C 00                    2259 	.db #0x00	; 0
      000A6D 4B                    2260 	.db #0x4b	; 75	'K'
      000A6E 4C                    2261 	.db #0x4c	; 76	'L'
      000A6F 4D                    2262 	.db #0x4d	; 77	'M'
      000A70 D4                    2263 	.db #0xd4	; 212
      000A71 00                    2264 	.db #0x00	; 0
      000A72 2A                    2265 	.db #0x2a	; 42
      000A73 2B                    2266 	.db #0x2b	; 43
      000A74 C4                    2267 	.db #0xc4	; 196
      000A75 00                    2268 	.db #0x00	; 0
      000A76 4E                    2269 	.db #0x4e	; 78	'N'
      000A77 4F                    2270 	.db #0x4f	; 79	'O'
      000A78 50                    2271 	.db #0x50	; 80	'P'
      000A79 51                    2272 	.db #0x51	; 81	'Q'
      000A7A 52                    2273 	.db #0x52	; 82	'R'
      000A7B C5                    2274 	.db #0xc5	; 197
      000A7C 00                    2275 	.db #0x00	; 0
      000A7D 39                    2276 	.db #0x39	; 57	'9'
      000A7E 3A                    2277 	.db #0x3a	; 58
      000A7F 3B                    2278 	.db #0x3b	; 59
      000A80 3C                    2279 	.db #0x3c	; 60
      000A81 CA                    2280 	.db #0xca	; 202
      000A82 00                    2281 	.db #0x00	; 0
      000A83 34                    2282 	.db #0x34	; 52	'4'
      000A84 35                    2283 	.db #0x35	; 53	'5'
      000A85 C4                    2284 	.db #0xc4	; 196
      000A86 00                    2285 	.db #0x00	; 0
      000A87 53                    2286 	.db #0x53	; 83	'S'
      000A88 54                    2287 	.db #0x54	; 84	'T'
      000A89 55                    2288 	.db #0x55	; 85	'U'
      000A8A 56                    2289 	.db #0x56	; 86	'V'
      000A8B 57                    2290 	.db #0x57	; 87	'W'
      000A8C C5                    2291 	.db #0xc5	; 197
      000A8D 00                    2292 	.db #0x00	; 0
      000A8E 45                    2293 	.db #0x45	; 69	'E'
      000A8F 46                    2294 	.db #0x46	; 70	'F'
      000A90 47                    2295 	.db #0x47	; 71	'G'
      000A91 48                    2296 	.db #0x48	; 72	'H'
      000A92 C7                    2297 	.db #0xc7	; 199
      000A93 00                    2298 	.db #0x00	; 0
      000A94 58                    2299 	.db #0x58	; 88	'X'
      000A95 26                    2300 	.db #0x26	; 38
      000A96 27                    2301 	.db #0x27	; 39
      000A97 07                    2302 	.db #0x07	; 7
      000A98 08                    2303 	.db #0x08	; 8
      000A99 09                    2304 	.db #0x09	; 9
      000A9A 0A                    2305 	.db #0x0a	; 10
      000A9B D4                    2306 	.db #0xd4	; 212
      000A9C 00                    2307 	.db #0x00	; 0
      000A9D 59                    2308 	.db #0x59	; 89	'Y'
      000A9E 05                    2309 	.db #0x05	; 5
      000A9F 5A                    2310 	.db #0x5a	; 90	'Z'
      000AA0 30                    2311 	.db #0x30	; 48	'0'
      000AA1 31                    2312 	.db #0x31	; 49	'1'
      000AA2 32                    2313 	.db #0x32	; 50	'2'
      000AA3 0E                    2314 	.db #0x0e	; 14
      000AA4 0F                    2315 	.db #0x0f	; 15
      000AA5 15                    2316 	.db #0x15	; 21
      000AA6 11                    2317 	.db #0x11	; 17
      000AA7 D3                    2318 	.db #0xd3	; 211
      000AA8 00                    2319 	.db #0x00	; 0
      000AA9 5B                    2320 	.db #0x5b	; 91
      000AAA 14                    2321 	.db #0x14	; 20
      000AAB 15                    2322 	.db #0x15	; 21
      000AAC 16                    2323 	.db #0x16	; 22
      000AAD 3D                    2324 	.db #0x3d	; 61
      000AAE 5C                    2325 	.db #0x5c	; 92
      000AAF 3F                    2326 	.db #0x3f	; 63
      000AB0 1B                    2327 	.db #0x1b	; 27
      000AB1 1C                    2328 	.db #0x1c	; 28
      000AB2 1D                    2329 	.db #0x1d	; 29
      000AB3 5D                    2330 	.db #0x5d	; 93
      000AB4 13                    2331 	.db #0x13	; 19
      000AB5 C6                    2332 	.db #0xc6	; 198
      000AB6 00                    2333 	.db #0x00	; 0
      000AB7 20                    2334 	.db #0x20	; 32
      000AB8 21                    2335 	.db #0x21	; 33
      000AB9 C9                    2336 	.db #0xc9	; 201
      000ABA 00                    2337 	.db #0x00	; 0
      000ABB 08                    2338 	.db #0x08	; 8
      000ABC 09                    2339 	.db #0x09	; 9
      000ABD 5E                    2340 	.db #0x5e	; 94
      000ABE 5F                    2341 	.db #0x5f	; 95
      000ABF 60                    2342 	.db #0x60	; 96
      000AC0 61                    2343 	.db #0x61	; 97	'a'
      000AC1 01                    2344 	.db #0x01	; 1
      000AC2 02                    2345 	.db #0x02	; 2
      000AC3 08                    2346 	.db #0x08	; 8
      000AC4 09                    2347 	.db #0x09	; 9
      000AC5 0A                    2348 	.db #0x0a	; 10
      000AC6 03                    2349 	.db #0x03	; 3
      000AC7 04                    2350 	.db #0x04	; 4
      000AC8 62                    2351 	.db #0x62	; 98	'b'
      000AC9 06                    2352 	.db #0x06	; 6
      000ACA C3                    2353 	.db #0xc3	; 195
      000ACB 00                    2354 	.db #0x00	; 0
      000ACC 63                    2355 	.db #0x63	; 99	'c'
      000ACD 64                    2356 	.db #0x64	; 100	'd'
      000ACE 29                    2357 	.db #0x29	; 41
      000ACF 01                    2358 	.db #0x01	; 1
      000AD0 02                    2359 	.db #0x02	; 2
      000AD1 17                    2360 	.db #0x17	; 23
      000AD2 65                    2361 	.db #0x65	; 101	'e'
      000AD3 66                    2362 	.db #0x66	; 102	'f'
      000AD4 67                    2363 	.db #0x67	; 103	'g'
      000AD5 C2                    2364 	.db #0xc2	; 194
      000AD6 00                    2365 	.db #0x00	; 0
      000AD7 5B                    2366 	.db #0x5b	; 91
      000AD8 0F                    2367 	.db #0x0f	; 15
      000AD9 10                    2368 	.db #0x10	; 16
      000ADA 11                    2369 	.db #0x11	; 17
      000ADB 12                    2370 	.db #0x12	; 18
      000ADC 13                    2371 	.db #0x13	; 19
      000ADD 59                    2372 	.db #0x59	; 89	'Y'
      000ADE 05                    2373 	.db #0x05	; 5
      000ADF 5A                    2374 	.db #0x5a	; 90	'Z'
      000AE0 0F                    2375 	.db #0x0f	; 15
      000AE1 10                    2376 	.db #0x10	; 16
      000AE2 11                    2377 	.db #0x11	; 17
      000AE3 07                    2378 	.db #0x07	; 7
      000AE4 14                    2379 	.db #0x14	; 20
      000AE5 15                    2380 	.db #0x15	; 21
      000AE6 16                    2381 	.db #0x16	; 22
      000AE7 17                    2382 	.db #0x17	; 23
      000AE8 59                    2383 	.db #0x59	; 89	'Y'
      000AE9 05                    2384 	.db #0x05	; 5
      000AEA 68                    2385 	.db #0x68	; 104	'h'
      000AEB 69                    2386 	.db #0x69	; 105	'i'
      000AEC 0C                    2387 	.db #0x0c	; 12
      000AED 0D                    2388 	.db #0x0d	; 13
      000AEE 0E                    2389 	.db #0x0e	; 14
      000AEF 12                    2390 	.db #0x12	; 18
      000AF0 13                    2391 	.db #0x13	; 19
      000AF1 07                    2392 	.db #0x07	; 7
      000AF2 6A                    2393 	.db #0x6a	; 106	'j'
      000AF3 6B                    2394 	.db #0x6b	; 107	'k'
      000AF4 01                    2395 	.db #0x01	; 1
      000AF5 02                    2396 	.db #0x02	; 2
      000AF6 6C                    2397 	.db #0x6c	; 108	'l'
      000AF7 1D                    2398 	.db #0x1d	; 29
      000AF8 1E                    2399 	.db #0x1e	; 30
      000AF9 03                    2400 	.db #0x03	; 3
      000AFA 1F                    2401 	.db #0x1f	; 31
      000AFB 14                    2402 	.db #0x14	; 20
      000AFC 15                    2403 	.db #0x15	; 21
      000AFD 16                    2404 	.db #0x16	; 22
      000AFE 1C                    2405 	.db #0x1c	; 28
      000AFF 1D                    2406 	.db #0x1d	; 29
      000B00 1E                    2407 	.db #0x1e	; 30
      000B01 00                    2408 	.db #0x00	; 0
      000B02 22                    2409 	.db #0x22	; 34
      000B03 1D                    2410 	.db #0x1d	; 29
      000B04 1E                    2411 	.db #0x1e	; 30
      000B05 07                    2412 	.db #0x07	; 7
      000B06 14                    2413 	.db #0x14	; 20
      000B07 15                    2414 	.db #0x15	; 21
      000B08 16                    2415 	.db #0x16	; 22
      000B09 18                    2416 	.db #0x18	; 24
      000B0A 19                    2417 	.db #0x19	; 25
      000B0B 1A                    2418 	.db #0x1a	; 26
      000B0C 1B                    2419 	.db #0x1b	; 27
      000B0D 03                    2420 	.db #0x03	; 3
      000B0E 1F                    2421 	.db #0x1f	; 31
      000B0F 00                    2422 	.db #0x00	; 0
      000B10 6D                    2423 	.db #0x6d	; 109	'm'
      000B11 6E                    2424 	.db #0x6e	; 110	'n'
      000B12 01                    2425 	.db #0x01	; 1
      000B13 02                    2426 	.db #0x02	; 2
      000B14 6F                    2427 	.db #0x6f	; 111	'o'
      000B15 70                    2428 	.db #0x70	; 112	'p'
      000B16 0C                    2429 	.db #0x0c	; 12
      000B17 0D                    2430 	.db #0x0d	; 13
      000B18 0E                    2431 	.db #0x0e	; 14
      000B19 22                    2432 	.db #0x22	; 34
      000B1A 5F                    2433 	.db #0x5f	; 95
      000B1B 71                    2434 	.db #0x71	; 113	'q'
      000B1C                       2435 _room_0_1_coll:
      000B1C 70 00                 2436 	.dw #0x0070
      000B1E D7                    2437 	.db #0xd7	; 215
      000B1F 01                    2438 	.db #0x01	; 1
      000B20 C4                    2439 	.db #0xc4	; 196
      000B21 00                    2440 	.db #0x00	; 0
      000B22 DA                    2441 	.db #0xda	; 218
      000B23 01                    2442 	.db #0x01	; 1
      000B24 C4                    2443 	.db #0xc4	; 196
      000B25 00                    2444 	.db #0x00	; 0
      000B26 C9                    2445 	.db #0xc9	; 201
      000B27 01                    2446 	.db #0x01	; 1
      000B28 00                    2447 	.db #0x00	; 0
      000B29 C3                    2448 	.db #0xc3	; 195
      000B2A 01                    2449 	.db #0x01	; 1
      000B2B 00                    2450 	.db #0x00	; 0
      000B2C CC                    2451 	.db #0xcc	; 204
      000B2D 01                    2452 	.db #0x01	; 1
      000B2E C5                    2453 	.db #0xc5	; 197
      000B2F 00                    2454 	.db #0x00	; 0
      000B30 C6                    2455 	.db #0xc6	; 198
      000B31 01                    2456 	.db #0x01	; 1
      000B32 CA                    2457 	.db #0xca	; 202
      000B33 00                    2458 	.db #0x00	; 0
      000B34 C9                    2459 	.db #0xc9	; 201
      000B35 01                    2460 	.db #0x01	; 1
      000B36 C5                    2461 	.db #0xc5	; 197
      000B37 00                    2462 	.db #0x00	; 0
      000B38 C6                    2463 	.db #0xc6	; 198
      000B39 01                    2464 	.db #0x01	; 1
      000B3A C4                    2465 	.db #0xc4	; 196
      000B3B 00                    2466 	.db #0x00	; 0
      000B3C C4                    2467 	.db #0xc4	; 196
      000B3D 06                    2468 	.db #0x06	; 6
      000B3E C2                    2469 	.db #0xc2	; 194
      000B3F 00                    2470 	.db #0x00	; 0
      000B40 C7                    2471 	.db #0xc7	; 199
      000B41 01                    2472 	.db #0x01	; 1
      000B42 C7                    2473 	.db #0xc7	; 199
      000B43 00                    2474 	.db #0x00	; 0
      000B44 01                    2475 	.db #0x01	; 1
      000B45 00                    2476 	.db #0x00	; 0
      000B46 C2                    2477 	.db #0xc2	; 194
      000B47 01                    2478 	.db #0x01	; 1
      000B48 CD                    2479 	.db #0xcd	; 205
      000B49 00                    2480 	.db #0x00	; 0
      000B4A C5                    2481 	.db #0xc5	; 197
      000B4B 01                    2482 	.db #0x01	; 1
      000B4C CA                    2483 	.db #0xca	; 202
      000B4D 00                    2484 	.db #0x00	; 0
      000B4E 01                    2485 	.db #0x01	; 1
      000B4F DD                    2486 	.db #0xdd	; 221
      000B50 00                    2487 	.db #0x00	; 0
      000B51 01                    2488 	.db #0x01	; 1
      000B52 DD                    2489 	.db #0xdd	; 221
      000B53 00                    2490 	.db #0x00	; 0
      000B54 01                    2491 	.db #0x01	; 1
      000B55 C6                    2492 	.db #0xc6	; 198
      000B56 00                    2493 	.db #0x00	; 0
      000B57 C3                    2494 	.db #0xc3	; 195
      000B58 01                    2495 	.db #0x01	; 1
      000B59 D4                    2496 	.db #0xd4	; 212
      000B5A 00                    2497 	.db #0x00	; 0
      000B5B 01                    2498 	.db #0x01	; 1
      000B5C 02                    2499 	.db #0x02	; 2
      000B5D CE                    2500 	.db #0xce	; 206
      000B5E 00                    2501 	.db #0x00	; 0
      000B5F C4                    2502 	.db #0xc4	; 196
      000B60 06                    2503 	.db #0x06	; 6
      000B61 CA                    2504 	.db #0xca	; 202
      000B62 00                    2505 	.db #0x00	; 0
      000B63 C2                    2506 	.db #0xc2	; 194
      000B64 01                    2507 	.db #0x01	; 1
      000B65 D9                    2508 	.db #0xd9	; 217
      000B66 00                    2509 	.db #0x00	; 0
      000B67 02                    2510 	.db #0x02	; 2
      000B68 C5                    2511 	.db #0xc5	; 197
      000B69 01                    2512 	.db #0x01	; 1
      000B6A 02                    2513 	.db #0x02	; 2
      000B6B D4                    2514 	.db #0xd4	; 212
      000B6C 00                    2515 	.db #0x00	; 0
      000B6D 02                    2516 	.db #0x02	; 2
      000B6E C9                    2517 	.db #0xc9	; 201
      000B6F 01                    2518 	.db #0x01	; 1
      000B70 D3                    2519 	.db #0xd3	; 211
      000B71 00                    2520 	.db #0x00	; 0
      000B72 02                    2521 	.db #0x02	; 2
      000B73 CB                    2522 	.db #0xcb	; 203
      000B74 01                    2523 	.db #0x01	; 1
      000B75 C6                    2524 	.db #0xc6	; 198
      000B76 00                    2525 	.db #0x00	; 0
      000B77 C2                    2526 	.db #0xc2	; 194
      000B78 02                    2527 	.db #0x02	; 2
      000B79 C9                    2528 	.db #0xc9	; 201
      000B7A 00                    2529 	.db #0x00	; 0
      000B7B 02                    2530 	.db #0x02	; 2
      000B7C CD                    2531 	.db #0xcd	; 205
      000B7D 01                    2532 	.db #0x01	; 1
      000B7E 02                    2533 	.db #0x02	; 2
      000B7F C3                    2534 	.db #0xc3	; 195
      000B80 00                    2535 	.db #0x00	; 0
      000B81 02                    2536 	.db #0x02	; 2
      000B82 C4                    2537 	.db #0xc4	; 196
      000B83 01                    2538 	.db #0x01	; 1
      000B84 02                    2539 	.db #0x02	; 2
      000B85 C5                    2540 	.db #0xc5	; 197
      000B86 00                    2541 	.db #0x00	; 0
      000B87 02                    2542 	.db #0x02	; 2
      000B88 CF                    2543 	.db #0xcf	; 207
      000B89 01                    2544 	.db #0x01	; 1
      000B8A C2                    2545 	.db #0xc2	; 194
      000B8B 02                    2546 	.db #0x02	; 2
      000B8C F3                    2547 	.db #0xf3	; 243
      000B8D 01                    2548 	.db #0x01	; 1
      000B8E                       2549 _room_0_1_tiles:
      000B8E 72                    2550 	.db #0x72	; 114	'r'
      000B8F 00                    2551 	.db #0x00	; 0
      000B90 03                    2552 	.db #0x03	; 3
      000B91 0F                    2553 	.db #0x0f	; 15
      000B92 3E                    2554 	.db #0x3e	; 62
      000B93 77                    2555 	.db #0x77	; 119	'w'
      000B94 FA                    2556 	.db #0xfa	; 250
      000B95 D4                    2557 	.db #0xd4	; 212
      000B96 60                    2558 	.db #0x60	; 96
      000B97 34                    2559 	.db #0x34	; 52	'4'
      000B98 0F                    2560 	.db #0x0f	; 15
      000B99 03                    2561 	.db #0x03	; 3
      000B9A E0                    2562 	.db #0xe0	; 224
      000B9B B8                    2563 	.db #0xb8	; 184
      000B9C 56                    2564 	.db #0x56	; 86	'V'
      000B9D 89                    2565 	.db #0x89	; 137
      000B9E 41                    2566 	.db #0x41	; 65	'A'
      000B9F 02                    2567 	.db #0x02	; 2
      000BA0 1C                    2568 	.db #0x1c	; 28
      000BA1 E0                    2569 	.db #0xe0	; 224
      000BA2 03                    2570 	.db #0x03	; 3
      000BA3 D5                    2571 	.db #0xd5	; 213
      000BA4 F8                    2572 	.db #0xf8	; 248
      000BA5 D4                    2573 	.db #0xd4	; 212
      000BA6 A0                    2574 	.db #0xa0	; 160
      000BA7 94                    2575 	.db #0x94	; 148
      000BA8 40                    2576 	.db #0x40	; 64
      000BA9 3F                    2577 	.db #0x3f	; 63
      000BAA 00                    2578 	.db #0x00	; 0
      000BAB 03                    2579 	.db #0x03	; 3
      000BAC 02                    2580 	.db #0x02	; 2
      000BAD 84                    2581 	.db #0x84	; 132
      000BAE 05                    2582 	.db #0x05	; 5
      000BAF 0B                    2583 	.db #0x0b	; 11
      000BB0 17                    2584 	.db #0x17	; 23
      000BB1 7F                    2585 	.db #0x7f	; 127
      000BB2 BF                    2586 	.db #0xbf	; 191
      000BB3 3B                    2587 	.db #0x3b	; 59
      000BB4 03                    2588 	.db #0x03	; 3
      000BB5 00                    2589 	.db #0x00	; 0
      000BB6 FE                    2590 	.db #0xfe	; 254
      000BB7 FF                    2591 	.db #0xff	; 255
      000BB8 EA                    2592 	.db #0xea	; 234
      000BB9 FD                    2593 	.db #0xfd	; 253
      000BBA EA                    2594 	.db #0xea	; 234
      000BBB 5D                    2595 	.db #0x5d	; 93
      000BBC E2                    2596 	.db #0xe2	; 226
      000BBD 03                    2597 	.db #0x03	; 3
      000BBE 00                    2598 	.db #0x00	; 0
      000BBF 00                    2599 	.db #0x00	; 0
      000BC0 00                    2600 	.db #0x00	; 0
      000BC1 80                    2601 	.db #0x80	; 128
      000BC2 C0                    2602 	.db #0xc0	; 192
      000BC3 30                    2603 	.db #0x30	; 48	'0'
      000BC4 88                    2604 	.db #0x88	; 136
      000BC5 08                    2605 	.db #0x08	; 8
      000BC6 03                    2606 	.db #0x03	; 3
      000BC7 18                    2607 	.db #0x18	; 24
      000BC8 3C                    2608 	.db #0x3c	; 60
      000BC9 6E                    2609 	.db #0x6e	; 110	'n'
      000BCA 97                    2610 	.db #0x97	; 151
      000BCB 8B                    2611 	.db #0x8b	; 139
      000BCC 95                    2612 	.db #0x95	; 149
      000BCD 42                    2613 	.db #0x42	; 66	'B'
      000BCE 3C                    2614 	.db #0x3c	; 60
      000BCF 03                    2615 	.db #0x03	; 3
      000BD0 01                    2616 	.db #0x01	; 1
      000BD1 07                    2617 	.db #0x07	; 7
      000BD2 0F                    2618 	.db #0x0f	; 15
      000BD3 1F                    2619 	.db #0x1f	; 31
      000BD4 3F                    2620 	.db #0x3f	; 63
      000BD5 7D                    2621 	.db #0x7d	; 125
      000BD6 77                    2622 	.db #0x77	; 119	'w'
      000BD7 FD                    2623 	.db #0xfd	; 253
      000BD8 03                    2624 	.db #0x03	; 3
      000BD9 FF                    2625 	.db #0xff	; 255
      000BDA FD                    2626 	.db #0xfd	; 253
      000BDB EA                    2627 	.db #0xea	; 234
      000BDC BD                    2628 	.db #0xbd	; 189
      000BDD EA                    2629 	.db #0xea	; 234
      000BDE F7                    2630 	.db #0xf7	; 247
      000BDF A8                    2631 	.db #0xa8	; 168
      000BE0 D5                    2632 	.db #0xd5	; 213
      000BE1 03                    2633 	.db #0x03	; 3
      000BE2 00                    2634 	.db #0x00	; 0
      000BE3 C0                    2635 	.db #0xc0	; 192
      000BE4 A0                    2636 	.db #0xa0	; 160
      000BE5 D0                    2637 	.db #0xd0	; 208
      000BE6 A8                    2638 	.db #0xa8	; 168
      000BE7 44                    2639 	.db #0x44	; 68	'D'
      000BE8 AA                    2640 	.db #0xaa	; 170
      000BE9 12                    2641 	.db #0x12	; 18
      000BEA 03                    2642 	.db #0x03	; 3
      000BEB 00                    2643 	.db #0x00	; 0
      000BEC 01                    2644 	.db #0x01	; 1
      000BED 07                    2645 	.db #0x07	; 7
      000BEE 0F                    2646 	.db #0x0f	; 15
      000BEF 1F                    2647 	.db #0x1f	; 31
      000BF0 3F                    2648 	.db #0x3f	; 63
      000BF1 7D                    2649 	.db #0x7d	; 125
      000BF2 7B                    2650 	.db #0x7b	; 123
      000BF3 03                    2651 	.db #0x03	; 3
      000BF4 3F                    2652 	.db #0x3f	; 63
      000BF5 FF                    2653 	.db #0xff	; 255
      000BF6 FD                    2654 	.db #0xfd	; 253
      000BF7 EA                    2655 	.db #0xea	; 234
      000BF8 FD                    2656 	.db #0xfd	; 253
      000BF9 AA                    2657 	.db #0xaa	; 170
      000BFA F7                    2658 	.db #0xf7	; 247
      000BFB AA                    2659 	.db #0xaa	; 170
      000BFC 03                    2660 	.db #0x03	; 3
      000BFD F0                    2661 	.db #0xf0	; 240
      000BFE FE                    2662 	.db #0xfe	; 254
      000BFF ED                    2663 	.db #0xed	; 237
      000C00 BE                    2664 	.db #0xbe	; 190
      000C01 D5                    2665 	.db #0xd5	; 213
      000C02 A8                    2666 	.db #0xa8	; 168
      000C03 17                    2667 	.db #0x17	; 23
      000C04 EA                    2668 	.db #0xea	; 234
      000C05 03                    2669 	.db #0x03	; 3
      000C06 00                    2670 	.db #0x00	; 0
      000C07 00                    2671 	.db #0x00	; 0
      000C08 80                    2672 	.db #0x80	; 128
      000C09 E0                    2673 	.db #0xe0	; 224
      000C0A 50                    2674 	.db #0x50	; 80	'P'
      000C0B 88                    2675 	.db #0x88	; 136
      000C0C 24                    2676 	.db #0x24	; 36
      000C0D 82                    2677 	.db #0x82	; 130
      000C0E 03                    2678 	.db #0x03	; 3
      000C0F EE                    2679 	.db #0xee	; 238
      000C10 DD                    2680 	.db #0xdd	; 221
      000C11 AB                    2681 	.db #0xab	; 171
      000C12 D5                    2682 	.db #0xd5	; 213
      000C13 BB                    2683 	.db #0xbb	; 187
      000C14 51                    2684 	.db #0x51	; 81	'Q'
      000C15 66                    2685 	.db #0x66	; 102	'f'
      000C16 35                    2686 	.db #0x35	; 53	'5'
      000C17 03                    2687 	.db #0x03	; 3
      000C18 BE                    2688 	.db #0xbe	; 190
      000C19 74                    2689 	.db #0x74	; 116	't'
      000C1A E9                    2690 	.db #0xe9	; 233
      000C1B DC                    2691 	.db #0xdc	; 220
      000C1C AA                    2692 	.db #0xaa	; 170
      000C1D D4                    2693 	.db #0xd4	; 212
      000C1E 82                    2694 	.db #0x82	; 130
      000C1F 50                    2695 	.db #0x50	; 80	'P'
      000C20 03                    2696 	.db #0x03	; 3
      000C21 81                    2697 	.db #0x81	; 129
      000C22 29                    2698 	.db #0x29	; 41
      000C23 11                    2699 	.db #0x11	; 17
      000C24 01                    2700 	.db #0x01	; 1
      000C25 A2                    2701 	.db #0xa2	; 162
      000C26 42                    2702 	.db #0x42	; 66	'B'
      000C27 02                    2703 	.db #0x02	; 2
      000C28 04                    2704 	.db #0x04	; 4
      000C29 03                    2705 	.db #0x03	; 3
      000C2A 00                    2706 	.db #0x00	; 0
      000C2B 03                    2707 	.db #0x03	; 3
      000C2C 07                    2708 	.db #0x07	; 7
      000C2D 0E                    2709 	.db #0x0e	; 14
      000C2E 1F                    2710 	.db #0x1f	; 31
      000C2F 3A                    2711 	.db #0x3a	; 58
      000C30 77                    2712 	.db #0x77	; 119	'w'
      000C31 7A                    2713 	.db #0x7a	; 122	'z'
      000C32 03                    2714 	.db #0x03	; 3
      000C33 F8                    2715 	.db #0xf8	; 248
      000C34 FC                    2716 	.db #0xfc	; 252
      000C35 D6                    2717 	.db #0xd6	; 214
      000C36 A1                    2718 	.db #0xa1	; 161
      000C37 55                    2719 	.db #0x55	; 85	'U'
      000C38 81                    2720 	.db #0x81	; 129
      000C39 51                    2721 	.db #0x51	; 81	'Q'
      000C3A 82                    2722 	.db #0x82	; 130
      000C3B 03                    2723 	.db #0x03	; 3
      000C3C 7F                    2724 	.db #0x7f	; 127
      000C3D FA                    2725 	.db #0xfa	; 250
      000C3E FD                    2726 	.db #0xfd	; 253
      000C3F B2                    2727 	.db #0xb2	; 178
      000C40 E5                    2728 	.db #0xe5	; 229
      000C41 AC                    2729 	.db #0xac	; 172
      000C42 55                    2730 	.db #0x55	; 85	'U'
      000C43 62                    2731 	.db #0x62	; 98	'b'
      000C44 03                    2732 	.db #0x03	; 3
      000C45 47                    2733 	.db #0x47	; 71	'G'
      000C46 AC                    2734 	.db #0xac	; 172
      000C47 D5                    2735 	.db #0xd5	; 213
      000C48 A2                    2736 	.db #0xa2	; 162
      000C49 51                    2737 	.db #0x51	; 81	'Q'
      000C4A 24                    2738 	.db #0x24	; 36
      000C4B 51                    2739 	.db #0x51	; 81	'Q'
      000C4C 04                    2740 	.db #0x04	; 4
      000C4D 03                    2741 	.db #0x03	; 3
      000C4E 42                    2742 	.db #0x42	; 66	'B'
      000C4F 92                    2743 	.db #0x92	; 146
      000C50 06                    2744 	.db #0x06	; 6
      000C51 42                    2745 	.db #0x42	; 66	'B'
      000C52 22                    2746 	.db #0x22	; 34
      000C53 02                    2747 	.db #0x02	; 2
      000C54 02                    2748 	.db #0x02	; 2
      000C55 02                    2749 	.db #0x02	; 2
      000C56 03                    2750 	.db #0x03	; 3
      000C57 00                    2751 	.db #0x00	; 0
      000C58 00                    2752 	.db #0x00	; 0
      000C59 00                    2753 	.db #0x00	; 0
      000C5A 30                    2754 	.db #0x30	; 48	'0'
      000C5B 78                    2755 	.db #0x78	; 120	'x'
      000C5C 6C                    2756 	.db #0x6c	; 108	'l'
      000C5D 52                    2757 	.db #0x52	; 82	'R'
      000C5E 22                    2758 	.db #0x22	; 34
      000C5F 03                    2759 	.db #0x03	; 3
      000C60 D5                    2760 	.db #0xd5	; 213
      000C61 A0                    2761 	.db #0xa0	; 160
      000C62 83                    2762 	.db #0x83	; 131
      000C63 46                    2763 	.db #0x46	; 70	'F'
      000C64 21                    2764 	.db #0x21	; 33
      000C65 18                    2765 	.db #0x18	; 24
      000C66 07                    2766 	.db #0x07	; 7
      000C67 00                    2767 	.db #0x00	; 0
      000C68 03                    2768 	.db #0x03	; 3
      000C69 77                    2769 	.db #0x77	; 119	'w'
      000C6A AE                    2770 	.db #0xae	; 174
      000C6B 5D                    2771 	.db #0x5d	; 93
      000C6C 2A                    2772 	.db #0x2a	; 42
      000C6D 4D                    2773 	.db #0x4d	; 77	'M'
      000C6E 20                    2774 	.db #0x20	; 32
      000C6F 00                    2775 	.db #0x00	; 0
      000C70 FF                    2776 	.db #0xff	; 255
      000C71 03                    2777 	.db #0x03	; 3
      000C72 44                    2778 	.db #0x44	; 68	'D'
      000C73 88                    2779 	.db #0x88	; 136
      000C74 42                    2780 	.db #0x42	; 66	'B'
      000C75 80                    2781 	.db #0x80	; 128
      000C76 00                    2782 	.db #0x00	; 0
      000C77 00                    2783 	.db #0x00	; 0
      000C78 00                    2784 	.db #0x00	; 0
      000C79 FF                    2785 	.db #0xff	; 255
      000C7A 03                    2786 	.db #0x03	; 3
      000C7B 51                    2787 	.db #0x51	; 81	'Q'
      000C7C 81                    2788 	.db #0x81	; 129
      000C7D 01                    2789 	.db #0x01	; 1
      000C7E 01                    2790 	.db #0x01	; 1
      000C7F 02                    2791 	.db #0x02	; 2
      000C80 04                    2792 	.db #0x04	; 4
      000C81 38                    2793 	.db #0x38	; 56	'8'
      000C82 C0                    2794 	.db #0xc0	; 192
      000C83 03                    2795 	.db #0x03	; 3
      000C84 1A                    2796 	.db #0x1a	; 26
      000C85 14                    2797 	.db #0x14	; 20
      000C86 0B                    2798 	.db #0x0b	; 11
      000C87 05                    2799 	.db #0x05	; 5
      000C88 02                    2800 	.db #0x02	; 2
      000C89 01                    2801 	.db #0x01	; 1
      000C8A 00                    2802 	.db #0x00	; 0
      000C8B 00                    2803 	.db #0x00	; 0
      000C8C 03                    2804 	.db #0x03	; 3
      000C8D 89                    2805 	.db #0x89	; 137
      000C8E 40                    2806 	.db #0x40	; 64
      000C8F 90                    2807 	.db #0x90	; 144
      000C90 00                    2808 	.db #0x00	; 0
      000C91 48                    2809 	.db #0x48	; 72	'H'
      000C92 20                    2810 	.db #0x20	; 32
      000C93 C1                    2811 	.db #0xc1	; 193
      000C94 3E                    2812 	.db #0x3e	; 62
      000C95 03                    2813 	.db #0x03	; 3
      000C96 04                    2814 	.db #0x04	; 4
      000C97 08                    2815 	.db #0x08	; 8
      000C98 08                    2816 	.db #0x08	; 8
      000C99 10                    2817 	.db #0x10	; 16
      000C9A 20                    2818 	.db #0x20	; 32
      000C9B 40                    2819 	.db #0x40	; 64
      000C9C 80                    2820 	.db #0x80	; 128
      000C9D 00                    2821 	.db #0x00	; 0
      000C9E 03                    2822 	.db #0x03	; 3
      000C9F 02                    2823 	.db #0x02	; 2
      000CA0 84                    2824 	.db #0x84	; 132
      000CA1 04                    2825 	.db #0x04	; 4
      000CA2 08                    2826 	.db #0x08	; 8
      000CA3 10                    2827 	.db #0x10	; 16
      000CA4 60                    2828 	.db #0x60	; 96
      000CA5 80                    2829 	.db #0x80	; 128
      000CA6 00                    2830 	.db #0x00	; 0
      000CA7 03                    2831 	.db #0x03	; 3
      000CA8 01                    2832 	.db #0x01	; 1
      000CA9 03                    2833 	.db #0x03	; 3
      000CAA 07                    2834 	.db #0x07	; 7
      000CAB 0F                    2835 	.db #0x0f	; 15
      000CAC 1F                    2836 	.db #0x1f	; 31
      000CAD 3A                    2837 	.db #0x3a	; 58
      000CAE 3D                    2838 	.db #0x3d	; 61
      000CAF 6E                    2839 	.db #0x6e	; 110	'n'
      000CB0 03                    2840 	.db #0x03	; 3
      000CB1 C0                    2841 	.db #0xc0	; 192
      000CB2 E0                    2842 	.db #0xe0	; 224
      000CB3 50                    2843 	.db #0x50	; 80	'P'
      000CB4 E8                    2844 	.db #0xe8	; 232
      000CB5 58                    2845 	.db #0x58	; 88	'X'
      000CB6 A4                    2846 	.db #0xa4	; 164
      000CB7 04                    2847 	.db #0x04	; 4
      000CB8 A2                    2848 	.db #0xa2	; 162
      000CB9 03                    2849 	.db #0x03	; 3
      000CBA 55                    2850 	.db #0x55	; 85	'U'
      000CBB 22                    2851 	.db #0x22	; 34
      000CBC 14                    2852 	.db #0x14	; 20
      000CBD 09                    2853 	.db #0x09	; 9
      000CBE 04                    2854 	.db #0x04	; 4
      000CBF 01                    2855 	.db #0x01	; 1
      000CC0 00                    2856 	.db #0x00	; 0
      000CC1 00                    2857 	.db #0x00	; 0
      000CC2 03                    2858 	.db #0x03	; 3
      000CC3 DE                    2859 	.db #0xde	; 222
      000CC4 FA                    2860 	.db #0xfa	; 250
      000CC5 DF                    2861 	.db #0xdf	; 223
      000CC6 BB                    2862 	.db #0xbb	; 187
      000CC7 BB                    2863 	.db #0xbb	; 187
      000CC8 29                    2864 	.db #0x29	; 41
      000CC9 11                    2865 	.db #0x11	; 17
      000CCA 10                    2866 	.db #0x10	; 16
      000CCB 03                    2867 	.db #0x03	; 3
      000CCC 1E                    2868 	.db #0x1e	; 30
      000CCD 7C                    2869 	.db #0x7c	; 124
      000CCE 6E                    2870 	.db #0x6e	; 110	'n'
      000CCF CA                    2871 	.db #0xca	; 202
      000CD0 88                    2872 	.db #0x88	; 136
      000CD1 88                    2873 	.db #0x88	; 136
      000CD2 80                    2874 	.db #0x80	; 128
      000CD3 80                    2875 	.db #0x80	; 128
      000CD4 03                    2876 	.db #0x03	; 3
      000CD5 00                    2877 	.db #0x00	; 0
      000CD6 00                    2878 	.db #0x00	; 0
      000CD7 00                    2879 	.db #0x00	; 0
      000CD8 00                    2880 	.db #0x00	; 0
      000CD9 01                    2881 	.db #0x01	; 1
      000CDA 03                    2882 	.db #0x03	; 3
      000CDB 07                    2883 	.db #0x07	; 7
      000CDC 8F                    2884 	.db #0x8f	; 143
      000CDD 03                    2885 	.db #0x03	; 3
      000CDE 01                    2886 	.db #0x01	; 1
      000CDF 0F                    2887 	.db #0x0f	; 15
      000CE0 3F                    2888 	.db #0x3f	; 63
      000CE1 FB                    2889 	.db #0xfb	; 251
      000CE2 FF                    2890 	.db #0xff	; 255
      000CE3 EA                    2891 	.db #0xea	; 234
      000CE4 FD                    2892 	.db #0xfd	; 253
      000CE5 EA                    2893 	.db #0xea	; 234
      000CE6 03                    2894 	.db #0x03	; 3
      000CE7 C0                    2895 	.db #0xc0	; 192
      000CE8 F0                    2896 	.db #0xf0	; 240
      000CE9 F8                    2897 	.db #0xf8	; 248
      000CEA AC                    2898 	.db #0xac	; 172
      000CEB F2                    2899 	.db #0xf2	; 242
      000CEC A9                    2900 	.db #0xa9	; 169
      000CED D3                    2901 	.db #0xd3	; 211
      000CEE A9                    2902 	.db #0xa9	; 169
      000CEF 03                    2903 	.db #0x03	; 3
      000CF0 75                    2904 	.db #0x75	; 117	'u'
      000CF1 6B                    2905 	.db #0x6b	; 107	'k'
      000CF2 5D                    2906 	.db #0x5d	; 93
      000CF3 2A                    2907 	.db #0x2a	; 42
      000CF4 34                    2908 	.db #0x34	; 52	'4'
      000CF5 1A                    2909 	.db #0x1a	; 26
      000CF6 08                    2910 	.db #0x08	; 8
      000CF7 07                    2911 	.db #0x07	; 7
      000CF8 03                    2912 	.db #0x03	; 3
      000CF9 C2                    2913 	.db #0xc2	; 194
      000CFA A2                    2914 	.db #0xa2	; 162
      000CFB 02                    2915 	.db #0x02	; 2
      000CFC 82                    2916 	.db #0x82	; 130
      000CFD 04                    2917 	.db #0x04	; 4
      000CFE 08                    2918 	.db #0x08	; 8
      000CFF 10                    2919 	.db #0x10	; 16
      000D00 E0                    2920 	.db #0xe0	; 224
      000D01 03                    2921 	.db #0x03	; 3
      000D02 00                    2922 	.db #0x00	; 0
      000D03 0F                    2923 	.db #0x0f	; 15
      000D04 1F                    2924 	.db #0x1f	; 31
      000D05 3F                    2925 	.db #0x3f	; 63
      000D06 75                    2926 	.db #0x75	; 117	'u'
      000D07 7B                    2927 	.db #0x7b	; 123
      000D08 D5                    2928 	.db #0xd5	; 213
      000D09 FE                    2929 	.db #0xfe	; 254
      000D0A 03                    2930 	.db #0x03	; 3
      000D0B 00                    2931 	.db #0x00	; 0
      000D0C C0                    2932 	.db #0xc0	; 192
      000D0D 60                    2933 	.db #0x60	; 96
      000D0E B0                    2934 	.db #0xb0	; 176
      000D0F 58                    2935 	.db #0x58	; 88	'X'
      000D10 A8                    2936 	.db #0xa8	; 168
      000D11 54                    2937 	.db #0x54	; 84	'T'
      000D12 8C                    2938 	.db #0x8c	; 140
      000D13 03                    2939 	.db #0x03	; 3
      000D14 FD                    2940 	.db #0xfd	; 253
      000D15 FC                    2941 	.db #0xfc	; 252
      000D16 F7                    2942 	.db #0xf7	; 247
      000D17 EA                    2943 	.db #0xea	; 234
      000D18 7F                    2944 	.db #0x7f	; 127
      000D19 7A                    2945 	.db #0x7a	; 122	'z'
      000D1A 7D                    2946 	.db #0x7d	; 125
      000D1B 79                    2947 	.db #0x79	; 121	'y'
      000D1C 03                    2948 	.db #0x03	; 3
      000D1D 04                    2949 	.db #0x04	; 4
      000D1E 0B                    2950 	.db #0x0b	; 11
      000D1F 0F                    2951 	.db #0x0f	; 15
      000D20 1E                    2952 	.db #0x1e	; 30
      000D21 3F                    2953 	.db #0x3f	; 63
      000D22 7A                    2954 	.db #0x7a	; 122	'z'
      000D23 F7                    2955 	.db #0xf7	; 247
      000D24 7A                    2956 	.db #0x7a	; 122	'z'
      000D25 03                    2957 	.db #0x03	; 3
      000D26 C7                    2958 	.db #0xc7	; 199
      000D27 74                    2959 	.db #0x74	; 116	't'
      000D28 28                    2960 	.db #0x28	; 40
      000D29 38                    2961 	.db #0x38	; 56	'8'
      000D2A 28                    2962 	.db #0x28	; 40
      000D2B 18                    2963 	.db #0x18	; 24
      000D2C 18                    2964 	.db #0x18	; 24
      000D2D 18                    2965 	.db #0x18	; 24
      000D2E 03                    2966 	.db #0x03	; 3
      000D2F A5                    2967 	.db #0xa5	; 165
      000D30 87                    2968 	.db #0x87	; 135
      000D31 86                    2969 	.db #0x86	; 134
      000D32 86                    2970 	.db #0x86	; 134
      000D33 82                    2971 	.db #0x82	; 130
      000D34 82                    2972 	.db #0x82	; 130
      000D35 00                    2973 	.db #0x00	; 0
      000D36 00                    2974 	.db #0x00	; 0
      000D37 03                    2975 	.db #0x03	; 3
      000D38 1F                    2976 	.db #0x1f	; 31
      000D39 3E                    2977 	.db #0x3e	; 62
      000D3A 75                    2978 	.db #0x75	; 117	'u'
      000D3B 7F                    2979 	.db #0x7f	; 127
      000D3C 75                    2980 	.db #0x75	; 117	'u'
      000D3D AE                    2981 	.db #0xae	; 174
      000D3E F4                    2982 	.db #0xf4	; 244
      000D3F AA                    2983 	.db #0xaa	; 170
      000D40 03                    2984 	.db #0x03	; 3
      000D41 5D                    2985 	.db #0x5d	; 93
      000D42 FA                    2986 	.db #0xfa	; 250
      000D43 55                    2987 	.db #0x55	; 85	'U'
      000D44 AA                    2988 	.db #0xaa	; 170
      000D45 71                    2989 	.db #0x71	; 113	'q'
      000D46 2A                    2990 	.db #0x2a	; 42
      000D47 C4                    2991 	.db #0xc4	; 196
      000D48 80                    2992 	.db #0x80	; 128
      000D49 03                    2993 	.db #0x03	; 3
      000D4A 11                    2994 	.db #0x11	; 17
      000D4B B5                    2995 	.db #0xb5	; 181
      000D4C 71                    2996 	.db #0x71	; 113	'q'
      000D4D 21                    2997 	.db #0x21	; 33
      000D4E 51                    2998 	.db #0x51	; 81	'Q'
      000D4F 82                    2999 	.db #0x82	; 130
      000D50 42                    3000 	.db #0x42	; 66	'B'
      000D51 02                    3001 	.db #0x02	; 2
      000D52 03                    3002 	.db #0x03	; 3
      000D53 18                    3003 	.db #0x18	; 24
      000D54 3C                    3004 	.db #0x3c	; 60
      000D55 6E                    3005 	.db #0x6e	; 110	'n'
      000D56 97                    3006 	.db #0x97	; 151
      000D57 8B                    3007 	.db #0x8b	; 139
      000D58 95                    3008 	.db #0x95	; 149
      000D59 42                    3009 	.db #0x42	; 66	'B'
      000D5A 3E                    3010 	.db #0x3e	; 62
      000D5B 03                    3011 	.db #0x03	; 3
      000D5C 55                    3012 	.db #0x55	; 85	'U'
      000D5D 3A                    3013 	.db #0x3a	; 58
      000D5E 15                    3014 	.db #0x15	; 21
      000D5F 0E                    3015 	.db #0x0e	; 14
      000D60 03                    3016 	.db #0x03	; 3
      000D61 01                    3017 	.db #0x01	; 1
      000D62 00                    3018 	.db #0x00	; 0
      000D63 00                    3019 	.db #0x00	; 0
      000D64 03                    3020 	.db #0x03	; 3
      000D65 52                    3021 	.db #0x52	; 82	'R'
      000D66 06                    3022 	.db #0x06	; 6
      000D67 51                    3023 	.db #0x51	; 81	'Q'
      000D68 01                    3024 	.db #0x01	; 1
      000D69 41                    3025 	.db #0x41	; 65	'A'
      000D6A 81                    3026 	.db #0x81	; 129
      000D6B 62                    3027 	.db #0x62	; 98	'b'
      000D6C 1C                    3028 	.db #0x1c	; 28
      000D6D 03                    3029 	.db #0x03	; 3
      000D6E 2D                    3030 	.db #0x2d	; 45
      000D6F 19                    3031 	.db #0x19	; 25
      000D70 1D                    3032 	.db #0x1d	; 29
      000D71 1D                    3033 	.db #0x1d	; 29
      000D72 1A                    3034 	.db #0x1a	; 26
      000D73 1A                    3035 	.db #0x1a	; 26
      000D74 0A                    3036 	.db #0x0a	; 10
      000D75 0A                    3037 	.db #0x0a	; 10
      000D76 03                    3038 	.db #0x03	; 3
      000D77 80                    3039 	.db #0x80	; 128
      000D78 00                    3040 	.db #0x00	; 0
      000D79 00                    3041 	.db #0x00	; 0
      000D7A 00                    3042 	.db #0x00	; 0
      000D7B 00                    3043 	.db #0x00	; 0
      000D7C 00                    3044 	.db #0x00	; 0
      000D7D 00                    3045 	.db #0x00	; 0
      000D7E 00                    3046 	.db #0x00	; 0
      000D7F 03                    3047 	.db #0x03	; 3
      000D80 10                    3048 	.db #0x10	; 16
      000D81 10                    3049 	.db #0x10	; 16
      000D82 10                    3050 	.db #0x10	; 16
      000D83 00                    3051 	.db #0x00	; 0
      000D84 00                    3052 	.db #0x00	; 0
      000D85 00                    3053 	.db #0x00	; 0
      000D86 00                    3054 	.db #0x00	; 0
      000D87 00                    3055 	.db #0x00	; 0
      000D88 01                    3056 	.db #0x01	; 1
      000D89 00                    3057 	.db #0x00	; 0
      000D8A 00                    3058 	.db #0x00	; 0
      000D8B 00                    3059 	.db #0x00	; 0
      000D8C 00                    3060 	.db #0x00	; 0
      000D8D 00                    3061 	.db #0x00	; 0
      000D8E 00                    3062 	.db #0x00	; 0
      000D8F AA                    3063 	.db #0xaa	; 170
      000D90 00                    3064 	.db #0x00	; 0
      000D91 01                    3065 	.db #0x01	; 1
      000D92 01                    3066 	.db #0x01	; 1
      000D93 07                    3067 	.db #0x07	; 7
      000D94 0D                    3068 	.db #0x0d	; 13
      000D95 1A                    3069 	.db #0x1a	; 26
      000D96 15                    3070 	.db #0x15	; 21
      000D97 22                    3071 	.db #0x22	; 34
      000D98 AF                    3072 	.db #0xaf	; 175
      000D99 00                    3073 	.db #0x00	; 0
      000D9A 01                    3074 	.db #0x01	; 1
      000D9B F1                    3075 	.db #0xf1	; 241
      000D9C AA                    3076 	.db #0xaa	; 170
      000D9D 5B                    3077 	.db #0x5b	; 91
      000D9E CB                    3078 	.db #0xcb	; 203
      000D9F 94                    3079 	.db #0x94	; 148
      000DA0 2B                    3080 	.db #0x2b	; 43
      000DA1 91                    3081 	.db #0x91	; 145
      000DA2 00                    3082 	.db #0x00	; 0
      000DA3 01                    3083 	.db #0x01	; 1
      000DA4 80                    3084 	.db #0x80	; 128
      000DA5 40                    3085 	.db #0x40	; 64
      000DA6 70                    3086 	.db #0x70	; 112	'p'
      000DA7 D8                    3087 	.db #0xd8	; 216
      000DA8 F8                    3088 	.db #0xf8	; 248
      000DA9 5C                    3089 	.db #0x5c	; 92
      000DAA 82                    3090 	.db #0x82	; 130
      000DAB 00                    3091 	.db #0x00	; 0
      000DAC 03                    3092 	.db #0x03	; 3
      000DAD DD                    3093 	.db #0xdd	; 221
      000DAE AA                    3094 	.db #0xaa	; 170
      000DAF D0                    3095 	.db #0xd0	; 208
      000DB0 4A                    3096 	.db #0x4a	; 74	'J'
      000DB1 21                    3097 	.db #0x21	; 33
      000DB2 10                    3098 	.db #0x10	; 16
      000DB3 0C                    3099 	.db #0x0c	; 12
      000DB4 03                    3100 	.db #0x03	; 3
      000DB5 03                    3101 	.db #0x03	; 3
      000DB6 C8                    3102 	.db #0xc8	; 200
      000DB7 94                    3103 	.db #0x94	; 148
      000DB8 08                    3104 	.db #0x08	; 8
      000DB9 00                    3105 	.db #0x00	; 0
      000DBA 40                    3106 	.db #0x40	; 64
      000DBB 01                    3107 	.db #0x01	; 1
      000DBC 6E                    3108 	.db #0x6e	; 110	'n'
      000DBD FD                    3109 	.db #0xfd	; 253
      000DBE 03                    3110 	.db #0x03	; 3
      000DBF 04                    3111 	.db #0x04	; 4
      000DC0 04                    3112 	.db #0x04	; 4
      000DC1 08                    3113 	.db #0x08	; 8
      000DC2 10                    3114 	.db #0x10	; 16
      000DC3 60                    3115 	.db #0x60	; 96
      000DC4 80                    3116 	.db #0x80	; 128
      000DC5 00                    3117 	.db #0x00	; 0
      000DC6 00                    3118 	.db #0x00	; 0
      000DC7 03                    3119 	.db #0x03	; 3
      000DC8 26                    3120 	.db #0x26	; 38
      000DC9 14                    3121 	.db #0x14	; 20
      000DCA 28                    3122 	.db #0x28	; 40
      000DCB 38                    3123 	.db #0x38	; 56	'8'
      000DCC 28                    3124 	.db #0x28	; 40
      000DCD 38                    3125 	.db #0x38	; 56	'8'
      000DCE 38                    3126 	.db #0x38	; 56	'8'
      000DCF 30                    3127 	.db #0x30	; 48	'0'
      000DD0 03                    3128 	.db #0x03	; 3
      000DD1 E0                    3129 	.db #0xe0	; 224
      000DD2 60                    3130 	.db #0x60	; 96
      000DD3 60                    3131 	.db #0x60	; 96
      000DD4 60                    3132 	.db #0x60	; 96
      000DD5 60                    3133 	.db #0x60	; 96
      000DD6 40                    3134 	.db #0x40	; 64
      000DD7 40                    3135 	.db #0x40	; 64
      000DD8 40                    3136 	.db #0x40	; 64
      000DD9 03                    3137 	.db #0x03	; 3
      000DDA 38                    3138 	.db #0x38	; 56	'8'
      000DDB 30                    3139 	.db #0x30	; 48	'0'
      000DDC 30                    3140 	.db #0x30	; 48	'0'
      000DDD 30                    3141 	.db #0x30	; 48	'0'
      000DDE 20                    3142 	.db #0x20	; 32
      000DDF 20                    3143 	.db #0x20	; 32
      000DE0 20                    3144 	.db #0x20	; 32
      000DE1 00                    3145 	.db #0x00	; 0
      000DE2 03                    3146 	.db #0x03	; 3
      000DE3 0A                    3147 	.db #0x0a	; 10
      000DE4 0A                    3148 	.db #0x0a	; 10
      000DE5 0C                    3149 	.db #0x0c	; 12
      000DE6 0E                    3150 	.db #0x0e	; 14
      000DE7 0C                    3151 	.db #0x0c	; 12
      000DE8 04                    3152 	.db #0x04	; 4
      000DE9 04                    3153 	.db #0x04	; 4
      000DEA 04                    3154 	.db #0x04	; 4
      000DEB 03                    3155 	.db #0x03	; 3
      000DEC 4C                    3156 	.db #0x4c	; 76	'L'
      000DED 28                    3157 	.db #0x28	; 40
      000DEE 50                    3158 	.db #0x50	; 80	'P'
      000DEF 70                    3159 	.db #0x70	; 112	'p'
      000DF0 50                    3160 	.db #0x50	; 80	'P'
      000DF1 70                    3161 	.db #0x70	; 112	'p'
      000DF2 70                    3162 	.db #0x70	; 112	'p'
      000DF3 60                    3163 	.db #0x60	; 96
      000DF4 03                    3164 	.db #0x03	; 3
      000DF5 00                    3165 	.db #0x00	; 0
      000DF6 7D                    3166 	.db #0x7d	; 125
      000DF7 00                    3167 	.db #0x00	; 0
      000DF8 15                    3168 	.db #0x15	; 21
      000DF9 00                    3169 	.db #0x00	; 0
      000DFA 04                    3170 	.db #0x04	; 4
      000DFB 0A                    3171 	.db #0x0a	; 10
      000DFC 00                    3172 	.db #0x00	; 0
      000DFD 03                    3173 	.db #0x03	; 3
      000DFE 00                    3174 	.db #0x00	; 0
      000DFF BE                    3175 	.db #0xbe	; 190
      000E00 00                    3176 	.db #0x00	; 0
      000E01 75                    3177 	.db #0x75	; 117	'u'
      000E02 40                    3178 	.db #0x40	; 64
      000E03 20                    3179 	.db #0x20	; 32
      000E04 18                    3180 	.db #0x18	; 24
      000E05 40                    3181 	.db #0x40	; 64
      000E06 03                    3182 	.db #0x03	; 3
      000E07 00                    3183 	.db #0x00	; 0
      000E08 FB                    3184 	.db #0xfb	; 251
      000E09 00                    3185 	.db #0x00	; 0
      000E0A F5                    3186 	.db #0xf5	; 245
      000E0B 20                    3187 	.db #0x20	; 32
      000E0C 40                    3188 	.db #0x40	; 64
      000E0D 28                    3189 	.db #0x28	; 40
      000E0E 90                    3190 	.db #0x90	; 144
      000E0F 03                    3191 	.db #0x03	; 3
      000E10 00                    3192 	.db #0x00	; 0
      000E11 7C                    3193 	.db #0x7c	; 124
      000E12 00                    3194 	.db #0x00	; 0
      000E13 D0                    3195 	.db #0xd0	; 208
      000E14 00                    3196 	.db #0x00	; 0
      000E15 20                    3197 	.db #0x20	; 32
      000E16 10                    3198 	.db #0x10	; 16
      000E17 28                    3199 	.db #0x28	; 40
      000E18 03                    3200 	.db #0x03	; 3
      000E19 30                    3201 	.db #0x30	; 48	'0'
      000E1A 30                    3202 	.db #0x30	; 48	'0'
      000E1B 30                    3203 	.db #0x30	; 48	'0'
      000E1C 10                    3204 	.db #0x10	; 16
      000E1D 10                    3205 	.db #0x10	; 16
      000E1E 10                    3206 	.db #0x10	; 16
      000E1F 10                    3207 	.db #0x10	; 16
      000E20 00                    3208 	.db #0x00	; 0
      000E21 03                    3209 	.db #0x03	; 3
      000E22 60                    3210 	.db #0x60	; 96
      000E23 60                    3211 	.db #0x60	; 96
      000E24 60                    3212 	.db #0x60	; 96
      000E25 20                    3213 	.db #0x20	; 32
      000E26 20                    3214 	.db #0x20	; 32
      000E27 20                    3215 	.db #0x20	; 32
      000E28 20                    3216 	.db #0x20	; 32
      000E29 00                    3217 	.db #0x00	; 0
      000E2A 03                    3218 	.db #0x03	; 3
      000E2B 7C                    3219 	.db #0x7c	; 124
      000E2C FB                    3220 	.db #0xfb	; 251
      000E2D FF                    3221 	.db #0xff	; 255
      000E2E FF                    3222 	.db #0xff	; 255
      000E2F DD                    3223 	.db #0xdd	; 221
      000E30 69                    3224 	.db #0x69	; 105	'i'
      000E31 38                    3225 	.db #0x38	; 56	'8'
      000E32 30                    3226 	.db #0x30	; 48	'0'
      000E33 03                    3227 	.db #0x03	; 3
      000E34 DE                    3228 	.db #0xde	; 222
      000E35 FA                    3229 	.db #0xfa	; 250
      000E36 DF                    3230 	.db #0xdf	; 223
      000E37 BB                    3231 	.db #0xbb	; 187
      000E38 BB                    3232 	.db #0xbb	; 187
      000E39 29                    3233 	.db #0x29	; 41
      000E3A B1                    3234 	.db #0xb1	; 177
      000E3B D0                    3235 	.db #0xd0	; 208
      000E3C 03                    3236 	.db #0x03	; 3
      000E3D 36                    3237 	.db #0x36	; 54	'6'
      000E3E F9                    3238 	.db #0xf9	; 249
      000E3F D5                    3239 	.db #0xd5	; 213
      000E40 BA                    3240 	.db #0xba	; 186
      000E41 D4                    3241 	.db #0xd4	; 212
      000E42 4C                    3242 	.db #0x4c	; 76	'L'
      000E43 98                    3243 	.db #0x98	; 152
      000E44 8E                    3244 	.db #0x8e	; 142
      000E45 03                    3245 	.db #0x03	; 3
      000E46 00                    3246 	.db #0x00	; 0
      000E47 00                    3247 	.db #0x00	; 0
      000E48 00                    3248 	.db #0x00	; 0
      000E49 00                    3249 	.db #0x00	; 0
      000E4A 01                    3250 	.db #0x01	; 1
      000E4B 03                    3251 	.db #0x03	; 3
      000E4C 02                    3252 	.db #0x02	; 2
      000E4D 04                    3253 	.db #0x04	; 4
      000E4E 03                    3254 	.db #0x03	; 3
      000E4F 50                    3255 	.db #0x50	; 80	'P'
      000E50 61                    3256 	.db #0x61	; 97	'a'
      000E51 C1                    3257 	.db #0xc1	; 193
      000E52 83                    3258 	.db #0x83	; 131
      000E53 82                    3259 	.db #0x82	; 130
      000E54 05                    3260 	.db #0x05	; 5
      000E55 85                    3261 	.db #0x85	; 133
      000E56 09                    3262 	.db #0x09	; 9
      000E57 03                    3263 	.db #0x03	; 3
      000E58 C8                    3264 	.db #0xc8	; 200
      000E59 88                    3265 	.db #0x88	; 136
      000E5A 84                    3266 	.db #0x84	; 132
      000E5B 04                    3267 	.db #0x04	; 4
      000E5C 05                    3268 	.db #0x05	; 5
      000E5D 04                    3269 	.db #0x04	; 4
      000E5E 04                    3270 	.db #0x04	; 4
      000E5F 08                    3271 	.db #0x08	; 8
      000E60 03                    3272 	.db #0x03	; 3
      000E61 42                    3273 	.db #0x42	; 66	'B'
      000E62 21                    3274 	.db #0x21	; 33
      000E63 13                    3275 	.db #0x13	; 19
      000E64 13                    3276 	.db #0x13	; 19
      000E65 82                    3277 	.db #0x82	; 130
      000E66 42                    3278 	.db #0x42	; 66	'B'
      000E67 73                    3279 	.db #0x73	; 115	's'
      000E68 54                    3280 	.db #0x54	; 84	'T'
      000E69 03                    3281 	.db #0x03	; 3
      000E6A 00                    3282 	.db #0x00	; 0
      000E6B 00                    3283 	.db #0x00	; 0
      000E6C 80                    3284 	.db #0x80	; 128
      000E6D 80                    3285 	.db #0x80	; 128
      000E6E 40                    3286 	.db #0x40	; 64
      000E6F 30                    3287 	.db #0x30	; 48	'0'
      000E70 90                    3288 	.db #0x90	; 144
      000E71 80                    3289 	.db #0x80	; 128
      000E72 03                    3290 	.db #0x03	; 3
      000E73 04                    3291 	.db #0x04	; 4
      000E74 00                    3292 	.db #0x00	; 0
      000E75 00                    3293 	.db #0x00	; 0
      000E76 00                    3294 	.db #0x00	; 0
      000E77 01                    3295 	.db #0x01	; 1
      000E78 00                    3296 	.db #0x00	; 0
      000E79 00                    3297 	.db #0x00	; 0
      000E7A 00                    3298 	.db #0x00	; 0
      000E7B 03                    3299 	.db #0x03	; 3
      000E7C 30                    3300 	.db #0x30	; 48	'0'
      000E7D 50                    3301 	.db #0x50	; 80	'P'
      000E7E 90                    3302 	.db #0x90	; 144
      000E7F 90                    3303 	.db #0x90	; 144
      000E80 40                    3304 	.db #0x40	; 64
      000E81 40                    3305 	.db #0x40	; 64
      000E82 00                    3306 	.db #0x00	; 0
      000E83 00                    3307 	.db #0x00	; 0
      000E84 03                    3308 	.db #0x03	; 3
      000E85 84                    3309 	.db #0x84	; 132
      000E86 84                    3310 	.db #0x84	; 132
      000E87 8A                    3311 	.db #0x8a	; 138
      000E88 89                    3312 	.db #0x89	; 137
      000E89 08                    3313 	.db #0x08	; 8
      000E8A 00                    3314 	.db #0x00	; 0
      000E8B 00                    3315 	.db #0x00	; 0
      000E8C 00                    3316 	.db #0x00	; 0
      000E8D 03                    3317 	.db #0x03	; 3
      000E8E 44                    3318 	.db #0x44	; 68	'D'
      000E8F 48                    3319 	.db #0x48	; 72	'H'
      000E90 28                    3320 	.db #0x28	; 40
      000E91 20                    3321 	.db #0x20	; 32
      000E92 C0                    3322 	.db #0xc0	; 192
      000E93 40                    3323 	.db #0x40	; 64
      000E94 00                    3324 	.db #0x00	; 0
      000E95 00                    3325 	.db #0x00	; 0
      000E96 03                    3326 	.db #0x03	; 3
      000E97 40                    3327 	.db #0x40	; 64
      000E98 40                    3328 	.db #0x40	; 64
      000E99 20                    3329 	.db #0x20	; 32
      000E9A 00                    3330 	.db #0x00	; 0
      000E9B 00                    3331 	.db #0x00	; 0
      000E9C 00                    3332 	.db #0x00	; 0
      000E9D 00                    3333 	.db #0x00	; 0
      000E9E 00                    3334 	.db #0x00	; 0
      000E9F 03                    3335 	.db #0x03	; 3
      000EA0 00                    3336 	.db #0x00	; 0
      000EA1 00                    3337 	.db #0x00	; 0
      000EA2 00                    3338 	.db #0x00	; 0
      000EA3 00                    3339 	.db #0x00	; 0
      000EA4 01                    3340 	.db #0x01	; 1
      000EA5 03                    3341 	.db #0x03	; 3
      000EA6 07                    3342 	.db #0x07	; 7
      000EA7 0F                    3343 	.db #0x0f	; 15
      000EA8 03                    3344 	.db #0x03	; 3
      000EA9 00                    3345 	.db #0x00	; 0
      000EAA 00                    3346 	.db #0x00	; 0
      000EAB 01                    3347 	.db #0x01	; 1
      000EAC 03                    3348 	.db #0x03	; 3
      000EAD 07                    3349 	.db #0x07	; 7
      000EAE 1F                    3350 	.db #0x1f	; 31
      000EAF 3F                    3351 	.db #0x3f	; 63
      000EB0 3B                    3352 	.db #0x3b	; 59
      000EB1 03                    3353 	.db #0x03	; 3
      000EB2 00                    3354 	.db #0x00	; 0
      000EB3 00                    3355 	.db #0x00	; 0
      000EB4 00                    3356 	.db #0x00	; 0
      000EB5 C0                    3357 	.db #0xc0	; 192
      000EB6 60                    3358 	.db #0x60	; 96
      000EB7 B0                    3359 	.db #0xb0	; 176
      000EB8 58                    3360 	.db #0x58	; 88	'X'
      000EB9 0C                    3361 	.db #0x0c	; 12
      000EBA 03                    3362 	.db #0x03	; 3
      000EBB 00                    3363 	.db #0x00	; 0
      000EBC 00                    3364 	.db #0x00	; 0
      000EBD 0C                    3365 	.db #0x0c	; 12
      000EBE 1E                    3366 	.db #0x1e	; 30
      000EBF 36                    3367 	.db #0x36	; 54	'6'
      000EC0 4A                    3368 	.db #0x4a	; 74	'J'
      000EC1 44                    3369 	.db #0x44	; 68	'D'
      000EC2 00                    3370 	.db #0x00	; 0
      000EC3 03                    3371 	.db #0x03	; 3
      000EC4 C8                    3372 	.db #0xc8	; 200
      000EC5 94                    3373 	.db #0x94	; 148
      000EC6 08                    3374 	.db #0x08	; 8
      000EC7 00                    3375 	.db #0x00	; 0
      000EC8 40                    3376 	.db #0x40	; 64
      000EC9 01                    3377 	.db #0x01	; 1
      000ECA 0E                    3378 	.db #0x0e	; 14
      000ECB F0                    3379 	.db #0xf0	; 240
      000ECC 03                    3380 	.db #0x03	; 3
      000ECD 04                    3381 	.db #0x04	; 4
      000ECE 07                    3382 	.db #0x07	; 7
      000ECF 0F                    3383 	.db #0x0f	; 15
      000ED0 3E                    3384 	.db #0x3e	; 62
      000ED1 DF                    3385 	.db #0xdf	; 223
      000ED2 3A                    3386 	.db #0x3a	; 58
      000ED3 77                    3387 	.db #0x77	; 119	'w'
      000ED4 7A                    3388 	.db #0x7a	; 122	'z'
      000ED5 03                    3389 	.db #0x03	; 3
      000ED6 55                    3390 	.db #0x55	; 85	'U'
      000ED7 E2                    3391 	.db #0xe2	; 226
      000ED8 B4                    3392 	.db #0xb4	; 180
      000ED9 D9                    3393 	.db #0xd9	; 217
      000EDA AC                    3394 	.db #0xac	; 172
      000EDB 45                    3395 	.db #0x45	; 69	'E'
      000EDC AA                    3396 	.db #0xaa	; 170
      000EDD 12                    3397 	.db #0x12	; 18
      000EDE 03                    3398 	.db #0x03	; 3
      000EDF 40                    3399 	.db #0x40	; 64
      000EE0 12                    3400 	.db #0x12	; 18
      000EE1 40                    3401 	.db #0x40	; 64
      000EE2 20                    3402 	.db #0x20	; 32
      000EE3 00                    3403 	.db #0x00	; 0
      000EE4 01                    3404 	.db #0x01	; 1
      000EE5 C2                    3405 	.db #0xc2	; 194
      000EE6 3C                    3406 	.db #0x3c	; 60
      000EE7 03                    3407 	.db #0x03	; 3
      000EE8 04                    3408 	.db #0x04	; 4
      000EE9 04                    3409 	.db #0x04	; 4
      000EEA 09                    3410 	.db #0x09	; 9
      000EEB 32                    3411 	.db #0x32	; 50	'2'
      000EEC C2                    3412 	.db #0xc2	; 194
      000EED 02                    3413 	.db #0x02	; 2
      000EEE 01                    3414 	.db #0x01	; 1
      000EEF 00                    3415 	.db #0x00	; 0
      000EF0 03                    3416 	.db #0x03	; 3
      000EF1 60                    3417 	.db #0x60	; 96
      000EF2 F0                    3418 	.db #0xf0	; 240
      000EF3 B8                    3419 	.db #0xb8	; 184
      000EF4 5C                    3420 	.db #0x5c	; 92
      000EF5 2C                    3421 	.db #0x2c	; 44
      000EF6 54                    3422 	.db #0x54	; 84	'T'
      000EF7 08                    3423 	.db #0x08	; 8
      000EF8 F0                    3424 	.db #0xf0	; 240
      000EF9 03                    3425 	.db #0x03	; 3
      000EFA 00                    3426 	.db #0x00	; 0
      000EFB 7E                    3427 	.db #0x7e	; 126
      000EFC FB                    3428 	.db #0xfb	; 251
      000EFD D5                    3429 	.db #0xd5	; 213
      000EFE FA                    3430 	.db #0xfa	; 250
      000EFF 57                    3431 	.db #0x57	; 87	'W'
      000F00 EA                    3432 	.db #0xea	; 234
      000F01 D4                    3433 	.db #0xd4	; 212
      000F02 03                    3434 	.db #0x03	; 3
      000F03 00                    3435 	.db #0x00	; 0
      000F04 00                    3436 	.db #0x00	; 0
      000F05 00                    3437 	.db #0x00	; 0
      000F06 06                    3438 	.db #0x06	; 6
      000F07 0F                    3439 	.db #0x0f	; 15
      000F08 1B                    3440 	.db #0x1b	; 27
      000F09 25                    3441 	.db #0x25	; 37
      000F0A 22                    3442 	.db #0x22	; 34
      000F0B 03                    3443 	.db #0x03	; 3
      000F0C 75                    3444 	.db #0x75	; 117	'u'
      000F0D 6B                    3445 	.db #0x6b	; 107	'k'
      000F0E 5D                    3446 	.db #0x5d	; 93
      000F0F 2A                    3447 	.db #0x2a	; 42
      000F10 34                    3448 	.db #0x34	; 52	'4'
      000F11 9A                    3449 	.db #0x9a	; 154
      000F12 C8                    3450 	.db #0xc8	; 200
      000F13 C7                    3451 	.db #0xc7	; 199
      000F14 01                    3452 	.db #0x01	; 1
      000F15 07                    3453 	.db #0x07	; 7
      000F16 33                    3454 	.db #0x33	; 51	'3'
      000F17 98                    3455 	.db #0x98	; 152
      000F18 CD                    3456 	.db #0xcd	; 205
      000F19 65                    3457 	.db #0x65	; 101	'e'
      000F1A 64                    3458 	.db #0x64	; 100	'd'
      000F1B 26                    3459 	.db #0x26	; 38
      000F1C 00                    3460 	.db #0x00	; 0
      000F1D 01                    3461 	.db #0x01	; 1
      000F1E 6E                    3462 	.db #0x6e	; 110	'n'
      000F1F C3                    3463 	.db #0xc3	; 195
      000F20 D0                    3464 	.db #0xd0	; 208
      000F21 AE                    3465 	.db #0xae	; 174
      000F22 99                    3466 	.db #0x99	; 153
      000F23 9B                    3467 	.db #0x9b	; 155
      000F24 19                    3468 	.db #0x19	; 25
      000F25 00                    3469 	.db #0x00	; 0
      000F26 01                    3470 	.db #0x01	; 1
      000F27 00                    3471 	.db #0x00	; 0
      000F28 00                    3472 	.db #0x00	; 0
      000F29 D8                    3473 	.db #0xd8	; 216
      000F2A 8C                    3474 	.db #0x8c	; 140
      000F2B 8E                    3475 	.db #0x8e	; 142
      000F2C DE                    3476 	.db #0xde	; 222
      000F2D FA                    3477 	.db #0xfa	; 250
      000F2E 00                    3478 	.db #0x00	; 0
      000F2F 03                    3479 	.db #0x03	; 3
      000F30 25                    3480 	.db #0x25	; 37
      000F31 10                    3481 	.db #0x10	; 16
      000F32 0F                    3482 	.db #0x0f	; 15
      000F33 C0                    3483 	.db #0xc0	; 192
      000F34 60                    3484 	.db #0x60	; 96
      000F35 B0                    3485 	.db #0xb0	; 176
      000F36 58                    3486 	.db #0x58	; 88	'X'
      000F37 0C                    3487 	.db #0x0c	; 12
      000F38 03                    3488 	.db #0x03	; 3
      000F39 40                    3489 	.db #0x40	; 64
      000F3A 81                    3490 	.db #0x81	; 129
      000F3B 07                    3491 	.db #0x07	; 7
      000F3C 0F                    3492 	.db #0x0f	; 15
      000F3D 1F                    3493 	.db #0x1f	; 31
      000F3E 3F                    3494 	.db #0x3f	; 63
      000F3F 7D                    3495 	.db #0x7d	; 125
      000F40 7B                    3496 	.db #0x7b	; 123
      000F41 03                    3497 	.db #0x03	; 3
      000F42 0F                    3498 	.db #0x0f	; 15
      000F43 1F                    3499 	.db #0x1f	; 31
      000F44 3A                    3500 	.db #0x3a	; 58
      000F45 7F                    3501 	.db #0x7f	; 127
      000F46 EA                    3502 	.db #0xea	; 234
      000F47 FD                    3503 	.db #0xfd	; 253
      000F48 DA                    3504 	.db #0xda	; 218
      000F49 7F                    3505 	.db #0x7f	; 127
      000F4A 03                    3506 	.db #0x03	; 3
      000F4B C0                    3507 	.db #0xc0	; 192
      000F4C 60                    3508 	.db #0x60	; 96
      000F4D B0                    3509 	.db #0xb0	; 176
      000F4E 58                    3510 	.db #0x58	; 88	'X'
      000F4F E6                    3511 	.db #0xe6	; 230
      000F50 51                    3512 	.db #0x51	; 81	'Q'
      000F51 81                    3513 	.db #0x81	; 129
      000F52 D1                    3514 	.db #0xd1	; 209
      000F53 03                    3515 	.db #0x03	; 3
      000F54 1A                    3516 	.db #0x1a	; 26
      000F55 14                    3517 	.db #0x14	; 20
      000F56 0B                    3518 	.db #0x0b	; 11
      000F57 05                    3519 	.db #0x05	; 5
      000F58 02                    3520 	.db #0x02	; 2
      000F59 01                    3521 	.db #0x01	; 1
      000F5A 0C                    3522 	.db #0x0c	; 12
      000F5B 1E                    3523 	.db #0x1e	; 30
      000F5C 03                    3524 	.db #0x03	; 3
      000F5D 7E                    3525 	.db #0x7e	; 126
      000F5E 55                    3526 	.db #0x55	; 85	'U'
      000F5F 3E                    3527 	.db #0x3e	; 62
      000F60 34                    3528 	.db #0x34	; 52	'4'
      000F61 1A                    3529 	.db #0x1a	; 26
      000F62 0C                    3530 	.db #0x0c	; 12
      000F63 06                    3531 	.db #0x06	; 6
      000F64 03                    3532 	.db #0x03	; 3
      000F65 03                    3533 	.db #0x03	; 3
      000F66 A1                    3534 	.db #0xa1	; 161
      000F67 52                    3535 	.db #0x52	; 82	'R'
      000F68 04                    3536 	.db #0x04	; 4
      000F69 88                    3537 	.db #0x88	; 136
      000F6A 10                    3538 	.db #0x10	; 16
      000F6B 10                    3539 	.db #0x10	; 16
      000F6C 20                    3540 	.db #0x20	; 32
      000F6D C0                    3541 	.db #0xc0	; 192
      000F6E 03                    3542 	.db #0x03	; 3
      000F6F 37                    3543 	.db #0x37	; 55	'7'
      000F70 4B                    3544 	.db #0x4b	; 75	'K'
      000F71 45                    3545 	.db #0x45	; 69	'E'
      000F72 4A                    3546 	.db #0x4a	; 74	'J'
      000F73 21                    3547 	.db #0x21	; 33
      000F74 1E                    3548 	.db #0x1e	; 30
      000F75 00                    3549 	.db #0x00	; 0
      000F76 00                    3550 	.db #0x00	; 0
      000F77 03                    3551 	.db #0x03	; 3
      000F78 00                    3552 	.db #0x00	; 0
      000F79 81                    3553 	.db #0x81	; 129
      000F7A 87                    3554 	.db #0x87	; 135
      000F7B 8F                    3555 	.db #0x8f	; 143
      000F7C 1F                    3556 	.db #0x1f	; 31
      000F7D 3F                    3557 	.db #0x3f	; 63
      000F7E 7D                    3558 	.db #0x7d	; 125
      000F7F 7B                    3559 	.db #0x7b	; 123
      000F80 03                    3560 	.db #0x03	; 3
      000F81 04                    3561 	.db #0x04	; 4
      000F82 04                    3562 	.db #0x04	; 4
      000F83 08                    3563 	.db #0x08	; 8
      000F84 30                    3564 	.db #0x30	; 48	'0'
      000F85 C0                    3565 	.db #0xc0	; 192
      000F86 00                    3566 	.db #0x00	; 0
      000F87 00                    3567 	.db #0x00	; 0
      000F88 00                    3568 	.db #0x00	; 0
      000F89                       3569 _enemies_0_1_tiles:
      000F89 06                    3570 	.db #0x06	; 6
      000F8A 19                    3571 	.db #0x19	; 25
      000F8B 19                    3572 	.db #0x19	; 25
      000F8C 25                    3573 	.db #0x25	; 37
      000F8D 3D                    3574 	.db #0x3d	; 61
      000F8E 42                    3575 	.db #0x42	; 66	'B'
      000F8F 7F                    3576 	.db #0x7f	; 127
      000F90 75                    3577 	.db #0x75	; 117	'u'
      000F91 7D                    3578 	.db #0x7d	; 125
      000F92 49                    3579 	.db #0x49	; 73	'I'
      000F93 49                    3580 	.db #0x49	; 73	'I'
      000F94 00                    3581 	.db #0x00	; 0
      000F95 00                    3582 	.db #0x00	; 0
      000F96 00                    3583 	.db #0x00	; 0
      000F97 00                    3584 	.db #0x00	; 0
      000F98 00                    3585 	.db #0x00	; 0
      000F99 00                    3586 	.db #0x00	; 0
      000F9A 4C                    3587 	.db #0x4c	; 76	'L'
      000F9B 4C                    3588 	.db #0x4c	; 76	'L'
      000F9C D2                    3589 	.db #0xd2	; 210
      000F9D DE                    3590 	.db #0xde	; 222
      000F9E 21                    3591 	.db #0x21	; 33
      000F9F FF                    3592 	.db #0xff	; 255
      000FA0 57                    3593 	.db #0x57	; 87	'W'
      000FA1 DF                    3594 	.db #0xdf	; 223
      000FA2 49                    3595 	.db #0x49	; 73	'I'
      000FA3 C9                    3596 	.db #0xc9	; 201
      000FA4 80                    3597 	.db #0x80	; 128
      000FA5 80                    3598 	.db #0x80	; 128
      000FA6 00                    3599 	.db #0x00	; 0
      000FA7 00                    3600 	.db #0x00	; 0
      000FA8 00                    3601 	.db #0x00	; 0
      000FA9 00                    3602 	.db #0x00	; 0
      000FAA 01                    3603 	.db #0x01	; 1
      000FAB 01                    3604 	.db #0x01	; 1
      000FAC 03                    3605 	.db #0x03	; 3
      000FAD 03                    3606 	.db #0x03	; 3
      000FAE 1E                    3607 	.db #0x1e	; 30
      000FAF 1F                    3608 	.db #0x1f	; 31
      000FB0 25                    3609 	.db #0x25	; 37
      000FB1 3D                    3610 	.db #0x3d	; 61
      000FB2 29                    3611 	.db #0x29	; 41
      000FB3 39                    3612 	.db #0x39	; 57	'9'
      000FB4 4C                    3613 	.db #0x4c	; 76	'L'
      000FB5 7C                    3614 	.db #0x7c	; 124
      000FB6 50                    3615 	.db #0x50	; 80	'P'
      000FB7 70                    3616 	.db #0x70	; 112	'p'
      000FB8 30                    3617 	.db #0x30	; 48	'0'
      000FB9 30                    3618 	.db #0x30	; 48	'0'
      000FBA 40                    3619 	.db #0x40	; 64
      000FBB 40                    3620 	.db #0x40	; 64
      000FBC E0                    3621 	.db #0xe0	; 224
      000FBD E0                    3622 	.db #0xe0	; 224
      000FBE 3C                    3623 	.db #0x3c	; 60
      000FBF FC                    3624 	.db #0xfc	; 252
      000FC0 52                    3625 	.db #0x52	; 82	'R'
      000FC1 DE                    3626 	.db #0xde	; 222
      000FC2 4A                    3627 	.db #0x4a	; 74	'J'
      000FC3 CE                    3628 	.db #0xce	; 206
      000FC4 99                    3629 	.db #0x99	; 153
      000FC5 9F                    3630 	.db #0x9f	; 159
      000FC6 05                    3631 	.db #0x05	; 5
      000FC7 07                    3632 	.db #0x07	; 7
      000FC8 06                    3633 	.db #0x06	; 6
      000FC9 06                    3634 	.db #0x06	; 6
      000FCA 00                    3635 	.db #0x00	; 0
      000FCB 00                    3636 	.db #0x00	; 0
      000FCC 18                    3637 	.db #0x18	; 24
      000FCD 18                    3638 	.db #0x18	; 24
      000FCE 18                    3639 	.db #0x18	; 24
      000FCF 18                    3640 	.db #0x18	; 24
      000FD0 42                    3641 	.db #0x42	; 66	'B'
      000FD1 42                    3642 	.db #0x42	; 66	'B'
      000FD2 DB                    3643 	.db #0xdb	; 219
      000FD3 DB                    3644 	.db #0xdb	; 219
      000FD4 99                    3645 	.db #0x99	; 153
      000FD5 99                    3646 	.db #0x99	; 153
      000FD6 18                    3647 	.db #0x18	; 24
      000FD7 18                    3648 	.db #0x18	; 24
      000FD8 00                    3649 	.db #0x00	; 0
      000FD9 00                    3650 	.db #0x00	; 0
      000FDA 00                    3651 	.db #0x00	; 0
      000FDB 00                    3652 	.db #0x00	; 0
      000FDC 81                    3653 	.db #0x81	; 129
      000FDD 81                    3654 	.db #0x81	; 129
      000FDE 42                    3655 	.db #0x42	; 66	'B'
      000FDF 42                    3656 	.db #0x42	; 66	'B'
      000FE0 18                    3657 	.db #0x18	; 24
      000FE1 18                    3658 	.db #0x18	; 24
      000FE2 18                    3659 	.db #0x18	; 24
      000FE3 18                    3660 	.db #0x18	; 24
      000FE4 00                    3661 	.db #0x00	; 0
      000FE5 00                    3662 	.db #0x00	; 0
      000FE6 18                    3663 	.db #0x18	; 24
      000FE7 18                    3664 	.db #0x18	; 24
      000FE8 00                    3665 	.db #0x00	; 0
      000FE9 00                    3666 	.db #0x00	; 0
      000FEA                       3667 _room_1_1_map:
      000FEA 34 01                 3668 	.dw #0x0134
      000FEC 01                    3669 	.db #0x01	; 1
      000FED 02                    3670 	.db #0x02	; 2
      000FEE 03                    3671 	.db #0x03	; 3
      000FEF 04                    3672 	.db #0x04	; 4
      000FF0 05                    3673 	.db #0x05	; 5
      000FF1 06                    3674 	.db #0x06	; 6
      000FF2 07                    3675 	.db #0x07	; 7
      000FF3 08                    3676 	.db #0x08	; 8
      000FF4 09                    3677 	.db #0x09	; 9
      000FF5 00                    3678 	.db #0x00	; 0
      000FF6 0A                    3679 	.db #0x0a	; 10
      000FF7 0B                    3680 	.db #0x0b	; 11
      000FF8 0C                    3681 	.db #0x0c	; 12
      000FF9 0D                    3682 	.db #0x0d	; 13
      000FFA D0                    3683 	.db #0xd0	; 208
      000FFB 00                    3684 	.db #0x00	; 0
      000FFC 0E                    3685 	.db #0x0e	; 14
      000FFD 0F                    3686 	.db #0x0f	; 15
      000FFE 10                    3687 	.db #0x10	; 16
      000FFF 11                    3688 	.db #0x11	; 17
      001000 12                    3689 	.db #0x12	; 18
      001001 13                    3690 	.db #0x13	; 19
      001002 14                    3691 	.db #0x14	; 20
      001003 15                    3692 	.db #0x15	; 21
      001004 16                    3693 	.db #0x16	; 22
      001005 17                    3694 	.db #0x17	; 23
      001006 18                    3695 	.db #0x18	; 24
      001007 19                    3696 	.db #0x19	; 25
      001008 1A                    3697 	.db #0x1a	; 26
      001009 1B                    3698 	.db #0x1b	; 27
      00100A D0                    3699 	.db #0xd0	; 208
      00100B 00                    3700 	.db #0x00	; 0
      00100C 1C                    3701 	.db #0x1c	; 28
      00100D 1D                    3702 	.db #0x1d	; 29
      00100E 1E                    3703 	.db #0x1e	; 30
      00100F 1F                    3704 	.db #0x1f	; 31
      001010 20                    3705 	.db #0x20	; 32
      001011 1E                    3706 	.db #0x1e	; 30
      001012 21                    3707 	.db #0x21	; 33
      001013 22                    3708 	.db #0x22	; 34
      001014 01                    3709 	.db #0x01	; 1
      001015 02                    3710 	.db #0x02	; 2
      001016 03                    3711 	.db #0x03	; 3
      001017 14                    3712 	.db #0x14	; 20
      001018 15                    3713 	.db #0x15	; 21
      001019 16                    3714 	.db #0x16	; 22
      00101A 17                    3715 	.db #0x17	; 23
      00101B 00                    3716 	.db #0x00	; 0
      00101C 23                    3717 	.db #0x23	; 35
      00101D 24                    3718 	.db #0x24	; 36
      00101E CD                    3719 	.db #0xcd	; 205
      00101F 00                    3720 	.db #0x00	; 0
      001020 25                    3721 	.db #0x25	; 37
      001021 26                    3722 	.db #0x26	; 38
      001022 27                    3723 	.db #0x27	; 39
      001023 28                    3724 	.db #0x28	; 40
      001024 29                    3725 	.db #0x29	; 41
      001025 2A                    3726 	.db #0x2a	; 42
      001026 17                    3727 	.db #0x17	; 23
      001027 0E                    3728 	.db #0x0e	; 14
      001028 0F                    3729 	.db #0x0f	; 15
      001029 10                    3730 	.db #0x10	; 16
      00102A 21                    3731 	.db #0x21	; 33
      00102B 22                    3732 	.db #0x22	; 34
      00102C 01                    3733 	.db #0x01	; 1
      00102D 02                    3734 	.db #0x02	; 2
      00102E 03                    3735 	.db #0x03	; 3
      00102F 2B                    3736 	.db #0x2b	; 43
      001030 2C                    3737 	.db #0x2c	; 44
      001031 2D                    3738 	.db #0x2d	; 45
      001032 2C                    3739 	.db #0x2c	; 44
      001033 2E                    3740 	.db #0x2e	; 46
      001034 2F                    3741 	.db #0x2f	; 47
      001035 CA                    3742 	.db #0xca	; 202
      001036 00                    3743 	.db #0x00	; 0
      001037 30                    3744 	.db #0x30	; 48	'0'
      001038 00                    3745 	.db #0x00	; 0
      001039 31                    3746 	.db #0x31	; 49	'1'
      00103A 32                    3747 	.db #0x32	; 50	'2'
      00103B 25                    3748 	.db #0x25	; 37
      00103C 33                    3749 	.db #0x33	; 51	'3'
      00103D 1C                    3750 	.db #0x1c	; 28
      00103E 1D                    3751 	.db #0x1d	; 29
      00103F 1E                    3752 	.db #0x1e	; 30
      001040 26                    3753 	.db #0x26	; 38
      001041 27                    3754 	.db #0x27	; 39
      001042 0E                    3755 	.db #0x0e	; 14
      001043 0F                    3756 	.db #0x0f	; 15
      001044 10                    3757 	.db #0x10	; 16
      001045 34                    3758 	.db #0x34	; 52	'4'
      001046 35                    3759 	.db #0x35	; 53	'5'
      001047 36                    3760 	.db #0x36	; 54	'6'
      001048 C2                    3761 	.db #0xc2	; 194
      001049 34                    3762 	.db #0x34	; 52	'4'
      00104A 2B                    3763 	.db #0x2b	; 43
      00104B 2E                    3764 	.db #0x2e	; 46
      00104C 2F                    3765 	.db #0x2f	; 47
      00104D CF                    3766 	.db #0xcf	; 207
      00104E 00                    3767 	.db #0x00	; 0
      00104F 25                    3768 	.db #0x25	; 37
      001050 00                    3769 	.db #0x00	; 0
      001051 30                    3770 	.db #0x30	; 48	'0'
      001052 00                    3771 	.db #0x00	; 0
      001053 1C                    3772 	.db #0x1c	; 28
      001054 1D                    3773 	.db #0x1d	; 29
      001055 37                    3774 	.db #0x37	; 55	'7'
      001056 05                    3775 	.db #0x05	; 5
      001057 06                    3776 	.db #0x06	; 6
      001058 35                    3777 	.db #0x35	; 53	'5'
      001059 36                    3778 	.db #0x36	; 54	'6'
      00105A 35                    3779 	.db #0x35	; 53	'5'
      00105B 36                    3780 	.db #0x36	; 54	'6'
      00105C 35                    3781 	.db #0x35	; 53	'5'
      00105D 38                    3782 	.db #0x38	; 56	'8'
      00105E D4                    3783 	.db #0xd4	; 212
      00105F 00                    3784 	.db #0x00	; 0
      001060 25                    3785 	.db #0x25	; 37
      001061 11                    3786 	.db #0x11	; 17
      001062 12                    3787 	.db #0x12	; 18
      001063 13                    3788 	.db #0x13	; 19
      001064 39                    3789 	.db #0x39	; 57	'9'
      001065 3A                    3790 	.db #0x3a	; 58
      001066 01                    3791 	.db #0x01	; 1
      001067 02                    3792 	.db #0x02	; 2
      001068 15                    3793 	.db #0x15	; 21
      001069 3B                    3794 	.db #0x3b	; 59
      00106A C9                    3795 	.db #0xc9	; 201
      00106B 00                    3796 	.db #0x00	; 0
      00106C 3C                    3797 	.db #0x3c	; 60
      00106D 3D                    3798 	.db #0x3d	; 61
      00106E CA                    3799 	.db #0xca	; 202
      00106F 00                    3800 	.db #0x00	; 0
      001070 1F                    3801 	.db #0x1f	; 31
      001071 20                    3802 	.db #0x20	; 32
      001072 3E                    3803 	.db #0x3e	; 62
      001073 3F                    3804 	.db #0x3f	; 63
      001074 40                    3805 	.db #0x40	; 64
      001075 1F                    3806 	.db #0x1f	; 31
      001076 20                    3807 	.db #0x20	; 32
      001077 41                    3808 	.db #0x41	; 65	'A'
      001078 CA                    3809 	.db #0xca	; 202
      001079 00                    3810 	.db #0x00	; 0
      00107A 42                    3811 	.db #0x42	; 66	'B'
      00107B 43                    3812 	.db #0x43	; 67	'C'
      00107C CC                    3813 	.db #0xcc	; 204
      00107D 00                    3814 	.db #0x00	; 0
      00107E 44                    3815 	.db #0x44	; 68	'D'
      00107F 45                    3816 	.db #0x45	; 69	'E'
      001080 D7                    3817 	.db #0xd7	; 215
      001081 00                    3818 	.db #0x00	; 0
      001082 3C                    3819 	.db #0x3c	; 60
      001083 3D                    3820 	.db #0x3d	; 61
      001084 D0                    3821 	.db #0xd0	; 208
      001085 00                    3822 	.db #0x00	; 0
      001086 46                    3823 	.db #0x46	; 70	'F'
      001087 47                    3824 	.db #0x47	; 71	'G'
      001088 48                    3825 	.db #0x48	; 72	'H'
      001089 C9                    3826 	.db #0xc9	; 201
      00108A 00                    3827 	.db #0x00	; 0
      00108B 42                    3828 	.db #0x42	; 66	'B'
      00108C 43                    3829 	.db #0x43	; 67	'C'
      00108D D0                    3830 	.db #0xd0	; 208
      00108E 00                    3831 	.db #0x00	; 0
      00108F 49                    3832 	.db #0x49	; 73	'I'
      001090 4A                    3833 	.db #0x4a	; 74	'J'
      001091 4B                    3834 	.db #0x4b	; 75	'K'
      001092 D2                    3835 	.db #0xd2	; 210
      001093 00                    3836 	.db #0x00	; 0
      001094 4C                    3837 	.db #0x4c	; 76	'L'
      001095 C8                    3838 	.db #0xc8	; 200
      001096 00                    3839 	.db #0x00	; 0
      001097 07                    3840 	.db #0x07	; 7
      001098 08                    3841 	.db #0x08	; 8
      001099 09                    3842 	.db #0x09	; 9
      00109A 16                    3843 	.db #0x16	; 22
      00109B 17                    3844 	.db #0x17	; 23
      00109C C6                    3845 	.db #0xc6	; 198
      00109D 00                    3846 	.db #0x00	; 0
      00109E 0A                    3847 	.db #0x0a	; 10
      00109F 0B                    3848 	.db #0x0b	; 11
      0010A0 0C                    3849 	.db #0x0c	; 12
      0010A1 0D                    3850 	.db #0x0d	; 13
      0010A2 16                    3851 	.db #0x16	; 22
      0010A3 17                    3852 	.db #0x17	; 23
      0010A4 0A                    3853 	.db #0x0a	; 10
      0010A5 0B                    3854 	.db #0x0b	; 11
      0010A6 0C                    3855 	.db #0x0c	; 12
      0010A7 0D                    3856 	.db #0x0d	; 13
      0010A8 4D                    3857 	.db #0x4d	; 77	'M'
      0010A9 4E                    3858 	.db #0x4e	; 78	'N'
      0010AA C7                    3859 	.db #0xc7	; 199
      0010AB 00                    3860 	.db #0x00	; 0
      0010AC 02                    3861 	.db #0x02	; 2
      0010AD 03                    3862 	.db #0x03	; 3
      0010AE 29                    3863 	.db #0x29	; 41
      0010AF 2A                    3864 	.db #0x2a	; 42
      0010B0 17                    3865 	.db #0x17	; 23
      0010B1 4F                    3866 	.db #0x4f	; 79	'O'
      0010B2 50                    3867 	.db #0x50	; 80	'P'
      0010B3 51                    3868 	.db #0x51	; 81	'Q'
      0010B4 52                    3869 	.db #0x52	; 82	'R'
      0010B5 4F                    3870 	.db #0x4f	; 79	'O'
      0010B6 50                    3871 	.db #0x50	; 80	'P'
      0010B7 18                    3872 	.db #0x18	; 24
      0010B8 19                    3873 	.db #0x19	; 25
      0010B9 1A                    3874 	.db #0x1a	; 26
      0010BA 1B                    3875 	.db #0x1b	; 27
      0010BB 14                    3876 	.db #0x14	; 20
      0010BC 15                    3877 	.db #0x15	; 21
      0010BD 18                    3878 	.db #0x18	; 24
      0010BE 19                    3879 	.db #0x19	; 25
      0010BF 1A                    3880 	.db #0x1a	; 26
      0010C0 1B                    3881 	.db #0x1b	; 27
      0010C1 53                    3882 	.db #0x53	; 83	'S'
      0010C2 54                    3883 	.db #0x54	; 84	'T'
      0010C3 2B                    3884 	.db #0x2b	; 43
      0010C4 2D                    3885 	.db #0x2d	; 45
      0010C5 55                    3886 	.db #0x55	; 85	'U'
      0010C6 56                    3887 	.db #0x56	; 86	'V'
      0010C7 2D                    3888 	.db #0x2d	; 45
      0010C8 2B                    3889 	.db #0x2b	; 43
      0010C9 2C                    3890 	.db #0x2c	; 44
      0010CA 0F                    3891 	.db #0x0f	; 15
      0010CB 10                    3892 	.db #0x10	; 16
      0010CC 00                    3893 	.db #0x00	; 0
      0010CD 01                    3894 	.db #0x01	; 1
      0010CE 02                    3895 	.db #0x02	; 2
      0010CF 03                    3896 	.db #0x03	; 3
      0010D0 C4                    3897 	.db #0xc4	; 196
      0010D1 00                    3898 	.db #0x00	; 0
      0010D2 01                    3899 	.db #0x01	; 1
      0010D3 02                    3900 	.db #0x02	; 2
      0010D4 03                    3901 	.db #0x03	; 3
      0010D5 57                    3902 	.db #0x57	; 87	'W'
      0010D6 58                    3903 	.db #0x58	; 88	'X'
      0010D7 21                    3904 	.db #0x21	; 33
      0010D8 22                    3905 	.db #0x22	; 34
      0010D9 59                    3906 	.db #0x59	; 89	'Y'
      0010DA 5A                    3907 	.db #0x5a	; 90	'Z'
      0010DB 01                    3908 	.db #0x01	; 1
      0010DC 02                    3909 	.db #0x02	; 2
      0010DD 03                    3910 	.db #0x03	; 3
      0010DE 36                    3911 	.db #0x36	; 54	'6'
      0010DF C2                    3912 	.db #0xc2	; 194
      0010E0 35                    3913 	.db #0x35	; 53	'5'
      0010E1 C3                    3914 	.db #0xc3	; 195
      0010E2 36                    3915 	.db #0x36	; 54	'6'
      0010E3 35                    3916 	.db #0x35	; 53	'5'
      0010E4 36                    3917 	.db #0x36	; 54	'6'
      0010E5 1D                    3918 	.db #0x1d	; 29
      0010E6 5B                    3919 	.db #0x5b	; 91
      0010E7 5C                    3920 	.db #0x5c	; 92
      0010E8 0E                    3921 	.db #0x0e	; 14
      0010E9 0F                    3922 	.db #0x0f	; 15
      0010EA 10                    3923 	.db #0x10	; 16
      0010EB 0A                    3924 	.db #0x0a	; 10
      0010EC 0B                    3925 	.db #0x0b	; 11
      0010ED 0C                    3926 	.db #0x0c	; 12
      0010EE 0D                    3927 	.db #0x0d	; 13
      0010EF 0E                    3928 	.db #0x0e	; 14
      0010F0 0F                    3929 	.db #0x0f	; 15
      0010F1 10                    3930 	.db #0x10	; 16
      0010F2 5D                    3931 	.db #0x5d	; 93
      0010F3 5E                    3932 	.db #0x5e	; 94
      0010F4 5F                    3933 	.db #0x5f	; 95
      0010F5 60                    3934 	.db #0x60	; 96
      0010F6 61                    3935 	.db #0x61	; 97	'a'
      0010F7 62                    3936 	.db #0x62	; 98	'b'
      0010F8 0E                    3937 	.db #0x0e	; 14
      0010F9 0F                    3938 	.db #0x0f	; 15
      0010FA 10                    3939 	.db #0x10	; 16
      0010FB 35                    3940 	.db #0x35	; 53	'5'
      0010FC C3                    3941 	.db #0xc3	; 195
      0010FD 36                    3942 	.db #0x36	; 54	'6'
      0010FE 35                    3943 	.db #0x35	; 53	'5'
      0010FF C2                    3944 	.db #0xc2	; 194
      001100 36                    3945 	.db #0x36	; 54	'6'
      001101 35                    3946 	.db #0x35	; 53	'5'
      001102 00                    3947 	.db #0x00	; 0
      001103 63                    3948 	.db #0x63	; 99	'c'
      001104 64                    3949 	.db #0x64	; 100	'd'
      001105 1C                    3950 	.db #0x1c	; 28
      001106 1D                    3951 	.db #0x1d	; 29
      001107 1E                    3952 	.db #0x1e	; 30
      001108 18                    3953 	.db #0x18	; 24
      001109 19                    3954 	.db #0x19	; 25
      00110A 1A                    3955 	.db #0x1a	; 26
      00110B 1B                    3956 	.db #0x1b	; 27
      00110C 1C                    3957 	.db #0x1c	; 28
      00110D 1D                    3958 	.db #0x1d	; 29
      00110E 1E                    3959 	.db #0x1e	; 30
      00110F 00                    3960 	.db #0x00	; 0
      001110 65                    3961 	.db #0x65	; 101	'e'
      001111 66                    3962 	.db #0x66	; 102	'f'
      001112 67                    3963 	.db #0x67	; 103	'g'
      001113 68                    3964 	.db #0x68	; 104	'h'
      001114 69                    3965 	.db #0x69	; 105	'i'
      001115 6A                    3966 	.db #0x6a	; 106	'j'
      001116 1D                    3967 	.db #0x1d	; 29
      001117 1E                    3968 	.db #0x1e	; 30
      001118 16                    3969 	.db #0x16	; 22
      001119 17                    3970 	.db #0x17	; 23
      00111A 6B                    3971 	.db #0x6b	; 107	'k'
      00111B 6C                    3972 	.db #0x6c	; 108	'l'
      00111C 6D                    3973 	.db #0x6d	; 109	'm'
      00111D 36                    3974 	.db #0x36	; 54	'6'
      00111E 35                    3975 	.db #0x35	; 53	'5'
      00111F 6E                    3976 	.db #0x6e	; 110	'n'
      001120                       3977 _room_1_1_coll:
      001120 5F 00                 3978 	.dw #0x005f
      001122 CE                    3979 	.db #0xce	; 206
      001123 01                    3980 	.db #0x01	; 1
      001124 D0                    3981 	.db #0xd0	; 208
      001125 00                    3982 	.db #0x00	; 0
      001126 CE                    3983 	.db #0xce	; 206
      001127 01                    3984 	.db #0x01	; 1
      001128 D0                    3985 	.db #0xd0	; 208
      001129 00                    3986 	.db #0x00	; 0
      00112A CE                    3987 	.db #0xce	; 206
      00112B 01                    3988 	.db #0x01	; 1
      00112C D5                    3989 	.db #0xd5	; 213
      00112D 00                    3990 	.db #0x00	; 0
      00112E CA                    3991 	.db #0xca	; 202
      00112F 01                    3992 	.db #0x01	; 1
      001130 02                    3993 	.db #0x02	; 2
      001131 D6                    3994 	.db #0xd6	; 214
      001132 00                    3995 	.db #0x00	; 0
      001133 C3                    3996 	.db #0xc3	; 195
      001134 01                    3997 	.db #0x01	; 1
      001135 C2                    3998 	.db #0xc2	; 194
      001136 00                    3999 	.db #0x00	; 0
      001137 C7                    4000 	.db #0xc7	; 199
      001138 01                    4001 	.db #0x01	; 1
      001139 02                    4002 	.db #0x02	; 2
      00113A CC                    4003 	.db #0xcc	; 204
      00113B 00                    4004 	.db #0x00	; 0
      00113C C2                    4005 	.db #0xc2	; 194
      00113D 06                    4006 	.db #0x06	; 6
      00113E C8                    4007 	.db #0xc8	; 200
      00113F 00                    4008 	.db #0x00	; 0
      001140 C9                    4009 	.db #0xc9	; 201
      001141 01                    4010 	.db #0x01	; 1
      001142 02                    4011 	.db #0x02	; 2
      001143 CA                    4012 	.db #0xca	; 202
      001144 00                    4013 	.db #0x00	; 0
      001145 C2                    4014 	.db #0xc2	; 194
      001146 06                    4015 	.db #0x06	; 6
      001147 CA                    4016 	.db #0xca	; 202
      001148 00                    4017 	.db #0x00	; 0
      001149 C8                    4018 	.db #0xc8	; 200
      00114A 01                    4019 	.db #0x01	; 1
      00114B D3                    4020 	.db #0xd3	; 211
      00114C 00                    4021 	.db #0x00	; 0
      00114D C2                    4022 	.db #0xc2	; 194
      00114E 06                    4023 	.db #0x06	; 6
      00114F 00                    4024 	.db #0x00	; 0
      001150 C8                    4025 	.db #0xc8	; 200
      001151 01                    4026 	.db #0x01	; 1
      001152 D3                    4027 	.db #0xd3	; 211
      001153 00                    4028 	.db #0x00	; 0
      001154 C2                    4029 	.db #0xc2	; 194
      001155 06                    4030 	.db #0x06	; 6
      001156 C3                    4031 	.db #0xc3	; 195
      001157 00                    4032 	.db #0x00	; 0
      001158 C2                    4033 	.db #0xc2	; 194
      001159 01                    4034 	.db #0x01	; 1
      00115A E9                    4035 	.db #0xe9	; 233
      00115B 00                    4036 	.db #0x00	; 0
      00115C 01                    4037 	.db #0x01	; 1
      00115D 02                    4038 	.db #0x02	; 2
      00115E DC                    4039 	.db #0xdc	; 220
      00115F 00                    4040 	.db #0x00	; 0
      001160 C2                    4041 	.db #0xc2	; 194
      001161 01                    4042 	.db #0x01	; 1
      001162 02                    4043 	.db #0x02	; 2
      001163 DB                    4044 	.db #0xdb	; 219
      001164 00                    4045 	.db #0x00	; 0
      001165 C4                    4046 	.db #0xc4	; 196
      001166 01                    4047 	.db #0x01	; 1
      001167 02                    4048 	.db #0x02	; 2
      001168 C6                    4049 	.db #0xc6	; 198
      001169 00                    4050 	.db #0x00	; 0
      00116A 02                    4051 	.db #0x02	; 2
      00116B C8                    4052 	.db #0xc8	; 200
      00116C 01                    4053 	.db #0x01	; 1
      00116D 02                    4054 	.db #0x02	; 2
      00116E C9                    4055 	.db #0xc9	; 201
      00116F 00                    4056 	.db #0x00	; 0
      001170 C5                    4057 	.db #0xc5	; 197
      001171 01                    4058 	.db #0x01	; 1
      001172 C6                    4059 	.db #0xc6	; 198
      001173 07                    4060 	.db #0x07	; 7
      001174 CA                    4061 	.db #0xca	; 202
      001175 01                    4062 	.db #0x01	; 1
      001176 02                    4063 	.db #0x02	; 2
      001177 C8                    4064 	.db #0xc8	; 200
      001178 00                    4065 	.db #0x00	; 0
      001179 C5                    4066 	.db #0xc5	; 197
      00117A 01                    4067 	.db #0x01	; 1
      00117B C6                    4068 	.db #0xc6	; 198
      00117C 07                    4069 	.db #0x07	; 7
      00117D FF                    4070 	.db #0xff	; 255
      00117E 01                    4071 	.db #0x01	; 1
      00117F D0                    4072 	.db #0xd0	; 208
      001180 01                    4073 	.db #0x01	; 1
      001181                       4074 _room_1_1_tiles:
      001181 6F                    4075 	.db #0x6f	; 111	'o'
      001182 00                    4076 	.db #0x00	; 0
      001183 03                    4077 	.db #0x03	; 3
      001184 01                    4078 	.db #0x01	; 1
      001185 07                    4079 	.db #0x07	; 7
      001186 0F                    4080 	.db #0x0f	; 15
      001187 1F                    4081 	.db #0x1f	; 31
      001188 3F                    4082 	.db #0x3f	; 63
      001189 7D                    4083 	.db #0x7d	; 125
      00118A 77                    4084 	.db #0x77	; 119	'w'
      00118B FD                    4085 	.db #0xfd	; 253
      00118C 03                    4086 	.db #0x03	; 3
      00118D FF                    4087 	.db #0xff	; 255
      00118E FD                    4088 	.db #0xfd	; 253
      00118F EA                    4089 	.db #0xea	; 234
      001190 BD                    4090 	.db #0xbd	; 189
      001191 EA                    4091 	.db #0xea	; 234
      001192 F7                    4092 	.db #0xf7	; 247
      001193 A8                    4093 	.db #0xa8	; 168
      001194 D5                    4094 	.db #0xd5	; 213
      001195 03                    4095 	.db #0x03	; 3
      001196 00                    4096 	.db #0x00	; 0
      001197 C0                    4097 	.db #0xc0	; 192
      001198 A0                    4098 	.db #0xa0	; 160
      001199 D0                    4099 	.db #0xd0	; 208
      00119A A8                    4100 	.db #0xa8	; 168
      00119B 44                    4101 	.db #0x44	; 68	'D'
      00119C AA                    4102 	.db #0xaa	; 170
      00119D 12                    4103 	.db #0x12	; 18
      00119E 03                    4104 	.db #0x03	; 3
      00119F 00                    4105 	.db #0x00	; 0
      0011A0 00                    4106 	.db #0x00	; 0
      0011A1 00                    4107 	.db #0x00	; 0
      0011A2 00                    4108 	.db #0x00	; 0
      0011A3 01                    4109 	.db #0x01	; 1
      0011A4 03                    4110 	.db #0x03	; 3
      0011A5 07                    4111 	.db #0x07	; 7
      0011A6 0F                    4112 	.db #0x0f	; 15
      0011A7 03                    4113 	.db #0x03	; 3
      0011A8 01                    4114 	.db #0x01	; 1
      0011A9 0F                    4115 	.db #0x0f	; 15
      0011AA 3F                    4116 	.db #0x3f	; 63
      0011AB FB                    4117 	.db #0xfb	; 251
      0011AC FF                    4118 	.db #0xff	; 255
      0011AD EA                    4119 	.db #0xea	; 234
      0011AE FD                    4120 	.db #0xfd	; 253
      0011AF EA                    4121 	.db #0xea	; 234
      0011B0 03                    4122 	.db #0x03	; 3
      0011B1 C0                    4123 	.db #0xc0	; 192
      0011B2 F0                    4124 	.db #0xf0	; 240
      0011B3 F8                    4125 	.db #0xf8	; 248
      0011B4 AC                    4126 	.db #0xac	; 172
      0011B5 F2                    4127 	.db #0xf2	; 242
      0011B6 A9                    4128 	.db #0xa9	; 169
      0011B7 D3                    4129 	.db #0xd3	; 211
      0011B8 A9                    4130 	.db #0xa9	; 169
      0011B9 03                    4131 	.db #0x03	; 3
      0011BA 20                    4132 	.db #0x20	; 32
      0011BB 20                    4133 	.db #0x20	; 32
      0011BC 10                    4134 	.db #0x10	; 16
      0011BD 08                    4135 	.db #0x08	; 8
      0011BE 06                    4136 	.db #0x06	; 6
      0011BF 01                    4137 	.db #0x01	; 1
      0011C0 00                    4138 	.db #0x00	; 0
      0011C1 00                    4139 	.db #0x00	; 0
      0011C2 03                    4140 	.db #0x03	; 3
      0011C3 13                    4141 	.db #0x13	; 19
      0011C4 29                    4142 	.db #0x29	; 41
      0011C5 10                    4143 	.db #0x10	; 16
      0011C6 00                    4144 	.db #0x00	; 0
      0011C7 02                    4145 	.db #0x02	; 2
      0011C8 80                    4146 	.db #0x80	; 128
      0011C9 70                    4147 	.db #0x70	; 112	'p'
      0011CA 0F                    4148 	.db #0x0f	; 15
      0011CB 03                    4149 	.db #0x03	; 3
      0011CC BB                    4150 	.db #0xbb	; 187
      0011CD 55                    4151 	.db #0x55	; 85	'U'
      0011CE 0B                    4152 	.db #0x0b	; 11
      0011CF 52                    4153 	.db #0x52	; 82	'R'
      0011D0 84                    4154 	.db #0x84	; 132
      0011D1 08                    4155 	.db #0x08	; 8
      0011D2 30                    4156 	.db #0x30	; 48	'0'
      0011D3 C0                    4157 	.db #0xc0	; 192
      0011D4 03                    4158 	.db #0x03	; 3
      0011D5 00                    4159 	.db #0x00	; 0
      0011D6 01                    4160 	.db #0x01	; 1
      0011D7 07                    4161 	.db #0x07	; 7
      0011D8 0F                    4162 	.db #0x0f	; 15
      0011D9 1F                    4163 	.db #0x1f	; 31
      0011DA 3F                    4164 	.db #0x3f	; 63
      0011DB 7D                    4165 	.db #0x7d	; 125
      0011DC 7B                    4166 	.db #0x7b	; 123
      0011DD 03                    4167 	.db #0x03	; 3
      0011DE 3F                    4168 	.db #0x3f	; 63
      0011DF FF                    4169 	.db #0xff	; 255
      0011E0 FD                    4170 	.db #0xfd	; 253
      0011E1 EA                    4171 	.db #0xea	; 234
      0011E2 FD                    4172 	.db #0xfd	; 253
      0011E3 AA                    4173 	.db #0xaa	; 170
      0011E4 F7                    4174 	.db #0xf7	; 247
      0011E5 AA                    4175 	.db #0xaa	; 170
      0011E6 03                    4176 	.db #0x03	; 3
      0011E7 F0                    4177 	.db #0xf0	; 240
      0011E8 FE                    4178 	.db #0xfe	; 254
      0011E9 ED                    4179 	.db #0xed	; 237
      0011EA BE                    4180 	.db #0xbe	; 190
      0011EB D5                    4181 	.db #0xd5	; 213
      0011EC A8                    4182 	.db #0xa8	; 168
      0011ED 17                    4183 	.db #0x17	; 23
      0011EE EA                    4184 	.db #0xea	; 234
      0011EF 03                    4185 	.db #0x03	; 3
      0011F0 00                    4186 	.db #0x00	; 0
      0011F1 00                    4187 	.db #0x00	; 0
      0011F2 80                    4188 	.db #0x80	; 128
      0011F3 E0                    4189 	.db #0xe0	; 224
      0011F4 50                    4190 	.db #0x50	; 80	'P'
      0011F5 88                    4191 	.db #0x88	; 136
      0011F6 24                    4192 	.db #0x24	; 36
      0011F7 82                    4193 	.db #0x82	; 130
      0011F8 03                    4194 	.db #0x03	; 3
      0011F9 EE                    4195 	.db #0xee	; 238
      0011FA DD                    4196 	.db #0xdd	; 221
      0011FB AB                    4197 	.db #0xab	; 171
      0011FC D5                    4198 	.db #0xd5	; 213
      0011FD BB                    4199 	.db #0xbb	; 187
      0011FE 51                    4200 	.db #0x51	; 81	'Q'
      0011FF 66                    4201 	.db #0x66	; 102	'f'
      001200 35                    4202 	.db #0x35	; 53	'5'
      001201 03                    4203 	.db #0x03	; 3
      001202 BE                    4204 	.db #0xbe	; 190
      001203 74                    4205 	.db #0x74	; 116	't'
      001204 E9                    4206 	.db #0xe9	; 233
      001205 DC                    4207 	.db #0xdc	; 220
      001206 AA                    4208 	.db #0xaa	; 170
      001207 D4                    4209 	.db #0xd4	; 212
      001208 82                    4210 	.db #0x82	; 130
      001209 50                    4211 	.db #0x50	; 80	'P'
      00120A 03                    4212 	.db #0x03	; 3
      00120B 81                    4213 	.db #0x81	; 129
      00120C 29                    4214 	.db #0x29	; 41
      00120D 11                    4215 	.db #0x11	; 17
      00120E 01                    4216 	.db #0x01	; 1
      00120F A2                    4217 	.db #0xa2	; 162
      001210 42                    4218 	.db #0x42	; 66	'B'
      001211 02                    4219 	.db #0x02	; 2
      001212 04                    4220 	.db #0x04	; 4
      001213 03                    4221 	.db #0x03	; 3
      001214 1F                    4222 	.db #0x1f	; 31
      001215 3E                    4223 	.db #0x3e	; 62
      001216 75                    4224 	.db #0x75	; 117	'u'
      001217 7F                    4225 	.db #0x7f	; 127
      001218 75                    4226 	.db #0x75	; 117	'u'
      001219 AE                    4227 	.db #0xae	; 174
      00121A F4                    4228 	.db #0xf4	; 244
      00121B AA                    4229 	.db #0xaa	; 170
      00121C 03                    4230 	.db #0x03	; 3
      00121D 5D                    4231 	.db #0x5d	; 93
      00121E FA                    4232 	.db #0xfa	; 250
      00121F 55                    4233 	.db #0x55	; 85	'U'
      001220 AA                    4234 	.db #0xaa	; 170
      001221 71                    4235 	.db #0x71	; 113	'q'
      001222 2A                    4236 	.db #0x2a	; 42
      001223 C4                    4237 	.db #0xc4	; 196
      001224 80                    4238 	.db #0x80	; 128
      001225 03                    4239 	.db #0x03	; 3
      001226 11                    4240 	.db #0x11	; 17
      001227 B5                    4241 	.db #0xb5	; 181
      001228 71                    4242 	.db #0x71	; 113	'q'
      001229 21                    4243 	.db #0x21	; 33
      00122A 51                    4244 	.db #0x51	; 81	'Q'
      00122B 82                    4245 	.db #0x82	; 130
      00122C 42                    4246 	.db #0x42	; 66	'B'
      00122D 02                    4247 	.db #0x02	; 2
      00122E 03                    4248 	.db #0x03	; 3
      00122F 00                    4249 	.db #0x00	; 0
      001230 03                    4250 	.db #0x03	; 3
      001231 07                    4251 	.db #0x07	; 7
      001232 0E                    4252 	.db #0x0e	; 14
      001233 1F                    4253 	.db #0x1f	; 31
      001234 3A                    4254 	.db #0x3a	; 58
      001235 77                    4255 	.db #0x77	; 119	'w'
      001236 7A                    4256 	.db #0x7a	; 122	'z'
      001237 03                    4257 	.db #0x03	; 3
      001238 F8                    4258 	.db #0xf8	; 248
      001239 FC                    4259 	.db #0xfc	; 252
      00123A D6                    4260 	.db #0xd6	; 214
      00123B A1                    4261 	.db #0xa1	; 161
      00123C 55                    4262 	.db #0x55	; 85	'U'
      00123D 81                    4263 	.db #0x81	; 129
      00123E 51                    4264 	.db #0x51	; 81	'Q'
      00123F 82                    4265 	.db #0x82	; 130
      001240 03                    4266 	.db #0x03	; 3
      001241 0F                    4267 	.db #0x0f	; 15
      001242 3E                    4268 	.db #0x3e	; 62
      001243 77                    4269 	.db #0x77	; 119	'w'
      001244 FA                    4270 	.db #0xfa	; 250
      001245 D4                    4271 	.db #0xd4	; 212
      001246 60                    4272 	.db #0x60	; 96
      001247 34                    4273 	.db #0x34	; 52	'4'
      001248 0F                    4274 	.db #0x0f	; 15
      001249 03                    4275 	.db #0x03	; 3
      00124A E0                    4276 	.db #0xe0	; 224
      00124B B8                    4277 	.db #0xb8	; 184
      00124C 56                    4278 	.db #0x56	; 86	'V'
      00124D 89                    4279 	.db #0x89	; 137
      00124E 41                    4280 	.db #0x41	; 65	'A'
      00124F 02                    4281 	.db #0x02	; 2
      001250 1C                    4282 	.db #0x1c	; 28
      001251 E0                    4283 	.db #0xe0	; 224
      001252 03                    4284 	.db #0x03	; 3
      001253 D5                    4285 	.db #0xd5	; 213
      001254 A0                    4286 	.db #0xa0	; 160
      001255 83                    4287 	.db #0x83	; 131
      001256 46                    4288 	.db #0x46	; 70	'F'
      001257 21                    4289 	.db #0x21	; 33
      001258 18                    4290 	.db #0x18	; 24
      001259 07                    4291 	.db #0x07	; 7
      00125A 00                    4292 	.db #0x00	; 0
      00125B 03                    4293 	.db #0x03	; 3
      00125C 77                    4294 	.db #0x77	; 119	'w'
      00125D AE                    4295 	.db #0xae	; 174
      00125E 5D                    4296 	.db #0x5d	; 93
      00125F 2A                    4297 	.db #0x2a	; 42
      001260 4D                    4298 	.db #0x4d	; 77	'M'
      001261 20                    4299 	.db #0x20	; 32
      001262 00                    4300 	.db #0x00	; 0
      001263 FF                    4301 	.db #0xff	; 255
      001264 03                    4302 	.db #0x03	; 3
      001265 44                    4303 	.db #0x44	; 68	'D'
      001266 88                    4304 	.db #0x88	; 136
      001267 42                    4305 	.db #0x42	; 66	'B'
      001268 80                    4306 	.db #0x80	; 128
      001269 00                    4307 	.db #0x00	; 0
      00126A 00                    4308 	.db #0x00	; 0
      00126B 00                    4309 	.db #0x00	; 0
      00126C FF                    4310 	.db #0xff	; 255
      00126D 03                    4311 	.db #0x03	; 3
      00126E 51                    4312 	.db #0x51	; 81	'Q'
      00126F 81                    4313 	.db #0x81	; 129
      001270 01                    4314 	.db #0x01	; 1
      001271 01                    4315 	.db #0x01	; 1
      001272 02                    4316 	.db #0x02	; 2
      001273 04                    4317 	.db #0x04	; 4
      001274 38                    4318 	.db #0x38	; 56	'8'
      001275 C0                    4319 	.db #0xc0	; 192
      001276 03                    4320 	.db #0x03	; 3
      001277 1A                    4321 	.db #0x1a	; 26
      001278 14                    4322 	.db #0x14	; 20
      001279 0B                    4323 	.db #0x0b	; 11
      00127A 05                    4324 	.db #0x05	; 5
      00127B 02                    4325 	.db #0x02	; 2
      00127C 01                    4326 	.db #0x01	; 1
      00127D 00                    4327 	.db #0x00	; 0
      00127E 00                    4328 	.db #0x00	; 0
      00127F 03                    4329 	.db #0x03	; 3
      001280 89                    4330 	.db #0x89	; 137
      001281 40                    4331 	.db #0x40	; 64
      001282 90                    4332 	.db #0x90	; 144
      001283 00                    4333 	.db #0x00	; 0
      001284 48                    4334 	.db #0x48	; 72	'H'
      001285 20                    4335 	.db #0x20	; 32
      001286 C1                    4336 	.db #0xc1	; 193
      001287 3E                    4337 	.db #0x3e	; 62
      001288 03                    4338 	.db #0x03	; 3
      001289 04                    4339 	.db #0x04	; 4
      00128A 08                    4340 	.db #0x08	; 8
      00128B 08                    4341 	.db #0x08	; 8
      00128C 10                    4342 	.db #0x10	; 16
      00128D 20                    4343 	.db #0x20	; 32
      00128E 40                    4344 	.db #0x40	; 64
      00128F 80                    4345 	.db #0x80	; 128
      001290 00                    4346 	.db #0x00	; 0
      001291 03                    4347 	.db #0x03	; 3
      001292 DD                    4348 	.db #0xdd	; 221
      001293 AA                    4349 	.db #0xaa	; 170
      001294 D0                    4350 	.db #0xd0	; 208
      001295 4A                    4351 	.db #0x4a	; 74	'J'
      001296 21                    4352 	.db #0x21	; 33
      001297 10                    4353 	.db #0x10	; 16
      001298 0C                    4354 	.db #0x0c	; 12
      001299 03                    4355 	.db #0x03	; 3
      00129A 03                    4356 	.db #0x03	; 3
      00129B C8                    4357 	.db #0xc8	; 200
      00129C 94                    4358 	.db #0x94	; 148
      00129D 08                    4359 	.db #0x08	; 8
      00129E 00                    4360 	.db #0x00	; 0
      00129F 40                    4361 	.db #0x40	; 64
      0012A0 01                    4362 	.db #0x01	; 1
      0012A1 0E                    4363 	.db #0x0e	; 14
      0012A2 F0                    4364 	.db #0xf0	; 240
      0012A3 03                    4365 	.db #0x03	; 3
      0012A4 D5                    4366 	.db #0xd5	; 213
      0012A5 F8                    4367 	.db #0xf8	; 248
      0012A6 D4                    4368 	.db #0xd4	; 212
      0012A7 A0                    4369 	.db #0xa0	; 160
      0012A8 94                    4370 	.db #0x94	; 148
      0012A9 40                    4371 	.db #0x40	; 64
      0012AA 3F                    4372 	.db #0x3f	; 63
      0012AB 00                    4373 	.db #0x00	; 0
      0012AC 03                    4374 	.db #0x03	; 3
      0012AD 02                    4375 	.db #0x02	; 2
      0012AE 84                    4376 	.db #0x84	; 132
      0012AF 04                    4377 	.db #0x04	; 4
      0012B0 08                    4378 	.db #0x08	; 8
      0012B1 10                    4379 	.db #0x10	; 16
      0012B2 60                    4380 	.db #0x60	; 96
      0012B3 80                    4381 	.db #0x80	; 128
      0012B4 00                    4382 	.db #0x00	; 0
      0012B5 02                    4383 	.db #0x02	; 2
      0012B6 08                    4384 	.db #0x08	; 8
      0012B7 14                    4385 	.db #0x14	; 20
      0012B8 02                    4386 	.db #0x02	; 2
      0012B9 02                    4387 	.db #0x02	; 2
      0012BA 01                    4388 	.db #0x01	; 1
      0012BB 01                    4389 	.db #0x01	; 1
      0012BC 01                    4390 	.db #0x01	; 1
      0012BD 01                    4391 	.db #0x01	; 1
      0012BE 02                    4392 	.db #0x02	; 2
      0012BF 00                    4393 	.db #0x00	; 0
      0012C0 00                    4394 	.db #0x00	; 0
      0012C1 0C                    4395 	.db #0x0c	; 12
      0012C2 10                    4396 	.db #0x10	; 16
      0012C3 10                    4397 	.db #0x10	; 16
      0012C4 20                    4398 	.db #0x20	; 32
      0012C5 20                    4399 	.db #0x20	; 32
      0012C6 48                    4400 	.db #0x48	; 72	'H'
      0012C7 03                    4401 	.db #0x03	; 3
      0012C8 AA                    4402 	.db #0xaa	; 170
      0012C9 F6                    4403 	.db #0xf6	; 246
      0012CA 94                    4404 	.db #0x94	; 148
      0012CB 1C                    4405 	.db #0x1c	; 28
      0012CC 18                    4406 	.db #0x18	; 24
      0012CD 18                    4407 	.db #0x18	; 24
      0012CE 08                    4408 	.db #0x08	; 8
      0012CF 08                    4409 	.db #0x08	; 8
      0012D0 03                    4410 	.db #0x03	; 3
      0012D1 6F                    4411 	.db #0x6f	; 111	'o'
      0012D2 69                    4412 	.db #0x69	; 105	'i'
      0012D3 E1                    4413 	.db #0xe1	; 225
      0012D4 61                    4414 	.db #0x61	; 97	'a'
      0012D5 61                    4415 	.db #0x61	; 97	'a'
      0012D6 60                    4416 	.db #0x60	; 96
      0012D7 60                    4417 	.db #0x60	; 96
      0012D8 40                    4418 	.db #0x40	; 64
      0012D9 03                    4419 	.db #0x03	; 3
      0012DA 60                    4420 	.db #0x60	; 96
      0012DB 40                    4421 	.db #0x40	; 64
      0012DC C0                    4422 	.db #0xc0	; 192
      0012DD 80                    4423 	.db #0x80	; 128
      0012DE 80                    4424 	.db #0x80	; 128
      0012DF 80                    4425 	.db #0x80	; 128
      0012E0 80                    4426 	.db #0x80	; 128
      0012E1 00                    4427 	.db #0x00	; 0
      0012E2 03                    4428 	.db #0x03	; 3
      0012E3 5B                    4429 	.db #0x5b	; 91
      0012E4 5F                    4430 	.db #0x5f	; 95
      0012E5 36                    4431 	.db #0x36	; 54	'6'
      0012E6 36                    4432 	.db #0x36	; 54	'6'
      0012E7 36                    4433 	.db #0x36	; 54	'6'
      0012E8 2B                    4434 	.db #0x2b	; 43
      0012E9 2B                    4435 	.db #0x2b	; 43
      0012EA 2B                    4436 	.db #0x2b	; 43
      0012EB 03                    4437 	.db #0x03	; 3
      0012EC 07                    4438 	.db #0x07	; 7
      0012ED 1F                    4439 	.db #0x1f	; 31
      0012EE 3B                    4440 	.db #0x3b	; 59
      0012EF 7D                    4441 	.db #0x7d	; 125
      0012F0 6A                    4442 	.db #0x6a	; 106	'j'
      0012F1 30                    4443 	.db #0x30	; 48	'0'
      0012F2 1A                    4444 	.db #0x1a	; 26
      0012F3 07                    4445 	.db #0x07	; 7
      0012F4 03                    4446 	.db #0x03	; 3
      0012F5 FF                    4447 	.db #0xff	; 255
      0012F6 75                    4448 	.db #0x75	; 117	'u'
      0012F7 BA                    4449 	.db #0xba	; 186
      0012F8 54                    4450 	.db #0x54	; 84	'T'
      0012F9 22                    4451 	.db #0x22	; 34
      0012FA 00                    4452 	.db #0x00	; 0
      0012FB 20                    4453 	.db #0x20	; 32
      0012FC 80                    4454 	.db #0x80	; 128
      0012FD 02                    4455 	.db #0x02	; 2
      0012FE 01                    4456 	.db #0x01	; 1
      0012FF 22                    4457 	.db #0x22	; 34
      001300 12                    4458 	.db #0x12	; 18
      001301 0C                    4459 	.db #0x0c	; 12
      001302 14                    4460 	.db #0x14	; 20
      001303 56                    4461 	.db #0x56	; 86	'V'
      001304 3B                    4462 	.db #0x3b	; 59
      001305 56                    4463 	.db #0x56	; 86	'V'
      001306 02                    4464 	.db #0x02	; 2
      001307 50                    4465 	.db #0x50	; 80	'P'
      001308 D2                    4466 	.db #0xd2	; 210
      001309 A4                    4467 	.db #0xa4	; 164
      00130A 94                    4468 	.db #0x94	; 148
      00130B 49                    4469 	.db #0x49	; 73	'I'
      00130C 95                    4470 	.db #0x95	; 149
      00130D B6                    4471 	.db #0xb6	; 182
      00130E EB                    4472 	.db #0xeb	; 235
      00130F 02                    4473 	.db #0x02	; 2
      001310 02                    4474 	.db #0x02	; 2
      001311 02                    4475 	.db #0x02	; 2
      001312 0A                    4476 	.db #0x0a	; 10
      001313 52                    4477 	.db #0x52	; 82	'R'
      001314 24                    4478 	.db #0x24	; 36
      001315 65                    4479 	.db #0x65	; 101	'e'
      001316 95                    4480 	.db #0x95	; 149
      001317 6A                    4481 	.db #0x6a	; 106	'j'
      001318 02                    4482 	.db #0x02	; 2
      001319 00                    4483 	.db #0x00	; 0
      00131A 80                    4484 	.db #0x80	; 128
      00131B 40                    4485 	.db #0x40	; 64
      00131C 20                    4486 	.db #0x20	; 32
      00131D A1                    4487 	.db #0xa1	; 161
      00131E 91                    4488 	.db #0x91	; 145
      00131F 92                    4489 	.db #0x92	; 146
      001320 92                    4490 	.db #0x92	; 146
      001321 02                    4491 	.db #0x02	; 2
      001322 00                    4492 	.db #0x00	; 0
      001323 00                    4493 	.db #0x00	; 0
      001324 00                    4494 	.db #0x00	; 0
      001325 C0                    4495 	.db #0xc0	; 192
      001326 00                    4496 	.db #0x00	; 0
      001327 00                    4497 	.db #0x00	; 0
      001328 00                    4498 	.db #0x00	; 0
      001329 00                    4499 	.db #0x00	; 0
      00132A 03                    4500 	.db #0x03	; 3
      00132B 40                    4501 	.db #0x40	; 64
      00132C 40                    4502 	.db #0x40	; 64
      00132D 40                    4503 	.db #0x40	; 64
      00132E 40                    4504 	.db #0x40	; 64
      00132F 40                    4505 	.db #0x40	; 64
      001330 00                    4506 	.db #0x00	; 0
      001331 40                    4507 	.db #0x40	; 64
      001332 00                    4508 	.db #0x00	; 0
      001333 03                    4509 	.db #0x03	; 3
      001334 2B                    4510 	.db #0x2b	; 43
      001335 07                    4511 	.db #0x07	; 7
      001336 06                    4512 	.db #0x06	; 6
      001337 06                    4513 	.db #0x06	; 6
      001338 06                    4514 	.db #0x06	; 6
      001339 04                    4515 	.db #0x04	; 4
      00133A 04                    4516 	.db #0x04	; 4
      00133B 04                    4517 	.db #0x04	; 4
      00133C 03                    4518 	.db #0x03	; 3
      00133D 10                    4519 	.db #0x10	; 16
      00133E 10                    4520 	.db #0x10	; 16
      00133F 10                    4521 	.db #0x10	; 16
      001340 10                    4522 	.db #0x10	; 16
      001341 10                    4523 	.db #0x10	; 16
      001342 00                    4524 	.db #0x00	; 0
      001343 10                    4525 	.db #0x10	; 16
      001344 00                    4526 	.db #0x00	; 0
      001345 03                    4527 	.db #0x03	; 3
      001346 14                    4528 	.db #0x14	; 20
      001347 10                    4529 	.db #0x10	; 16
      001348 14                    4530 	.db #0x14	; 20
      001349 18                    4531 	.db #0x18	; 24
      00134A 18                    4532 	.db #0x18	; 24
      00134B 18                    4533 	.db #0x18	; 24
      00134C 10                    4534 	.db #0x10	; 16
      00134D 10                    4535 	.db #0x10	; 16
      00134E 03                    4536 	.db #0x03	; 3
      00134F 30                    4537 	.db #0x30	; 48	'0'
      001350 7E                    4538 	.db #0x7e	; 126
      001351 FE                    4539 	.db #0xfe	; 254
      001352 CF                    4540 	.db #0xcf	; 207
      001353 A5                    4541 	.db #0xa5	; 165
      001354 68                    4542 	.db #0x68	; 104	'h'
      001355 AB                    4543 	.db #0xab	; 171
      001356 9A                    4544 	.db #0x9a	; 154
      001357 03                    4545 	.db #0x03	; 3
      001358 38                    4546 	.db #0x38	; 56	'8'
      001359 63                    4547 	.db #0x63	; 99	'c'
      00135A CB                    4548 	.db #0xcb	; 203
      00135B AF                    4549 	.db #0xaf	; 175
      00135C E7                    4550 	.db #0xe7	; 231
      00135D 81                    4551 	.db #0x81	; 129
      00135E 2A                    4552 	.db #0x2a	; 42
      00135F EC                    4553 	.db #0xec	; 236
      001360 03                    4554 	.db #0x03	; 3
      001361 38                    4555 	.db #0x38	; 56	'8'
      001362 DF                    4556 	.db #0xdf	; 223
      001363 DF                    4557 	.db #0xdf	; 223
      001364 7B                    4558 	.db #0x7b	; 123
      001365 52                    4559 	.db #0x52	; 82	'R'
      001366 8C                    4560 	.db #0x8c	; 140
      001367 D6                    4561 	.db #0xd6	; 214
      001368 54                    4562 	.db #0x54	; 84	'T'
      001369 03                    4563 	.db #0x03	; 3
      00136A 04                    4564 	.db #0x04	; 4
      00136B 04                    4565 	.db #0x04	; 4
      00136C 08                    4566 	.db #0x08	; 8
      00136D 30                    4567 	.db #0x30	; 48	'0'
      00136E C1                    4568 	.db #0xc1	; 193
      00136F 03                    4569 	.db #0x03	; 3
      001370 07                    4570 	.db #0x07	; 7
      001371 0F                    4571 	.db #0x0f	; 15
      001372 02                    4572 	.db #0x02	; 2
      001373 80                    4573 	.db #0x80	; 128
      001374 00                    4574 	.db #0x00	; 0
      001375 00                    4575 	.db #0x00	; 0
      001376 00                    4576 	.db #0x00	; 0
      001377 00                    4577 	.db #0x00	; 0
      001378 00                    4578 	.db #0x00	; 0
      001379 80                    4579 	.db #0x80	; 128
      00137A C0                    4580 	.db #0xc0	; 192
      00137B 03                    4581 	.db #0x03	; 3
      00137C 0F                    4582 	.db #0x0f	; 15
      00137D 1F                    4583 	.db #0x1f	; 31
      00137E 3A                    4584 	.db #0x3a	; 58
      00137F 7F                    4585 	.db #0x7f	; 127
      001380 EA                    4586 	.db #0xea	; 234
      001381 FD                    4587 	.db #0xfd	; 253
      001382 DA                    4588 	.db #0xda	; 218
      001383 7F                    4589 	.db #0x7f	; 127
      001384 03                    4590 	.db #0x03	; 3
      001385 C0                    4591 	.db #0xc0	; 192
      001386 60                    4592 	.db #0x60	; 96
      001387 B0                    4593 	.db #0xb0	; 176
      001388 58                    4594 	.db #0x58	; 88	'X'
      001389 E6                    4595 	.db #0xe6	; 230
      00138A 51                    4596 	.db #0x51	; 81	'Q'
      00138B 81                    4597 	.db #0x81	; 129
      00138C D1                    4598 	.db #0xd1	; 209
      00138D 03                    4599 	.db #0x03	; 3
      00138E E0                    4600 	.db #0xe0	; 224
      00138F 60                    4601 	.db #0x60	; 96
      001390 A0                    4602 	.db #0xa0	; 160
      001391 40                    4603 	.db #0x40	; 64
      001392 80                    4604 	.db #0x80	; 128
      001393 00                    4605 	.db #0x00	; 0
      001394 00                    4606 	.db #0x00	; 0
      001395 00                    4607 	.db #0x00	; 0
      001396 02                    4608 	.db #0x02	; 2
      001397 00                    4609 	.db #0x00	; 0
      001398 0F                    4610 	.db #0x0f	; 15
      001399 07                    4611 	.db #0x07	; 7
      00139A 00                    4612 	.db #0x00	; 0
      00139B 03                    4613 	.db #0x03	; 3
      00139C 00                    4614 	.db #0x00	; 0
      00139D 07                    4615 	.db #0x07	; 7
      00139E 00                    4616 	.db #0x00	; 0
      00139F 02                    4617 	.db #0x02	; 2
      0013A0 00                    4618 	.db #0x00	; 0
      0013A1 50                    4619 	.db #0x50	; 80	'P'
      0013A2 A0                    4620 	.db #0xa0	; 160
      0013A3 00                    4621 	.db #0x00	; 0
      0013A4 40                    4622 	.db #0x40	; 64
      0013A5 00                    4623 	.db #0x00	; 0
      0013A6 A0                    4624 	.db #0xa0	; 160
      0013A7 00                    4625 	.db #0x00	; 0
      0013A8 03                    4626 	.db #0x03	; 3
      0013A9 04                    4627 	.db #0x04	; 4
      0013AA 04                    4628 	.db #0x04	; 4
      0013AB 08                    4629 	.db #0x08	; 8
      0013AC 13                    4630 	.db #0x13	; 19
      0013AD 67                    4631 	.db #0x67	; 103	'g'
      0013AE 8D                    4632 	.db #0x8d	; 141
      0013AF 12                    4633 	.db #0x12	; 18
      0013B0 11                    4634 	.db #0x11	; 17
      0013B1 03                    4635 	.db #0x03	; 3
      0013B2 7E                    4636 	.db #0x7e	; 126
      0013B3 55                    4637 	.db #0x55	; 85	'U'
      0013B4 3E                    4638 	.db #0x3e	; 62
      0013B5 34                    4639 	.db #0x34	; 52	'4'
      0013B6 9A                    4640 	.db #0x9a	; 154
      0013B7 CC                    4641 	.db #0xcc	; 204
      0013B8 E6                    4642 	.db #0xe6	; 230
      0013B9 63                    4643 	.db #0x63	; 99	'c'
      0013BA 03                    4644 	.db #0x03	; 3
      0013BB A1                    4645 	.db #0xa1	; 161
      0013BC 52                    4646 	.db #0x52	; 82	'R'
      0013BD 04                    4647 	.db #0x04	; 4
      0013BE 88                    4648 	.db #0x88	; 136
      0013BF 10                    4649 	.db #0x10	; 16
      0013C0 10                    4650 	.db #0x10	; 16
      0013C1 20                    4651 	.db #0x20	; 32
      0013C2 C0                    4652 	.db #0xc0	; 192
      0013C3 03                    4653 	.db #0x03	; 3
      0013C4 04                    4654 	.db #0x04	; 4
      0013C5 04                    4655 	.db #0x04	; 4
      0013C6 08                    4656 	.db #0x08	; 8
      0013C7 10                    4657 	.db #0x10	; 16
      0013C8 60                    4658 	.db #0x60	; 96
      0013C9 80                    4659 	.db #0x80	; 128
      0013CA 00                    4660 	.db #0x00	; 0
      0013CB 00                    4661 	.db #0x00	; 0
      0013CC 02                    4662 	.db #0x02	; 2
      0013CD 01                    4663 	.db #0x01	; 1
      0013CE 03                    4664 	.db #0x03	; 3
      0013CF 03                    4665 	.db #0x03	; 3
      0013D0 00                    4666 	.db #0x00	; 0
      0013D1 01                    4667 	.db #0x01	; 1
      0013D2 03                    4668 	.db #0x03	; 3
      0013D3 01                    4669 	.db #0x01	; 1
      0013D4 00                    4670 	.db #0x00	; 0
      0013D5 02                    4671 	.db #0x02	; 2
      0013D6 80                    4672 	.db #0x80	; 128
      0013D7 40                    4673 	.db #0x40	; 64
      0013D8 C0                    4674 	.db #0xc0	; 192
      0013D9 00                    4675 	.db #0x00	; 0
      0013DA 80                    4676 	.db #0x80	; 128
      0013DB 40                    4677 	.db #0x40	; 64
      0013DC 80                    4678 	.db #0x80	; 128
      0013DD 00                    4679 	.db #0x00	; 0
      0013DE 03                    4680 	.db #0x03	; 3
      0013DF 12                    4681 	.db #0x12	; 18
      0013E0 08                    4682 	.db #0x08	; 8
      0013E1 07                    4683 	.db #0x07	; 7
      0013E2 00                    4684 	.db #0x00	; 0
      0013E3 00                    4685 	.db #0x00	; 0
      0013E4 00                    4686 	.db #0x00	; 0
      0013E5 00                    4687 	.db #0x00	; 0
      0013E6 00                    4688 	.db #0x00	; 0
      0013E7 03                    4689 	.db #0x03	; 3
      0013E8 A0                    4690 	.db #0xa0	; 160
      0013E9 40                    4691 	.db #0x40	; 64
      0013EA 80                    4692 	.db #0x80	; 128
      0013EB 00                    4693 	.db #0x00	; 0
      0013EC 00                    4694 	.db #0x00	; 0
      0013ED 00                    4695 	.db #0x00	; 0
      0013EE 00                    4696 	.db #0x00	; 0
      0013EF 00                    4697 	.db #0x00	; 0
      0013F0 03                    4698 	.db #0x03	; 3
      0013F1 03                    4699 	.db #0x03	; 3
      0013F2 0F                    4700 	.db #0x0f	; 15
      0013F3 1F                    4701 	.db #0x1f	; 31
      0013F4 35                    4702 	.db #0x35	; 53	'5'
      0013F5 4F                    4703 	.db #0x4f	; 79	'O'
      0013F6 95                    4704 	.db #0x95	; 149
      0013F7 CB                    4705 	.db #0xcb	; 203
      0013F8 95                    4706 	.db #0x95	; 149
      0013F9 03                    4707 	.db #0x03	; 3
      0013FA 80                    4708 	.db #0x80	; 128
      0013FB F0                    4709 	.db #0xf0	; 240
      0013FC FC                    4710 	.db #0xfc	; 252
      0013FD DF                    4711 	.db #0xdf	; 223
      0013FE FF                    4712 	.db #0xff	; 255
      0013FF 57                    4713 	.db #0x57	; 87	'W'
      001400 BF                    4714 	.db #0xbf	; 191
      001401 57                    4715 	.db #0x57	; 87	'W'
      001402 03                    4716 	.db #0x03	; 3
      001403 00                    4717 	.db #0x00	; 0
      001404 00                    4718 	.db #0x00	; 0
      001405 00                    4719 	.db #0x00	; 0
      001406 00                    4720 	.db #0x00	; 0
      001407 80                    4721 	.db #0x80	; 128
      001408 C0                    4722 	.db #0xc0	; 192
      001409 E0                    4723 	.db #0xe0	; 224
      00140A F0                    4724 	.db #0xf0	; 240
      00140B 03                    4725 	.db #0x03	; 3
      00140C 88                    4726 	.db #0x88	; 136
      00140D AD                    4727 	.db #0xad	; 173
      00140E 8E                    4728 	.db #0x8e	; 142
      00140F 84                    4729 	.db #0x84	; 132
      001410 8A                    4730 	.db #0x8a	; 138
      001411 41                    4731 	.db #0x41	; 65	'A'
      001412 42                    4732 	.db #0x42	; 66	'B'
      001413 40                    4733 	.db #0x40	; 64
      001414 03                    4734 	.db #0x03	; 3
      001415 BA                    4735 	.db #0xba	; 186
      001416 5F                    4736 	.db #0x5f	; 95
      001417 AA                    4737 	.db #0xaa	; 170
      001418 55                    4738 	.db #0x55	; 85	'U'
      001419 8E                    4739 	.db #0x8e	; 142
      00141A 54                    4740 	.db #0x54	; 84	'T'
      00141B 23                    4741 	.db #0x23	; 35
      00141C 01                    4742 	.db #0x01	; 1
      00141D 03                    4743 	.db #0x03	; 3
      00141E F8                    4744 	.db #0xf8	; 248
      00141F 7C                    4745 	.db #0x7c	; 124
      001420 AE                    4746 	.db #0xae	; 174
      001421 FE                    4747 	.db #0xfe	; 254
      001422 AE                    4748 	.db #0xae	; 174
      001423 75                    4749 	.db #0x75	; 117	'u'
      001424 2F                    4750 	.db #0x2f	; 47
      001425 55                    4751 	.db #0x55	; 85	'U'
      001426 02                    4752 	.db #0x02	; 2
      001427 00                    4753 	.db #0x00	; 0
      001428 00                    4754 	.db #0x00	; 0
      001429 00                    4755 	.db #0x00	; 0
      00142A 1C                    4756 	.db #0x1c	; 28
      00142B 2E                    4757 	.db #0x2e	; 46
      00142C 1E                    4758 	.db #0x1e	; 30
      00142D 03                    4759 	.db #0x03	; 3
      00142E 81                    4760 	.db #0x81	; 129
      00142F 02                    4761 	.db #0x02	; 2
      001430 89                    4762 	.db #0x89	; 137
      001431 9A                    4763 	.db #0x9a	; 154
      001432 D6                    4764 	.db #0xd6	; 214
      001433 65                    4765 	.db #0x65	; 101	'e'
      001434 75                    4766 	.db #0x75	; 117	'u'
      001435 B7                    4767 	.db #0xb7	; 183
      001436 DF                    4768 	.db #0xdf	; 223
      001437 6B                    4769 	.db #0x6b	; 107	'k'
      001438 02                    4770 	.db #0x02	; 2
      001439 10                    4771 	.db #0x10	; 16
      00143A 60                    4772 	.db #0x60	; 96
      00143B C0                    4773 	.db #0xc0	; 192
      00143C 80                    4774 	.db #0x80	; 128
      00143D 90                    4775 	.db #0x90	; 144
      00143E 20                    4776 	.db #0x20	; 32
      00143F 20                    4777 	.db #0x20	; 32
      001440 40                    4778 	.db #0x40	; 64
      001441 02                    4779 	.db #0x02	; 2
      001442 03                    4780 	.db #0x03	; 3
      001443 1C                    4781 	.db #0x1c	; 28
      001444 E5                    4782 	.db #0xe5	; 229
      001445 12                    4783 	.db #0x12	; 18
      001446 40                    4784 	.db #0x40	; 64
      001447 00                    4785 	.db #0x00	; 0
      001448 00                    4786 	.db #0x00	; 0
      001449 00                    4787 	.db #0x00	; 0
      00144A 02                    4788 	.db #0x02	; 2
      00144B C0                    4789 	.db #0xc0	; 192
      00144C 38                    4790 	.db #0x38	; 56	'8'
      00144D 27                    4791 	.db #0x27	; 39
      00144E 41                    4792 	.db #0x41	; 65	'A'
      00144F 04                    4793 	.db #0x04	; 4
      001450 00                    4794 	.db #0x00	; 0
      001451 00                    4795 	.db #0x00	; 0
      001452 00                    4796 	.db #0x00	; 0
      001453 02                    4797 	.db #0x02	; 2
      001454 03                    4798 	.db #0x03	; 3
      001455 1C                    4799 	.db #0x1c	; 28
      001456 E9                    4800 	.db #0xe9	; 233
      001457 40                    4801 	.db #0x40	; 64
      001458 10                    4802 	.db #0x10	; 16
      001459 00                    4803 	.db #0x00	; 0
      00145A 00                    4804 	.db #0x00	; 0
      00145B 00                    4805 	.db #0x00	; 0
      00145C 02                    4806 	.db #0x02	; 2
      00145D C0                    4807 	.db #0xc0	; 192
      00145E 38                    4808 	.db #0x38	; 56	'8'
      00145F 47                    4809 	.db #0x47	; 71	'G'
      001460 12                    4810 	.db #0x12	; 18
      001461 04                    4811 	.db #0x04	; 4
      001462 00                    4812 	.db #0x00	; 0
      001463 00                    4813 	.db #0x00	; 0
      001464 00                    4814 	.db #0x00	; 0
      001465 02                    4815 	.db #0x02	; 2
      001466 7A                    4816 	.db #0x7a	; 122	'z'
      001467 1D                    4817 	.db #0x1d	; 29
      001468 07                    4818 	.db #0x07	; 7
      001469 E0                    4819 	.db #0xe0	; 224
      00146A B8                    4820 	.db #0xb8	; 184
      00146B 56                    4821 	.db #0x56	; 86	'V'
      00146C 89                    4822 	.db #0x89	; 137
      00146D 41                    4823 	.db #0x41	; 65	'A'
      00146E 02                    4824 	.db #0x02	; 2
      00146F D0                    4825 	.db #0xd0	; 208
      001470 D0                    4826 	.db #0xd0	; 208
      001471 54                    4827 	.db #0x54	; 84	'T'
      001472 34                    4828 	.db #0x34	; 52	'4'
      001473 0F                    4829 	.db #0x0f	; 15
      001474 B1                    4830 	.db #0xb1	; 177
      001475 5A                    4831 	.db #0x5a	; 90	'Z'
      001476 AD                    4832 	.db #0xad	; 173
      001477 02                    4833 	.db #0x02	; 2
      001478 10                    4834 	.db #0x10	; 16
      001479 20                    4835 	.db #0x20	; 32
      00147A 44                    4836 	.db #0x44	; 68	'D'
      00147B 55                    4837 	.db #0x55	; 85	'U'
      00147C 92                    4838 	.db #0x92	; 146
      00147D 92                    4839 	.db #0x92	; 146
      00147E 5D                    4840 	.db #0x5d	; 93
      00147F ED                    4841 	.db #0xed	; 237
      001480 02                    4842 	.db #0x02	; 2
      001481 10                    4843 	.db #0x10	; 16
      001482 52                    4844 	.db #0x52	; 82	'R'
      001483 4A                    4845 	.db #0x4a	; 74	'J'
      001484 CA                    4846 	.db #0xca	; 202
      001485 45                    4847 	.db #0x45	; 69	'E'
      001486 55                    4848 	.db #0x55	; 85	'U'
      001487 CB                    4849 	.db #0xcb	; 203
      001488 75                    4850 	.db #0x75	; 117	'u'
      001489 03                    4851 	.db #0x03	; 3
      00148A 00                    4852 	.db #0x00	; 0
      00148B 0F                    4853 	.db #0x0f	; 15
      00148C 1F                    4854 	.db #0x1f	; 31
      00148D 3F                    4855 	.db #0x3f	; 63
      00148E 75                    4856 	.db #0x75	; 117	'u'
      00148F 7B                    4857 	.db #0x7b	; 123
      001490 D5                    4858 	.db #0xd5	; 213
      001491 FE                    4859 	.db #0xfe	; 254
      001492 03                    4860 	.db #0x03	; 3
      001493 00                    4861 	.db #0x00	; 0
      001494 C0                    4862 	.db #0xc0	; 192
      001495 60                    4863 	.db #0x60	; 96
      001496 B0                    4864 	.db #0xb0	; 176
      001497 58                    4865 	.db #0x58	; 88	'X'
      001498 A8                    4866 	.db #0xa8	; 168
      001499 54                    4867 	.db #0x54	; 84	'T'
      00149A 8C                    4868 	.db #0x8c	; 140
      00149B 03                    4869 	.db #0x03	; 3
      00149C 01                    4870 	.db #0x01	; 1
      00149D 03                    4871 	.db #0x03	; 3
      00149E 07                    4872 	.db #0x07	; 7
      00149F 0F                    4873 	.db #0x0f	; 15
      0014A0 1F                    4874 	.db #0x1f	; 31
      0014A1 3A                    4875 	.db #0x3a	; 58
      0014A2 3D                    4876 	.db #0x3d	; 61
      0014A3 6E                    4877 	.db #0x6e	; 110	'n'
      0014A4 03                    4878 	.db #0x03	; 3
      0014A5 C0                    4879 	.db #0xc0	; 192
      0014A6 E0                    4880 	.db #0xe0	; 224
      0014A7 50                    4881 	.db #0x50	; 80	'P'
      0014A8 E8                    4882 	.db #0xe8	; 232
      0014A9 58                    4883 	.db #0x58	; 88	'X'
      0014AA A4                    4884 	.db #0xa4	; 164
      0014AB 04                    4885 	.db #0x04	; 4
      0014AC A2                    4886 	.db #0xa2	; 162
      0014AD 03                    4887 	.db #0x03	; 3
      0014AE 04                    4888 	.db #0x04	; 4
      0014AF 08                    4889 	.db #0x08	; 8
      0014B0 08                    4890 	.db #0x08	; 8
      0014B1 10                    4891 	.db #0x10	; 16
      0014B2 21                    4892 	.db #0x21	; 33
      0014B3 47                    4893 	.db #0x47	; 71	'G'
      0014B4 8F                    4894 	.db #0x8f	; 143
      0014B5 1D                    4895 	.db #0x1d	; 29
      0014B6 03                    4896 	.db #0x03	; 3
      0014B7 00                    4897 	.db #0x00	; 0
      0014B8 00                    4898 	.db #0x00	; 0
      0014B9 00                    4899 	.db #0x00	; 0
      0014BA 00                    4900 	.db #0x00	; 0
      0014BB F0                    4901 	.db #0xf0	; 240
      0014BC F8                    4902 	.db #0xf8	; 248
      0014BD AC                    4903 	.db #0xac	; 172
      0014BE 42                    4904 	.db #0x42	; 66	'B'
      0014BF 03                    4905 	.db #0x03	; 3
      0014C0 55                    4906 	.db #0x55	; 85	'U'
      0014C1 3A                    4907 	.db #0x3a	; 58
      0014C2 15                    4908 	.db #0x15	; 21
      0014C3 0E                    4909 	.db #0x0e	; 14
      0014C4 03                    4910 	.db #0x03	; 3
      0014C5 01                    4911 	.db #0x01	; 1
      0014C6 00                    4912 	.db #0x00	; 0
      0014C7 00                    4913 	.db #0x00	; 0
      0014C8 03                    4914 	.db #0x03	; 3
      0014C9 52                    4915 	.db #0x52	; 82	'R'
      0014CA 06                    4916 	.db #0x06	; 6
      0014CB 51                    4917 	.db #0x51	; 81	'Q'
      0014CC 01                    4918 	.db #0x01	; 1
      0014CD 41                    4919 	.db #0x41	; 65	'A'
      0014CE 81                    4920 	.db #0x81	; 129
      0014CF 62                    4921 	.db #0x62	; 98	'b'
      0014D0 1C                    4922 	.db #0x1c	; 28
      0014D1 03                    4923 	.db #0x03	; 3
      0014D2 00                    4924 	.db #0x00	; 0
      0014D3 00                    4925 	.db #0x00	; 0
      0014D4 00                    4926 	.db #0x00	; 0
      0014D5 00                    4927 	.db #0x00	; 0
      0014D6 03                    4928 	.db #0x03	; 3
      0014D7 0F                    4929 	.db #0x0f	; 15
      0014D8 3E                    4930 	.db #0x3e	; 62
      0014D9 7F                    4931 	.db #0x7f	; 127
      0014DA 03                    4932 	.db #0x03	; 3
      0014DB 00                    4933 	.db #0x00	; 0
      0014DC 00                    4934 	.db #0x00	; 0
      0014DD 00                    4935 	.db #0x00	; 0
      0014DE 70                    4936 	.db #0x70	; 112	'p'
      0014DF FC                    4937 	.db #0xfc	; 252
      0014E0 FE                    4938 	.db #0xfe	; 254
      0014E1 EB                    4939 	.db #0xeb	; 235
      0014E2 FC                    4940 	.db #0xfc	; 252
      0014E3 03                    4941 	.db #0x03	; 3
      0014E4 75                    4942 	.db #0x75	; 117	'u'
      0014E5 6B                    4943 	.db #0x6b	; 107	'k'
      0014E6 5D                    4944 	.db #0x5d	; 93
      0014E7 2A                    4945 	.db #0x2a	; 42
      0014E8 34                    4946 	.db #0x34	; 52	'4'
      0014E9 1A                    4947 	.db #0x1a	; 26
      0014EA 08                    4948 	.db #0x08	; 8
      0014EB 87                    4949 	.db #0x87	; 135
      0014EC 03                    4950 	.db #0x03	; 3
      0014ED C2                    4951 	.db #0xc2	; 194
      0014EE A2                    4952 	.db #0xa2	; 162
      0014EF 02                    4953 	.db #0x02	; 2
      0014F0 82                    4954 	.db #0x82	; 130
      0014F1 04                    4955 	.db #0x04	; 4
      0014F2 08                    4956 	.db #0x08	; 8
      0014F3 10                    4957 	.db #0x10	; 16
      0014F4 E0                    4958 	.db #0xe0	; 224
      0014F5 03                    4959 	.db #0x03	; 3
      0014F6 3E                    4960 	.db #0x3e	; 62
      0014F7 75                    4961 	.db #0x75	; 117	'u'
      0014F8 EE                    4962 	.db #0xee	; 238
      0014F9 F5                    4963 	.db #0xf5	; 245
      0014FA AA                    4964 	.db #0xaa	; 170
      0014FB F1                    4965 	.db #0xf1	; 241
      0014FC A8                    4966 	.db #0xa8	; 168
      0014FD 40                    4967 	.db #0x40	; 64
      0014FE 03                    4968 	.db #0x03	; 3
      0014FF AA                    4969 	.db #0xaa	; 170
      001500 02                    4970 	.db #0x02	; 2
      001501 A2                    4971 	.db #0xa2	; 162
      001502 04                    4972 	.db #0x04	; 4
      001503 04                    4973 	.db #0x04	; 4
      001504 08                    4974 	.db #0x08	; 8
      001505 08                    4975 	.db #0x08	; 8
      001506 10                    4976 	.db #0x10	; 16
      001507 03                    4977 	.db #0x03	; 3
      001508 00                    4978 	.db #0x00	; 0
      001509 01                    4979 	.db #0x01	; 1
      00150A 03                    4980 	.db #0x03	; 3
      00150B 07                    4981 	.db #0x07	; 7
      00150C 0F                    4982 	.db #0x0f	; 15
      00150D 1D                    4983 	.db #0x1d	; 29
      00150E 1F                    4984 	.db #0x1f	; 31
      00150F 1D                    4985 	.db #0x1d	; 29
      001510 03                    4986 	.db #0x03	; 3
      001511 FA                    4987 	.db #0xfa	; 250
      001512 FF                    4988 	.db #0xff	; 255
      001513 FA                    4989 	.db #0xfa	; 250
      001514 D7                    4990 	.db #0xd7	; 215
      001515 BE                    4991 	.db #0xbe	; 190
      001516 55                    4992 	.db #0x55	; 85	'U'
      001517 EA                    4993 	.db #0xea	; 234
      001518 5C                    4994 	.db #0x5c	; 92
      001519 03                    4995 	.db #0x03	; 3
      00151A AA                    4996 	.db #0xaa	; 170
      00151B 74                    4997 	.db #0x74	; 116	't'
      00151C AA                    4998 	.db #0xaa	; 170
      00151D 44                    4999 	.db #0x44	; 68	'D'
      00151E AD                    5000 	.db #0xad	; 173
      00151F 5C                    5001 	.db #0x5c	; 92
      001520 88                    5002 	.db #0x88	; 136
      001521 54                    5003 	.db #0x54	; 84	'T'
      001522 03                    5004 	.db #0x03	; 3
      001523 40                    5005 	.db #0x40	; 64
      001524 C0                    5006 	.db #0xc0	; 192
      001525 40                    5007 	.db #0x40	; 64
      001526 43                    5008 	.db #0x43	; 67	'C'
      001527 47                    5009 	.db #0x47	; 71	'G'
      001528 4F                    5010 	.db #0x4f	; 79	'O'
      001529 4D                    5011 	.db #0x4d	; 77	'M'
      00152A 40                    5012 	.db #0x40	; 64
      00152B 03                    5013 	.db #0x03	; 3
      00152C 00                    5014 	.db #0x00	; 0
      00152D 00                    5015 	.db #0x00	; 0
      00152E FE                    5016 	.db #0xfe	; 254
      00152F EB                    5017 	.db #0xeb	; 235
      001530 75                    5018 	.db #0x75	; 117	'u'
      001531 A8                    5019 	.db #0xa8	; 168
      001532 44                    5020 	.db #0x44	; 68	'D'
      001533 00                    5021 	.db #0x00	; 0
      001534 03                    5022 	.db #0x03	; 3
      001535 1A                    5023 	.db #0x1a	; 26
      001536 14                    5024 	.db #0x14	; 20
      001537 0B                    5025 	.db #0x0b	; 11
      001538 85                    5026 	.db #0x85	; 133
      001539 62                    5027 	.db #0x62	; 98	'b'
      00153A 91                    5028 	.db #0x91	; 145
      00153B 10                    5029 	.db #0x10	; 16
      00153C 00                    5030 	.db #0x00	; 0
      00153D 03                    5031 	.db #0x03	; 3
      00153E 00                    5032 	.db #0x00	; 0
      00153F FD                    5033 	.db #0xfd	; 253
      001540 27                    5034 	.db #0x27	; 39
      001541 02                    5035 	.db #0x02	; 2
      001542 02                    5036 	.db #0x02	; 2
      001543 02                    5037 	.db #0x02	; 2
      001544 00                    5038 	.db #0x00	; 0
      001545 00                    5039 	.db #0x00	; 0
      001546 03                    5040 	.db #0x03	; 3
      001547 00                    5041 	.db #0x00	; 0
      001548 EE                    5042 	.db #0xee	; 238
      001549 11                    5043 	.db #0x11	; 17
      00154A 00                    5044 	.db #0x00	; 0
      00154B 00                    5045 	.db #0x00	; 0
      00154C 00                    5046 	.db #0x00	; 0
      00154D 00                    5047 	.db #0x00	; 0
      00154E 00                    5048 	.db #0x00	; 0
      00154F 03                    5049 	.db #0x03	; 3
      001550 EA                    5050 	.db #0xea	; 234
      001551 B7                    5051 	.db #0xb7	; 183
      001552 14                    5052 	.db #0x14	; 20
      001553 1C                    5053 	.db #0x1c	; 28
      001554 0C                    5054 	.db #0x0c	; 12
      001555 0C                    5055 	.db #0x0c	; 12
      001556 08                    5056 	.db #0x08	; 8
      001557 08                    5057 	.db #0x08	; 8
      001558 03                    5058 	.db #0x03	; 3
      001559 36                    5059 	.db #0x36	; 54	'6'
      00155A F9                    5060 	.db #0xf9	; 249
      00155B D5                    5061 	.db #0xd5	; 213
      00155C BA                    5062 	.db #0xba	; 186
      00155D D4                    5063 	.db #0xd4	; 212
      00155E 4C                    5064 	.db #0x4c	; 76	'L'
      00155F 08                    5065 	.db #0x08	; 8
      001560 00                    5066 	.db #0x00	; 0
      001561                       5067 _enemies_1_1_tiles:
      001561 20                    5068 	.db #0x20	; 32
      001562 00                    5069 	.db #0x00	; 0
      001563 00                    5070 	.db #0x00	; 0
      001564 00                    5071 	.db #0x00	; 0
      001565 00                    5072 	.db #0x00	; 0
      001566 04                    5073 	.db #0x04	; 4
      001567 04                    5074 	.db #0x04	; 4
      001568 04                    5075 	.db #0x04	; 4
      001569 04                    5076 	.db #0x04	; 4
      00156A 00                    5077 	.db #0x00	; 0
      00156B 02                    5078 	.db #0x02	; 2
      00156C 04                    5079 	.db #0x04	; 4
      00156D 06                    5080 	.db #0x06	; 6
      00156E 00                    5081 	.db #0x00	; 0
      00156F 02                    5082 	.db #0x02	; 2
      001570 09                    5083 	.db #0x09	; 9
      001571 09                    5084 	.db #0x09	; 9
      001572 00                    5085 	.db #0x00	; 0
      001573 00                    5086 	.db #0x00	; 0
      001574 00                    5087 	.db #0x00	; 0
      001575 00                    5088 	.db #0x00	; 0
      001576 00                    5089 	.db #0x00	; 0
      001577 00                    5090 	.db #0x00	; 0
      001578 00                    5091 	.db #0x00	; 0
      001579 00                    5092 	.db #0x00	; 0
      00157A 00                    5093 	.db #0x00	; 0
      00157B 40                    5094 	.db #0x40	; 64
      00157C C0                    5095 	.db #0xc0	; 192
      00157D C0                    5096 	.db #0xc0	; 192
      00157E 80                    5097 	.db #0x80	; 128
      00157F 80                    5098 	.db #0x80	; 128
      001580 20                    5099 	.db #0x20	; 32
      001581 20                    5100 	.db #0x20	; 32
      001582 00                    5101 	.db #0x00	; 0
      001583 00                    5102 	.db #0x00	; 0
      001584 00                    5103 	.db #0x00	; 0
      001585 08                    5104 	.db #0x08	; 8
      001586 04                    5105 	.db #0x04	; 4
      001587 04                    5106 	.db #0x04	; 4
      001588 00                    5107 	.db #0x00	; 0
      001589 00                    5108 	.db #0x00	; 0
      00158A 00                    5109 	.db #0x00	; 0
      00158B 00                    5110 	.db #0x00	; 0
      00158C 00                    5111 	.db #0x00	; 0
      00158D 00                    5112 	.db #0x00	; 0
      00158E 00                    5113 	.db #0x00	; 0
      00158F 08                    5114 	.db #0x08	; 8
      001590 08                    5115 	.db #0x08	; 8
      001591 08                    5116 	.db #0x08	; 8
      001592 00                    5117 	.db #0x00	; 0
      001593 00                    5118 	.db #0x00	; 0
      001594 00                    5119 	.db #0x00	; 0
      001595 00                    5120 	.db #0x00	; 0
      001596 00                    5121 	.db #0x00	; 0
      001597 00                    5122 	.db #0x00	; 0
      001598 00                    5123 	.db #0x00	; 0
      001599 00                    5124 	.db #0x00	; 0
      00159A 80                    5125 	.db #0x80	; 128
      00159B 80                    5126 	.db #0x80	; 128
      00159C 00                    5127 	.db #0x00	; 0
      00159D 40                    5128 	.db #0x40	; 64
      00159E 00                    5129 	.db #0x00	; 0
      00159F 00                    5130 	.db #0x00	; 0
      0015A0 08                    5131 	.db #0x08	; 8
      0015A1 08                    5132 	.db #0x08	; 8
      0015A2 08                    5133 	.db #0x08	; 8
      0015A3 08                    5134 	.db #0x08	; 8
      0015A4 08                    5135 	.db #0x08	; 8
      0015A5 08                    5136 	.db #0x08	; 8
      0015A6 00                    5137 	.db #0x00	; 0
      0015A7 00                    5138 	.db #0x00	; 0
      0015A8 00                    5139 	.db #0x00	; 0
      0015A9 00                    5140 	.db #0x00	; 0
      0015AA 00                    5141 	.db #0x00	; 0
      0015AB 00                    5142 	.db #0x00	; 0
      0015AC 08                    5143 	.db #0x08	; 8
      0015AD 08                    5144 	.db #0x08	; 8
      0015AE 08                    5145 	.db #0x08	; 8
      0015AF 08                    5146 	.db #0x08	; 8
      0015B0 04                    5147 	.db #0x04	; 4
      0015B1 04                    5148 	.db #0x04	; 4
      0015B2 00                    5149 	.db #0x00	; 0
      0015B3 00                    5150 	.db #0x00	; 0
      0015B4 00                    5151 	.db #0x00	; 0
      0015B5 00                    5152 	.db #0x00	; 0
      0015B6 00                    5153 	.db #0x00	; 0
      0015B7 00                    5154 	.db #0x00	; 0
      0015B8 80                    5155 	.db #0x80	; 128
      0015B9 80                    5156 	.db #0x80	; 128
      0015BA 00                    5157 	.db #0x00	; 0
      0015BB 80                    5158 	.db #0x80	; 128
      0015BC 00                    5159 	.db #0x00	; 0
      0015BD 00                    5160 	.db #0x00	; 0
      0015BE 10                    5161 	.db #0x10	; 16
      0015BF 10                    5162 	.db #0x10	; 16
      0015C0 00                    5163 	.db #0x00	; 0
      0015C1 80                    5164 	.db #0x80	; 128
      0015C2 08                    5165 	.db #0x08	; 8
      0015C3 08                    5166 	.db #0x08	; 8
      0015C4 00                    5167 	.db #0x00	; 0
      0015C5 01                    5168 	.db #0x01	; 1
      0015C6 00                    5169 	.db #0x00	; 0
      0015C7 00                    5170 	.db #0x00	; 0
      0015C8 00                    5171 	.db #0x00	; 0
      0015C9 00                    5172 	.db #0x00	; 0
      0015CA 00                    5173 	.db #0x00	; 0
      0015CB 00                    5174 	.db #0x00	; 0
      0015CC 04                    5175 	.db #0x04	; 4
      0015CD 04                    5176 	.db #0x04	; 4
      0015CE 00                    5177 	.db #0x00	; 0
      0015CF 04                    5178 	.db #0x04	; 4
      0015D0 01                    5179 	.db #0x01	; 1
      0015D1 05                    5180 	.db #0x05	; 5
      0015D2 00                    5181 	.db #0x00	; 0
      0015D3 00                    5182 	.db #0x00	; 0
      0015D4 00                    5183 	.db #0x00	; 0
      0015D5 00                    5184 	.db #0x00	; 0
      0015D6 00                    5185 	.db #0x00	; 0
      0015D7 00                    5186 	.db #0x00	; 0
      0015D8 00                    5187 	.db #0x00	; 0
      0015D9 00                    5188 	.db #0x00	; 0
      0015DA 20                    5189 	.db #0x20	; 32
      0015DB 20                    5190 	.db #0x20	; 32
      0015DC 00                    5191 	.db #0x00	; 0
      0015DD 00                    5192 	.db #0x00	; 0
      0015DE 00                    5193 	.db #0x00	; 0
      0015DF 00                    5194 	.db #0x00	; 0
      0015E0 00                    5195 	.db #0x00	; 0
      0015E1 00                    5196 	.db #0x00	; 0
      0015E2 00                    5197 	.db #0x00	; 0
      0015E3 00                    5198 	.db #0x00	; 0
      0015E4 00                    5199 	.db #0x00	; 0
      0015E5 00                    5200 	.db #0x00	; 0
      0015E6 00                    5201 	.db #0x00	; 0
      0015E7 00                    5202 	.db #0x00	; 0
      0015E8 02                    5203 	.db #0x02	; 2
      0015E9 02                    5204 	.db #0x02	; 2
      0015EA 02                    5205 	.db #0x02	; 2
      0015EB 02                    5206 	.db #0x02	; 2
      0015EC 06                    5207 	.db #0x06	; 6
      0015ED 06                    5208 	.db #0x06	; 6
      0015EE 04                    5209 	.db #0x04	; 4
      0015EF 04                    5210 	.db #0x04	; 4
      0015F0 00                    5211 	.db #0x00	; 0
      0015F1 04                    5212 	.db #0x04	; 4
      0015F2 00                    5213 	.db #0x00	; 0
      0015F3 00                    5214 	.db #0x00	; 0
      0015F4 00                    5215 	.db #0x00	; 0
      0015F5 00                    5216 	.db #0x00	; 0
      0015F6 00                    5217 	.db #0x00	; 0
      0015F7 00                    5218 	.db #0x00	; 0
      0015F8 00                    5219 	.db #0x00	; 0
      0015F9 00                    5220 	.db #0x00	; 0
      0015FA 00                    5221 	.db #0x00	; 0
      0015FB 00                    5222 	.db #0x00	; 0
      0015FC 00                    5223 	.db #0x00	; 0
      0015FD 00                    5224 	.db #0x00	; 0
      0015FE 80                    5225 	.db #0x80	; 128
      0015FF 80                    5226 	.db #0x80	; 128
      001600 00                    5227 	.db #0x00	; 0
      001601 80                    5228 	.db #0x80	; 128
      001602 00                    5229 	.db #0x00	; 0
      001603 00                    5230 	.db #0x00	; 0
      001604 04                    5231 	.db #0x04	; 4
      001605 04                    5232 	.db #0x04	; 4
      001606 04                    5233 	.db #0x04	; 4
      001607 04                    5234 	.db #0x04	; 4
      001608 04                    5235 	.db #0x04	; 4
      001609 06                    5236 	.db #0x06	; 6
      00160A 00                    5237 	.db #0x00	; 0
      00160B 02                    5238 	.db #0x02	; 2
      00160C 02                    5239 	.db #0x02	; 2
      00160D 02                    5240 	.db #0x02	; 2
      00160E 00                    5241 	.db #0x00	; 0
      00160F 00                    5242 	.db #0x00	; 0
      001610 00                    5243 	.db #0x00	; 0
      001611 00                    5244 	.db #0x00	; 0
      001612 00                    5245 	.db #0x00	; 0
      001613 00                    5246 	.db #0x00	; 0
      001614 00                    5247 	.db #0x00	; 0
      001615 00                    5248 	.db #0x00	; 0
      001616 00                    5249 	.db #0x00	; 0
      001617 00                    5250 	.db #0x00	; 0
      001618 00                    5251 	.db #0x00	; 0
      001619 00                    5252 	.db #0x00	; 0
      00161A 40                    5253 	.db #0x40	; 64
      00161B 40                    5254 	.db #0x40	; 64
      00161C 40                    5255 	.db #0x40	; 64
      00161D 40                    5256 	.db #0x40	; 64
      00161E 10                    5257 	.db #0x10	; 16
      00161F 90                    5258 	.db #0x90	; 144
      001620 80                    5259 	.db #0x80	; 128
      001621 80                    5260 	.db #0x80	; 128
      001622 00                    5261 	.db #0x00	; 0
      001623 02                    5262 	.db #0x02	; 2
      001624 04                    5263 	.db #0x04	; 4
      001625 06                    5264 	.db #0x06	; 6
      001626 04                    5265 	.db #0x04	; 4
      001627 04                    5266 	.db #0x04	; 4
      001628 00                    5267 	.db #0x00	; 0
      001629 00                    5268 	.db #0x00	; 0
      00162A 00                    5269 	.db #0x00	; 0
      00162B 00                    5270 	.db #0x00	; 0
      00162C 00                    5271 	.db #0x00	; 0
      00162D 00                    5272 	.db #0x00	; 0
      00162E 00                    5273 	.db #0x00	; 0
      00162F 00                    5274 	.db #0x00	; 0
      001630 04                    5275 	.db #0x04	; 4
      001631 04                    5276 	.db #0x04	; 4
      001632 00                    5277 	.db #0x00	; 0
      001633 00                    5278 	.db #0x00	; 0
      001634 00                    5279 	.db #0x00	; 0
      001635 00                    5280 	.db #0x00	; 0
      001636 00                    5281 	.db #0x00	; 0
      001637 00                    5282 	.db #0x00	; 0
      001638 80                    5283 	.db #0x80	; 128
      001639 80                    5284 	.db #0x80	; 128
      00163A 00                    5285 	.db #0x00	; 0
      00163B 40                    5286 	.db #0x40	; 64
      00163C 00                    5287 	.db #0x00	; 0
      00163D 00                    5288 	.db #0x00	; 0
      00163E 00                    5289 	.db #0x00	; 0
      00163F 00                    5290 	.db #0x00	; 0
      001640 20                    5291 	.db #0x20	; 32
      001641 20                    5292 	.db #0x20	; 32
      001642 00                    5293 	.db #0x00	; 0
      001643 04                    5294 	.db #0x04	; 4
      001644 00                    5295 	.db #0x00	; 0
      001645 00                    5296 	.db #0x00	; 0
      001646 00                    5297 	.db #0x00	; 0
      001647 00                    5298 	.db #0x00	; 0
      001648 00                    5299 	.db #0x00	; 0
      001649 00                    5300 	.db #0x00	; 0
      00164A 00                    5301 	.db #0x00	; 0
      00164B 04                    5302 	.db #0x04	; 4
      00164C 04                    5303 	.db #0x04	; 4
      00164D 04                    5304 	.db #0x04	; 4
      00164E 04                    5305 	.db #0x04	; 4
      00164F 04                    5306 	.db #0x04	; 4
      001650 0C                    5307 	.db #0x0c	; 12
      001651 0C                    5308 	.db #0x0c	; 12
      001652 00                    5309 	.db #0x00	; 0
      001653 00                    5310 	.db #0x00	; 0
      001654 00                    5311 	.db #0x00	; 0
      001655 80                    5312 	.db #0x80	; 128
      001656 00                    5313 	.db #0x00	; 0
      001657 00                    5314 	.db #0x00	; 0
      001658 00                    5315 	.db #0x00	; 0
      001659 00                    5316 	.db #0x00	; 0
      00165A 00                    5317 	.db #0x00	; 0
      00165B 00                    5318 	.db #0x00	; 0
      00165C 00                    5319 	.db #0x00	; 0
      00165D 00                    5320 	.db #0x00	; 0
      00165E 00                    5321 	.db #0x00	; 0
      00165F 80                    5322 	.db #0x80	; 128
      001660 80                    5323 	.db #0x80	; 128
      001661 80                    5324 	.db #0x80	; 128
      001662 04                    5325 	.db #0x04	; 4
      001663 05                    5326 	.db #0x05	; 5
      001664 02                    5327 	.db #0x02	; 2
      001665 07                    5328 	.db #0x07	; 7
      001666 09                    5329 	.db #0x09	; 9
      001667 0D                    5330 	.db #0x0d	; 13
      001668 0A                    5331 	.db #0x0a	; 10
      001669 0F                    5332 	.db #0x0f	; 15
      00166A 18                    5333 	.db #0x18	; 24
      00166B 1B                    5334 	.db #0x1b	; 27
      00166C 15                    5335 	.db #0x15	; 21
      00166D 1D                    5336 	.db #0x1d	; 29
      00166E 1A                    5337 	.db #0x1a	; 26
      00166F 1B                    5338 	.db #0x1b	; 27
      001670 0C                    5339 	.db #0x0c	; 12
      001671 0D                    5340 	.db #0x0d	; 13
      001672 40                    5341 	.db #0x40	; 64
      001673 48                    5342 	.db #0x48	; 72	'H'
      001674 A0                    5343 	.db #0xa0	; 160
      001675 A0                    5344 	.db #0xa0	; 160
      001676 D0                    5345 	.db #0xd0	; 208
      001677 D0                    5346 	.db #0xd0	; 208
      001678 40                    5347 	.db #0x40	; 64
      001679 50                    5348 	.db #0x50	; 80	'P'
      00167A E8                    5349 	.db #0xe8	; 232
      00167B F8                    5350 	.db #0xf8	; 248
      00167C 48                    5351 	.db #0x48	; 72	'H'
      00167D 58                    5352 	.db #0x58	; 88	'X'
      00167E B0                    5353 	.db #0xb0	; 176
      00167F B0                    5354 	.db #0xb0	; 176
      001680 60                    5355 	.db #0x60	; 96
      001681 E0                    5356 	.db #0xe0	; 224
      001682 02                    5357 	.db #0x02	; 2
      001683 06                    5358 	.db #0x06	; 6
      001684 02                    5359 	.db #0x02	; 2
      001685 06                    5360 	.db #0x06	; 6
      001686 09                    5361 	.db #0x09	; 9
      001687 0D                    5362 	.db #0x0d	; 13
      001688 25                    5363 	.db #0x25	; 37
      001689 2D                    5364 	.db #0x2d	; 45
      00168A 17                    5365 	.db #0x17	; 23
      00168B 1F                    5366 	.db #0x1f	; 31
      00168C 1A                    5367 	.db #0x1a	; 26
      00168D 1A                    5368 	.db #0x1a	; 26
      00168E 1D                    5369 	.db #0x1d	; 29
      00168F 1F                    5370 	.db #0x1f	; 31
      001690 04                    5371 	.db #0x04	; 4
      001691 06                    5372 	.db #0x06	; 6
      001692 80                    5373 	.db #0x80	; 128
      001693 80                    5374 	.db #0x80	; 128
      001694 80                    5375 	.db #0x80	; 128
      001695 80                    5376 	.db #0x80	; 128
      001696 50                    5377 	.db #0x50	; 80	'P'
      001697 D0                    5378 	.db #0xd0	; 208
      001698 70                    5379 	.db #0x70	; 112	'p'
      001699 F0                    5380 	.db #0xf0	; 240
      00169A 28                    5381 	.db #0x28	; 40
      00169B B8                    5382 	.db #0xb8	; 184
      00169C D8                    5383 	.db #0xd8	; 216
      00169D F8                    5384 	.db #0xf8	; 248
      00169E 50                    5385 	.db #0x50	; 80	'P'
      00169F D0                    5386 	.db #0xd0	; 208
      0016A0 A0                    5387 	.db #0xa0	; 160
      0016A1 A0                    5388 	.db #0xa0	; 160
      0016A2 06                    5389 	.db #0x06	; 6
      0016A3 06                    5390 	.db #0x06	; 6
      0016A4 0A                    5391 	.db #0x0a	; 10
      0016A5 0E                    5392 	.db #0x0e	; 14
      0016A6 2A                    5393 	.db #0x2a	; 42
      0016A7 2F                    5394 	.db #0x2f	; 47
      0016A8 3B                    5395 	.db #0x3b	; 59
      0016A9 3B                    5396 	.db #0x3b	; 59
      0016AA 1D                    5397 	.db #0x1d	; 29
      0016AB 1F                    5398 	.db #0x1f	; 31
      0016AC 1A                    5399 	.db #0x1a	; 26
      0016AD 1A                    5400 	.db #0x1a	; 26
      0016AE 0D                    5401 	.db #0x0d	; 13
      0016AF 0D                    5402 	.db #0x0d	; 13
      0016B0 08                    5403 	.db #0x08	; 8
      0016B1 0A                    5404 	.db #0x0a	; 10
      0016B2 80                    5405 	.db #0x80	; 128
      0016B3 80                    5406 	.db #0x80	; 128
      0016B4 80                    5407 	.db #0x80	; 128
      0016B5 A0                    5408 	.db #0xa0	; 160
      0016B6 80                    5409 	.db #0x80	; 128
      0016B7 A0                    5410 	.db #0xa0	; 160
      0016B8 40                    5411 	.db #0x40	; 64
      0016B9 60                    5412 	.db #0x60	; 96
      0016BA F0                    5413 	.db #0xf0	; 240
      0016BB F0                    5414 	.db #0xf0	; 240
      0016BC B0                    5415 	.db #0xb0	; 176
      0016BD F0                    5416 	.db #0xf0	; 240
      0016BE 70                    5417 	.db #0x70	; 112	'p'
      0016BF F0                    5418 	.db #0xf0	; 240
      0016C0 A0                    5419 	.db #0xa0	; 160
      0016C1 A0                    5420 	.db #0xa0	; 160
      0016C2 2E                    5421 	.db #0x2e	; 46
      0016C3 2E                    5422 	.db #0x2e	; 46
      0016C4 2C                    5423 	.db #0x2c	; 44
      0016C5 2C                    5424 	.db #0x2c	; 44
      0016C6 19                    5425 	.db #0x19	; 25
      0016C7 1D                    5426 	.db #0x1d	; 29
      0016C8 32                    5427 	.db #0x32	; 50	'2'
      0016C9 36                    5428 	.db #0x36	; 54	'6'
      0016CA 2F                    5429 	.db #0x2f	; 47
      0016CB 3F                    5430 	.db #0x3f	; 63
      0016CC 0A                    5431 	.db #0x0a	; 10
      0016CD 1A                    5432 	.db #0x1a	; 26
      0016CE 1D                    5433 	.db #0x1d	; 29
      0016CF 1D                    5434 	.db #0x1d	; 29
      0016D0 08                    5435 	.db #0x08	; 8
      0016D1 0C                    5436 	.db #0x0c	; 12
      0016D2 80                    5437 	.db #0x80	; 128
      0016D3 80                    5438 	.db #0x80	; 128
      0016D4 C0                    5439 	.db #0xc0	; 192
      0016D5 C0                    5440 	.db #0xc0	; 192
      0016D6 A0                    5441 	.db #0xa0	; 160
      0016D7 A0                    5442 	.db #0xa0	; 160
      0016D8 70                    5443 	.db #0x70	; 112	'p'
      0016D9 F0                    5444 	.db #0xf0	; 240
      0016DA 50                    5445 	.db #0x50	; 80	'P'
      0016DB F0                    5446 	.db #0xf0	; 240
      0016DC A0                    5447 	.db #0xa0	; 160
      0016DD A0                    5448 	.db #0xa0	; 160
      0016DE 60                    5449 	.db #0x60	; 96
      0016DF 60                    5450 	.db #0x60	; 96
      0016E0 C0                    5451 	.db #0xc0	; 192
      0016E1 C0                    5452 	.db #0xc0	; 192
      0016E2 2A                    5453 	.db #0x2a	; 42
      0016E3 2E                    5454 	.db #0x2e	; 46
      0016E4 0A                    5455 	.db #0x0a	; 10
      0016E5 0E                    5456 	.db #0x0e	; 14
      0016E6 0D                    5457 	.db #0x0d	; 13
      0016E7 0D                    5458 	.db #0x0d	; 13
      0016E8 14                    5459 	.db #0x14	; 20
      0016E9 14                    5460 	.db #0x14	; 20
      0016EA 0C                    5461 	.db #0x0c	; 12
      0016EB 1E                    5462 	.db #0x1e	; 30
      0016EC 05                    5463 	.db #0x05	; 5
      0016ED 17                    5464 	.db #0x17	; 23
      0016EE 10                    5465 	.db #0x10	; 16
      0016EF 12                    5466 	.db #0x12	; 18
      0016F0 09                    5467 	.db #0x09	; 9
      0016F1 09                    5468 	.db #0x09	; 9
      0016F2 20                    5469 	.db #0x20	; 32
      0016F3 A0                    5470 	.db #0xa0	; 160
      0016F4 00                    5471 	.db #0x00	; 0
      0016F5 80                    5472 	.db #0x80	; 128
      0016F6 10                    5473 	.db #0x10	; 16
      0016F7 90                    5474 	.db #0x90	; 144
      0016F8 D0                    5475 	.db #0xd0	; 208
      0016F9 D0                    5476 	.db #0xd0	; 208
      0016FA E0                    5477 	.db #0xe0	; 224
      0016FB E0                    5478 	.db #0xe0	; 224
      0016FC 20                    5479 	.db #0x20	; 32
      0016FD 60                    5480 	.db #0x60	; 96
      0016FE 80                    5481 	.db #0x80	; 128
      0016FF C0                    5482 	.db #0xc0	; 192
      001700 40                    5483 	.db #0x40	; 64
      001701 40                    5484 	.db #0x40	; 64
      001702 08                    5485 	.db #0x08	; 8
      001703 08                    5486 	.db #0x08	; 8
      001704 08                    5487 	.db #0x08	; 8
      001705 08                    5488 	.db #0x08	; 8
      001706 11                    5489 	.db #0x11	; 17
      001707 15                    5490 	.db #0x15	; 21
      001708 18                    5491 	.db #0x18	; 24
      001709 1C                    5492 	.db #0x1c	; 28
      00170A 13                    5493 	.db #0x13	; 19
      00170B 17                    5494 	.db #0x17	; 23
      00170C 32                    5495 	.db #0x32	; 50	'2'
      00170D 32                    5496 	.db #0x32	; 50	'2'
      00170E 29                    5497 	.db #0x29	; 41
      00170F 29                    5498 	.db #0x29	; 41
      001710 10                    5499 	.db #0x10	; 16
      001711 10                    5500 	.db #0x10	; 16
      001712 00                    5501 	.db #0x00	; 0
      001713 00                    5502 	.db #0x00	; 0
      001714 90                    5503 	.db #0x90	; 144
      001715 90                    5504 	.db #0x90	; 144
      001716 80                    5505 	.db #0x80	; 128
      001717 80                    5506 	.db #0x80	; 128
      001718 40                    5507 	.db #0x40	; 64
      001719 D0                    5508 	.db #0xd0	; 208
      00171A 70                    5509 	.db #0x70	; 112	'p'
      00171B F0                    5510 	.db #0xf0	; 240
      00171C 30                    5511 	.db #0x30	; 48	'0'
      00171D B0                    5512 	.db #0xb0	; 176
      00171E 20                    5513 	.db #0x20	; 32
      00171F 60                    5514 	.db #0x60	; 96
      001720 A0                    5515 	.db #0xa0	; 160
      001721 E0                    5516 	.db #0xe0	; 224
      001722 02                    5517 	.db #0x02	; 2
      001723 02                    5518 	.db #0x02	; 2
      001724 03                    5519 	.db #0x03	; 3
      001725 07                    5520 	.db #0x07	; 7
      001726 02                    5521 	.db #0x02	; 2
      001727 06                    5522 	.db #0x06	; 6
      001728 0D                    5523 	.db #0x0d	; 13
      001729 0D                    5524 	.db #0x0d	; 13
      00172A 19                    5525 	.db #0x19	; 25
      00172B 19                    5526 	.db #0x19	; 25
      00172C 10                    5527 	.db #0x10	; 16
      00172D 10                    5528 	.db #0x10	; 16
      00172E 18                    5529 	.db #0x18	; 24
      00172F 1A                    5530 	.db #0x1a	; 26
      001730 0C                    5531 	.db #0x0c	; 12
      001731 0C                    5532 	.db #0x0c	; 12
      001732 28                    5533 	.db #0x28	; 40
      001733 28                    5534 	.db #0x28	; 40
      001734 60                    5535 	.db #0x60	; 96
      001735 60                    5536 	.db #0x60	; 96
      001736 00                    5537 	.db #0x00	; 0
      001737 40                    5538 	.db #0x40	; 64
      001738 90                    5539 	.db #0x90	; 144
      001739 D0                    5540 	.db #0xd0	; 208
      00173A 70                    5541 	.db #0x70	; 112	'p'
      00173B 70                    5542 	.db #0x70	; 112	'p'
      00173C B0                    5543 	.db #0xb0	; 176
      00173D B0                    5544 	.db #0xb0	; 176
      00173E 20                    5545 	.db #0x20	; 32
      00173F 60                    5546 	.db #0x60	; 96
      001740 80                    5547 	.db #0x80	; 128
      001741 C0                    5548 	.db #0xc0	; 192
      001742 0A                    5549 	.db #0x0a	; 10
      001743 0E                    5550 	.db #0x0e	; 14
      001744 02                    5551 	.db #0x02	; 2
      001745 06                    5552 	.db #0x06	; 6
      001746 02                    5553 	.db #0x02	; 2
      001747 06                    5554 	.db #0x06	; 6
      001748 0B                    5555 	.db #0x0b	; 11
      001749 0F                    5556 	.db #0x0f	; 15
      00174A 1D                    5557 	.db #0x1d	; 29
      00174B 1D                    5558 	.db #0x1d	; 29
      00174C 08                    5559 	.db #0x08	; 8
      00174D 08                    5560 	.db #0x08	; 8
      00174E 0D                    5561 	.db #0x0d	; 13
      00174F 0D                    5562 	.db #0x0d	; 13
      001750 04                    5563 	.db #0x04	; 4
      001751 04                    5564 	.db #0x04	; 4
      001752 80                    5565 	.db #0x80	; 128
      001753 80                    5566 	.db #0x80	; 128
      001754 00                    5567 	.db #0x00	; 0
      001755 40                    5568 	.db #0x40	; 64
      001756 E0                    5569 	.db #0xe0	; 224
      001757 E0                    5570 	.db #0xe0	; 224
      001758 28                    5571 	.db #0x28	; 40
      001759 A8                    5572 	.db #0xa8	; 168
      00175A D0                    5573 	.db #0xd0	; 208
      00175B F0                    5574 	.db #0xf0	; 240
      00175C 90                    5575 	.db #0x90	; 144
      00175D B0                    5576 	.db #0xb0	; 176
      00175E 70                    5577 	.db #0x70	; 112	'p'
      00175F 70                    5578 	.db #0x70	; 112	'p'
      001760 20                    5579 	.db #0x20	; 32
      001761 20                    5580 	.db #0x20	; 32
      001762                       5581 _room_2_1_map:
      001762 B6 01                 5582 	.dw #0x01b6
      001764 00                    5583 	.db #0x00	; 0
      001765 01                    5584 	.db #0x01	; 1
      001766 02                    5585 	.db #0x02	; 2
      001767 03                    5586 	.db #0x03	; 3
      001768 04                    5587 	.db #0x04	; 4
      001769 05                    5588 	.db #0x05	; 5
      00176A 06                    5589 	.db #0x06	; 6
      00176B 07                    5590 	.db #0x07	; 7
      00176C 08                    5591 	.db #0x08	; 8
      00176D 00                    5592 	.db #0x00	; 0
      00176E 02                    5593 	.db #0x02	; 2
      00176F 03                    5594 	.db #0x03	; 3
      001770 04                    5595 	.db #0x04	; 4
      001771 05                    5596 	.db #0x05	; 5
      001772 09                    5597 	.db #0x09	; 9
      001773 0A                    5598 	.db #0x0a	; 10
      001774 0B                    5599 	.db #0x0b	; 11
      001775 0C                    5600 	.db #0x0c	; 12
      001776 C6                    5601 	.db #0xc6	; 198
      001777 00                    5602 	.db #0x00	; 0
      001778 C3                    5603 	.db #0xc3	; 195
      001779 0D                    5604 	.db #0x0d	; 13
      00177A C5                    5605 	.db #0xc5	; 197
      00177B 00                    5606 	.db #0x00	; 0
      00177C 0E                    5607 	.db #0x0e	; 14
      00177D 0F                    5608 	.db #0x0f	; 15
      00177E 10                    5609 	.db #0x10	; 16
      00177F 11                    5610 	.db #0x11	; 17
      001780 09                    5611 	.db #0x09	; 9
      001781 12                    5612 	.db #0x12	; 18
      001782 C2                    5613 	.db #0xc2	; 194
      001783 00                    5614 	.db #0x00	; 0
      001784 02                    5615 	.db #0x02	; 2
      001785 0F                    5616 	.db #0x0f	; 15
      001786 10                    5617 	.db #0x10	; 16
      001787 11                    5618 	.db #0x11	; 17
      001788 13                    5619 	.db #0x13	; 19
      001789 14                    5620 	.db #0x14	; 20
      00178A 0B                    5621 	.db #0x0b	; 11
      00178B 0C                    5622 	.db #0x0c	; 12
      00178C C6                    5623 	.db #0xc6	; 198
      00178D 00                    5624 	.db #0x00	; 0
      00178E 15                    5625 	.db #0x15	; 21
      00178F 16                    5626 	.db #0x16	; 22
      001790 17                    5627 	.db #0x17	; 23
      001791 C3                    5628 	.db #0xc3	; 195
      001792 00                    5629 	.db #0x00	; 0
      001793 18                    5630 	.db #0x18	; 24
      001794 19                    5631 	.db #0x19	; 25
      001795 1A                    5632 	.db #0x1a	; 26
      001796 1B                    5633 	.db #0x1b	; 27
      001797 1C                    5634 	.db #0x1c	; 28
      001798 1D                    5635 	.db #0x1d	; 29
      001799 09                    5636 	.db #0x09	; 9
      00179A 1E                    5637 	.db #0x1e	; 30
      00179B 1F                    5638 	.db #0x1f	; 31
      00179C 20                    5639 	.db #0x20	; 32
      00179D 02                    5640 	.db #0x02	; 2
      00179E 1B                    5641 	.db #0x1b	; 27
      00179F 1C                    5642 	.db #0x1c	; 28
      0017A0 1D                    5643 	.db #0x1d	; 29
      0017A1 09                    5644 	.db #0x09	; 9
      0017A2 00                    5645 	.db #0x00	; 0
      0017A3 0B                    5646 	.db #0x0b	; 11
      0017A4 0C                    5647 	.db #0x0c	; 12
      0017A5 C6                    5648 	.db #0xc6	; 198
      0017A6 00                    5649 	.db #0x00	; 0
      0017A7 21                    5650 	.db #0x21	; 33
      0017A8 22                    5651 	.db #0x22	; 34
      0017A9 17                    5652 	.db #0x17	; 23
      0017AA 00                    5653 	.db #0x00	; 0
      0017AB 23                    5654 	.db #0x23	; 35
      0017AC 24                    5655 	.db #0x24	; 36
      0017AD 25                    5656 	.db #0x25	; 37
      0017AE 26                    5657 	.db #0x26	; 38
      0017AF 27                    5658 	.db #0x27	; 39
      0017B0 28                    5659 	.db #0x28	; 40
      0017B1 29                    5660 	.db #0x29	; 41
      0017B2 2A                    5661 	.db #0x2a	; 42
      0017B3 2B                    5662 	.db #0x2b	; 43
      0017B4 2C                    5663 	.db #0x2c	; 44
      0017B5 2D                    5664 	.db #0x2d	; 45
      0017B6 00                    5665 	.db #0x00	; 0
      0017B7 02                    5666 	.db #0x02	; 2
      0017B8 28                    5667 	.db #0x28	; 40
      0017B9 29                    5668 	.db #0x29	; 41
      0017BA 2A                    5669 	.db #0x2a	; 42
      0017BB 09                    5670 	.db #0x09	; 9
      0017BC 00                    5671 	.db #0x00	; 0
      0017BD 0B                    5672 	.db #0x0b	; 11
      0017BE 0C                    5673 	.db #0x0c	; 12
      0017BF C6                    5674 	.db #0xc6	; 198
      0017C0 00                    5675 	.db #0x00	; 0
      0017C1 23                    5676 	.db #0x23	; 35
      0017C2 24                    5677 	.db #0x24	; 36
      0017C3 23                    5678 	.db #0x23	; 35
      0017C4 24                    5679 	.db #0x24	; 36
      0017C5 2E                    5680 	.db #0x2e	; 46
      0017C6 2F                    5681 	.db #0x2f	; 47
      0017C7 30                    5682 	.db #0x30	; 48	'0'
      0017C8 31                    5683 	.db #0x31	; 49	'1'
      0017C9 32                    5684 	.db #0x32	; 50	'2'
      0017CA 03                    5685 	.db #0x03	; 3
      0017CB 04                    5686 	.db #0x04	; 4
      0017CC 05                    5687 	.db #0x05	; 5
      0017CD 33                    5688 	.db #0x33	; 51	'3'
      0017CE C3                    5689 	.db #0xc3	; 195
      0017CF 00                    5690 	.db #0x00	; 0
      0017D0 02                    5691 	.db #0x02	; 2
      0017D1 03                    5692 	.db #0x03	; 3
      0017D2 04                    5693 	.db #0x04	; 4
      0017D3 05                    5694 	.db #0x05	; 5
      0017D4 09                    5695 	.db #0x09	; 9
      0017D5 C7                    5696 	.db #0xc7	; 199
      0017D6 00                    5697 	.db #0x00	; 0
      0017D7 23                    5698 	.db #0x23	; 35
      0017D8 24                    5699 	.db #0x24	; 36
      0017D9 2E                    5700 	.db #0x2e	; 46
      0017DA 2F                    5701 	.db #0x2f	; 47
      0017DB 2E                    5702 	.db #0x2e	; 46
      0017DC 2F                    5703 	.db #0x2f	; 47
      0017DD C2                    5704 	.db #0xc2	; 194
      0017DE 0D                    5705 	.db #0x0d	; 13
      0017DF C2                    5706 	.db #0xc2	; 194
      0017E0 00                    5707 	.db #0x00	; 0
      0017E1 02                    5708 	.db #0x02	; 2
      0017E2 0F                    5709 	.db #0x0f	; 15
      0017E3 10                    5710 	.db #0x10	; 16
      0017E4 11                    5711 	.db #0x11	; 17
      0017E5 09                    5712 	.db #0x09	; 9
      0017E6 00                    5713 	.db #0x00	; 0
      0017E7 34                    5714 	.db #0x34	; 52	'4'
      0017E8 35                    5715 	.db #0x35	; 53	'5'
      0017E9 36                    5716 	.db #0x36	; 54	'6'
      0017EA 0F                    5717 	.db #0x0f	; 15
      0017EB 10                    5718 	.db #0x10	; 16
      0017EC 11                    5719 	.db #0x11	; 17
      0017ED 09                    5720 	.db #0x09	; 9
      0017EE C5                    5721 	.db #0xc5	; 197
      0017EF 00                    5722 	.db #0x00	; 0
      0017F0 23                    5723 	.db #0x23	; 35
      0017F1 24                    5724 	.db #0x24	; 36
      0017F2 2E                    5725 	.db #0x2e	; 46
      0017F3 2F                    5726 	.db #0x2f	; 47
      0017F4 C4                    5727 	.db #0xc4	; 196
      0017F5 0D                    5728 	.db #0x0d	; 13
      0017F6 37                    5729 	.db #0x37	; 55	'7'
      0017F7 08                    5730 	.db #0x08	; 8
      0017F8 38                    5731 	.db #0x38	; 56	'8'
      0017F9 39                    5732 	.db #0x39	; 57	'9'
      0017FA 3A                    5733 	.db #0x3a	; 58
      0017FB 1B                    5734 	.db #0x1b	; 27
      0017FC 1C                    5735 	.db #0x1c	; 28
      0017FD 1D                    5736 	.db #0x1d	; 29
      0017FE 09                    5737 	.db #0x09	; 9
      0017FF 00                    5738 	.db #0x00	; 0
      001800 3B                    5739 	.db #0x3b	; 59
      001801 3C                    5740 	.db #0x3c	; 60
      001802 3D                    5741 	.db #0x3d	; 61
      001803 1B                    5742 	.db #0x1b	; 27
      001804 1C                    5743 	.db #0x1c	; 28
      001805 1D                    5744 	.db #0x1d	; 29
      001806 09                    5745 	.db #0x09	; 9
      001807 C5                    5746 	.db #0xc5	; 197
      001808 00                    5747 	.db #0x00	; 0
      001809 2E                    5748 	.db #0x2e	; 46
      00180A 2F                    5749 	.db #0x2f	; 47
      00180B C2                    5750 	.db #0xc2	; 194
      00180C 0D                    5751 	.db #0x0d	; 13
      00180D 21                    5752 	.db #0x21	; 33
      00180E 22                    5753 	.db #0x22	; 34
      00180F 06                    5754 	.db #0x06	; 6
      001810 07                    5755 	.db #0x07	; 7
      001811 12                    5756 	.db #0x12	; 18
      001812 00                    5757 	.db #0x00	; 0
      001813 3E                    5758 	.db #0x3e	; 62
      001814 3F                    5759 	.db #0x3f	; 63
      001815 40                    5760 	.db #0x40	; 64
      001816 39                    5761 	.db #0x39	; 57	'9'
      001817 41                    5762 	.db #0x41	; 65	'A'
      001818 2A                    5763 	.db #0x2a	; 42
      001819 09                    5764 	.db #0x09	; 9
      00181A 42                    5765 	.db #0x42	; 66	'B'
      00181B 43                    5766 	.db #0x43	; 67	'C'
      00181C 44                    5767 	.db #0x44	; 68	'D'
      00181D 45                    5768 	.db #0x45	; 69	'E'
      00181E 28                    5769 	.db #0x28	; 40
      00181F 29                    5770 	.db #0x29	; 41
      001820 2A                    5771 	.db #0x2a	; 42
      001821 09                    5772 	.db #0x09	; 9
      001822 C5                    5773 	.db #0xc5	; 197
      001823 00                    5774 	.db #0x00	; 0
      001824 C2                    5775 	.db #0xc2	; 194
      001825 0D                    5776 	.db #0x0d	; 13
      001826 18                    5777 	.db #0x18	; 24
      001827 19                    5778 	.db #0x19	; 25
      001828 46                    5779 	.db #0x46	; 70	'F'
      001829 47                    5780 	.db #0x47	; 71	'G'
      00182A 48                    5781 	.db #0x48	; 72	'H'
      00182B 1E                    5782 	.db #0x1e	; 30
      00182C C2                    5783 	.db #0xc2	; 194
      00182D 00                    5784 	.db #0x00	; 0
      00182E 49                    5785 	.db #0x49	; 73	'I'
      00182F 4A                    5786 	.db #0x4a	; 74	'J'
      001830 4B                    5787 	.db #0x4b	; 75	'K'
      001831 3F                    5788 	.db #0x3f	; 63
      001832 40                    5789 	.db #0x40	; 64
      001833 39                    5790 	.db #0x39	; 57	'9'
      001834 4C                    5791 	.db #0x4c	; 76	'L'
      001835 4D                    5792 	.db #0x4d	; 77	'M'
      001836 4E                    5793 	.db #0x4e	; 78	'N'
      001837 4F                    5794 	.db #0x4f	; 79	'O'
      001838 50                    5795 	.db #0x50	; 80	'P'
      001839 03                    5796 	.db #0x03	; 3
      00183A 04                    5797 	.db #0x04	; 4
      00183B 05                    5798 	.db #0x05	; 5
      00183C 09                    5799 	.db #0x09	; 9
      00183D C7                    5800 	.db #0xc7	; 199
      00183E 00                    5801 	.db #0x00	; 0
      00183F 25                    5802 	.db #0x25	; 37
      001840 26                    5803 	.db #0x26	; 38
      001841 51                    5804 	.db #0x51	; 81	'Q'
      001842 52                    5805 	.db #0x52	; 82	'R'
      001843 2B                    5806 	.db #0x2b	; 43
      001844 2C                    5807 	.db #0x2c	; 44
      001845 53                    5808 	.db #0x53	; 83	'S'
      001846 C3                    5809 	.db #0xc3	; 195
      001847 00                    5810 	.db #0x00	; 0
      001848 49                    5811 	.db #0x49	; 73	'I'
      001849 4A                    5812 	.db #0x4a	; 74	'J'
      00184A 4B                    5813 	.db #0x4b	; 75	'K'
      00184B 3F                    5814 	.db #0x3f	; 63
      00184C 54                    5815 	.db #0x54	; 84	'T'
      00184D 55                    5816 	.db #0x55	; 85	'U'
      00184E 56                    5817 	.db #0x56	; 86	'V'
      00184F 57                    5818 	.db #0x57	; 87	'W'
      001850 02                    5819 	.db #0x02	; 2
      001851 0F                    5820 	.db #0x0f	; 15
      001852 10                    5821 	.db #0x10	; 16
      001853 11                    5822 	.db #0x11	; 17
      001854 09                    5823 	.db #0x09	; 9
      001855 C7                    5824 	.db #0xc7	; 199
      001856 00                    5825 	.db #0x00	; 0
      001857 30                    5826 	.db #0x30	; 48	'0'
      001858 31                    5827 	.db #0x31	; 49	'1'
      001859 58                    5828 	.db #0x58	; 88	'X'
      00185A 16                    5829 	.db #0x16	; 22
      00185B 33                    5830 	.db #0x33	; 51	'3'
      00185C C5                    5831 	.db #0xc5	; 197
      00185D 00                    5832 	.db #0x00	; 0
      00185E 02                    5833 	.db #0x02	; 2
      00185F 1B                    5834 	.db #0x1b	; 27
      001860 59                    5835 	.db #0x59	; 89	'Y'
      001861 4A                    5836 	.db #0x4a	; 74	'J'
      001862 5A                    5837 	.db #0x5a	; 90	'Z'
      001863 00                    5838 	.db #0x00	; 0
      001864 5B                    5839 	.db #0x5b	; 91
      001865 5C                    5840 	.db #0x5c	; 92
      001866 02                    5841 	.db #0x02	; 2
      001867 1B                    5842 	.db #0x1b	; 27
      001868 1C                    5843 	.db #0x1c	; 28
      001869 1D                    5844 	.db #0x1d	; 29
      00186A 09                    5845 	.db #0x09	; 9
      00186B C8                    5846 	.db #0xc8	; 200
      00186C 00                    5847 	.db #0x00	; 0
      00186D 01                    5848 	.db #0x01	; 1
      00186E 5D                    5849 	.db #0x5d	; 93
      00186F 22                    5850 	.db #0x22	; 34
      001870 17                    5851 	.db #0x17	; 23
      001871 C5                    5852 	.db #0xc5	; 197
      001872 00                    5853 	.db #0x00	; 0
      001873 02                    5854 	.db #0x02	; 2
      001874 28                    5855 	.db #0x28	; 40
      001875 29                    5856 	.db #0x29	; 41
      001876 2A                    5857 	.db #0x2a	; 42
      001877 09                    5858 	.db #0x09	; 9
      001878 C3                    5859 	.db #0xc3	; 195
      001879 00                    5860 	.db #0x00	; 0
      00187A 02                    5861 	.db #0x02	; 2
      00187B 28                    5862 	.db #0x28	; 40
      00187C 29                    5863 	.db #0x29	; 41
      00187D 2A                    5864 	.db #0x2a	; 42
      00187E 09                    5865 	.db #0x09	; 9
      00187F C7                    5866 	.db #0xc7	; 199
      001880 00                    5867 	.db #0x00	; 0
      001881 5E                    5868 	.db #0x5e	; 94
      001882 5F                    5869 	.db #0x5f	; 95
      001883 0E                    5870 	.db #0x0e	; 14
      001884 47                    5871 	.db #0x47	; 71	'G'
      001885 48                    5872 	.db #0x48	; 72	'H'
      001886 C3                    5873 	.db #0xc3	; 195
      001887 00                    5874 	.db #0x00	; 0
      001888 60                    5875 	.db #0x60	; 96
      001889 61                    5876 	.db #0x61	; 97	'a'
      00188A 02                    5877 	.db #0x02	; 2
      00188B 03                    5878 	.db #0x03	; 3
      00188C 04                    5879 	.db #0x04	; 4
      00188D 05                    5880 	.db #0x05	; 5
      00188E 09                    5881 	.db #0x09	; 9
      00188F C3                    5882 	.db #0xc3	; 195
      001890 00                    5883 	.db #0x00	; 0
      001891 02                    5884 	.db #0x02	; 2
      001892 03                    5885 	.db #0x03	; 3
      001893 04                    5886 	.db #0x04	; 4
      001894 05                    5887 	.db #0x05	; 5
      001895 09                    5888 	.db #0x09	; 9
      001896 C4                    5889 	.db #0xc4	; 196
      001897 00                    5890 	.db #0x00	; 0
      001898 60                    5891 	.db #0x60	; 96
      001899 61                    5892 	.db #0x61	; 97	'a'
      00189A 62                    5893 	.db #0x62	; 98	'b'
      00189B 63                    5894 	.db #0x63	; 99	'c'
      00189C 64                    5895 	.db #0x64	; 100	'd'
      00189D 65                    5896 	.db #0x65	; 101	'e'
      00189E 52                    5897 	.db #0x52	; 82	'R'
      00189F 66                    5898 	.db #0x66	; 102	'f'
      0018A0 C3                    5899 	.db #0xc3	; 195
      0018A1 00                    5900 	.db #0x00	; 0
      0018A2 67                    5901 	.db #0x67	; 103	'g'
      0018A3 68                    5902 	.db #0x68	; 104	'h'
      0018A4 02                    5903 	.db #0x02	; 2
      0018A5 0F                    5904 	.db #0x0f	; 15
      0018A6 10                    5905 	.db #0x10	; 16
      0018A7 11                    5906 	.db #0x11	; 17
      0018A8 09                    5907 	.db #0x09	; 9
      0018A9 69                    5908 	.db #0x69	; 105	'i'
      0018AA 6A                    5909 	.db #0x6a	; 106	'j'
      0018AB 69                    5910 	.db #0x69	; 105	'i'
      0018AC 02                    5911 	.db #0x02	; 2
      0018AD 0F                    5912 	.db #0x0f	; 15
      0018AE 10                    5913 	.db #0x10	; 16
      0018AF 11                    5914 	.db #0x11	; 17
      0018B0 09                    5915 	.db #0x09	; 9
      0018B1 6B                    5916 	.db #0x6b	; 107	'k'
      0018B2 6C                    5917 	.db #0x6c	; 108	'l'
      0018B3 6A                    5918 	.db #0x6a	; 106	'j'
      0018B4 6B                    5919 	.db #0x6b	; 107	'k'
      0018B5 67                    5920 	.db #0x67	; 103	'g'
      0018B6 68                    5921 	.db #0x68	; 104	'h'
      0018B7 6D                    5922 	.db #0x6d	; 109	'm'
      0018B8 6E                    5923 	.db #0x6e	; 110	'n'
      0018B9 6F                    5924 	.db #0x6f	; 111	'o'
      0018BA 15                    5925 	.db #0x15	; 21
      0018BB 16                    5926 	.db #0x16	; 22
      0018BC 17                    5927 	.db #0x17	; 23
      0018BD 70                    5928 	.db #0x70	; 112	'p'
      0018BE 71                    5929 	.db #0x71	; 113	'q'
      0018BF 70                    5930 	.db #0x70	; 112	'p'
      0018C0 72                    5931 	.db #0x72	; 114	'r'
      0018C1 73                    5932 	.db #0x73	; 115	's'
      0018C2 74                    5933 	.db #0x74	; 116	't'
      0018C3 75                    5934 	.db #0x75	; 117	'u'
      0018C4 72                    5935 	.db #0x72	; 114	'r'
      0018C5 73                    5936 	.db #0x73	; 115	's'
      0018C6 74                    5937 	.db #0x74	; 116	't'
      0018C7 75                    5938 	.db #0x75	; 117	'u'
      0018C8 72                    5939 	.db #0x72	; 114	'r'
      0018C9 73                    5940 	.db #0x73	; 115	's'
      0018CA 74                    5941 	.db #0x74	; 116	't'
      0018CB 75                    5942 	.db #0x75	; 117	'u'
      0018CC 72                    5943 	.db #0x72	; 114	'r'
      0018CD 73                    5944 	.db #0x73	; 115	's'
      0018CE 74                    5945 	.db #0x74	; 116	't'
      0018CF 75                    5946 	.db #0x75	; 117	'u'
      0018D0 72                    5947 	.db #0x72	; 114	'r'
      0018D1 73                    5948 	.db #0x73	; 115	's'
      0018D2 74                    5949 	.db #0x74	; 116	't'
      0018D3 75                    5950 	.db #0x75	; 117	'u'
      0018D4 72                    5951 	.db #0x72	; 114	'r'
      0018D5 73                    5952 	.db #0x73	; 115	's'
      0018D6 74                    5953 	.db #0x74	; 116	't'
      0018D7 75                    5954 	.db #0x75	; 117	'u'
      0018D8 72                    5955 	.db #0x72	; 114	'r'
      0018D9 73                    5956 	.db #0x73	; 115	's'
      0018DA 74                    5957 	.db #0x74	; 116	't'
      0018DB 75                    5958 	.db #0x75	; 117	'u'
      0018DC 72                    5959 	.db #0x72	; 114	'r'
      0018DD 73                    5960 	.db #0x73	; 115	's'
      0018DE 72                    5961 	.db #0x72	; 114	'r'
      0018DF 73                    5962 	.db #0x73	; 115	's'
      0018E0 74                    5963 	.db #0x74	; 116	't'
      0018E1 75                    5964 	.db #0x75	; 117	'u'
      0018E2 72                    5965 	.db #0x72	; 114	'r'
      0018E3 73                    5966 	.db #0x73	; 115	's'
      0018E4 74                    5967 	.db #0x74	; 116	't'
      0018E5 75                    5968 	.db #0x75	; 117	'u'
      0018E6 72                    5969 	.db #0x72	; 114	'r'
      0018E7 73                    5970 	.db #0x73	; 115	's'
      0018E8 74                    5971 	.db #0x74	; 116	't'
      0018E9 75                    5972 	.db #0x75	; 117	'u'
      0018EA 72                    5973 	.db #0x72	; 114	'r'
      0018EB 73                    5974 	.db #0x73	; 115	's'
      0018EC 74                    5975 	.db #0x74	; 116	't'
      0018ED 75                    5976 	.db #0x75	; 117	'u'
      0018EE 72                    5977 	.db #0x72	; 114	'r'
      0018EF 73                    5978 	.db #0x73	; 115	's'
      0018F0 74                    5979 	.db #0x74	; 116	't'
      0018F1 75                    5980 	.db #0x75	; 117	'u'
      0018F2 72                    5981 	.db #0x72	; 114	'r'
      0018F3 73                    5982 	.db #0x73	; 115	's'
      0018F4 74                    5983 	.db #0x74	; 116	't'
      0018F5 75                    5984 	.db #0x75	; 117	'u'
      0018F6 72                    5985 	.db #0x72	; 114	'r'
      0018F7 73                    5986 	.db #0x73	; 115	's'
      0018F8 74                    5987 	.db #0x74	; 116	't'
      0018F9 75                    5988 	.db #0x75	; 117	'u'
      0018FA 72                    5989 	.db #0x72	; 114	'r'
      0018FB 73                    5990 	.db #0x73	; 115	's'
      0018FC 76                    5991 	.db #0x76	; 118	'v'
      0018FD 77                    5992 	.db #0x77	; 119	'w'
      0018FE 78                    5993 	.db #0x78	; 120	'x'
      0018FF 76                    5994 	.db #0x76	; 118	'v'
      001900 79                    5995 	.db #0x79	; 121	'y'
      001901 7A                    5996 	.db #0x7a	; 122	'z'
      001902 7B                    5997 	.db #0x7b	; 123
      001903 79                    5998 	.db #0x79	; 121	'y'
      001904 76                    5999 	.db #0x76	; 118	'v'
      001905 77                    6000 	.db #0x77	; 119	'w'
      001906 78                    6001 	.db #0x78	; 120	'x'
      001907 76                    6002 	.db #0x76	; 118	'v'
      001908 77                    6003 	.db #0x77	; 119	'w'
      001909 78                    6004 	.db #0x78	; 120	'x'
      00190A 76                    6005 	.db #0x76	; 118	'v'
      00190B 77                    6006 	.db #0x77	; 119	'w'
      00190C 78                    6007 	.db #0x78	; 120	'x'
      00190D 79                    6008 	.db #0x79	; 121	'y'
      00190E 7A                    6009 	.db #0x7a	; 122	'z'
      00190F 7B                    6010 	.db #0x7b	; 123
      001910 7A                    6011 	.db #0x7a	; 122	'z'
      001911 7B                    6012 	.db #0x7b	; 123
      001912 79                    6013 	.db #0x79	; 121	'y'
      001913 76                    6014 	.db #0x76	; 118	'v'
      001914 77                    6015 	.db #0x77	; 119	'w'
      001915 78                    6016 	.db #0x78	; 120	'x'
      001916 76                    6017 	.db #0x76	; 118	'v'
      001917 77                    6018 	.db #0x77	; 119	'w'
      001918 78                    6019 	.db #0x78	; 120	'x'
      001919 76                    6020 	.db #0x76	; 118	'v'
      00191A                       6021 _room_2_1_coll:
      00191A 2B 00                 6022 	.dw #0x002b
      00191C D8                    6023 	.db #0xd8	; 216
      00191D 00                    6024 	.db #0x00	; 0
      00191E C3                    6025 	.db #0xc3	; 195
      00191F 01                    6026 	.db #0x01	; 1
      001920 FF                    6027 	.db #0xff	; 255
      001921 00                    6028 	.db #0x00	; 0
      001922 FA                    6029 	.db #0xfa	; 250
      001923 00                    6030 	.db #0x00	; 0
      001924 02                    6031 	.db #0x02	; 2
      001925 01                    6032 	.db #0x01	; 1
      001926 D8                    6033 	.db #0xd8	; 216
      001927 00                    6034 	.db #0x00	; 0
      001928 02                    6035 	.db #0x02	; 2
      001929 C3                    6036 	.db #0xc3	; 195
      00192A 01                    6037 	.db #0x01	; 1
      00192B D8                    6038 	.db #0xd8	; 216
      00192C 00                    6039 	.db #0x00	; 0
      00192D 02                    6040 	.db #0x02	; 2
      00192E 01                    6041 	.db #0x01	; 1
      00192F DA                    6042 	.db #0xda	; 218
      001930 00                    6043 	.db #0x00	; 0
      001931 C2                    6044 	.db #0xc2	; 194
      001932 01                    6045 	.db #0x01	; 1
      001933 C8                    6046 	.db #0xc8	; 200
      001934 00                    6047 	.db #0x00	; 0
      001935 01                    6048 	.db #0x01	; 1
      001936 02                    6049 	.db #0x02	; 2
      001937 DE                    6050 	.db #0xde	; 222
      001938 00                    6051 	.db #0x00	; 0
      001939 01                    6052 	.db #0x01	; 1
      00193A 02                    6053 	.db #0x02	; 2
      00193B DE                    6054 	.db #0xde	; 222
      00193C 00                    6055 	.db #0x00	; 0
      00193D 01                    6056 	.db #0x01	; 1
      00193E 02                    6057 	.db #0x02	; 2
      00193F FF                    6058 	.db #0xff	; 255
      001940 00                    6059 	.db #0x00	; 0
      001941 F3                    6060 	.db #0xf3	; 243
      001942 00                    6061 	.db #0x00	; 0
      001943 FF                    6062 	.db #0xff	; 255
      001944 01                    6063 	.db #0x01	; 1
      001945 DB                    6064 	.db #0xdb	; 219
      001946 01                    6065 	.db #0x01	; 1
      001947                       6066 _room_2_1_tiles:
      001947 7C                    6067 	.db #0x7c	; 124
      001948 00                    6068 	.db #0x00	; 0
      001949 03                    6069 	.db #0x03	; 3
      00194A 00                    6070 	.db #0x00	; 0
      00194B 00                    6071 	.db #0x00	; 0
      00194C 08                    6072 	.db #0x08	; 8
      00194D 05                    6073 	.db #0x05	; 5
      00194E 02                    6074 	.db #0x02	; 2
      00194F 02                    6075 	.db #0x02	; 2
      001950 19                    6076 	.db #0x19	; 25
      001951 0E                    6077 	.db #0x0e	; 14
      001952 03                    6078 	.db #0x03	; 3
      001953 08                    6079 	.db #0x08	; 8
      001954 01                    6080 	.db #0x01	; 1
      001955 08                    6081 	.db #0x08	; 8
      001956 01                    6082 	.db #0x01	; 1
      001957 08                    6083 	.db #0x08	; 8
      001958 01                    6084 	.db #0x01	; 1
      001959 08                    6085 	.db #0x08	; 8
      00195A 01                    6086 	.db #0x01	; 1
      00195B 03                    6087 	.db #0x03	; 3
      00195C 3A                    6088 	.db #0x3a	; 58
      00195D 46                    6089 	.db #0x46	; 70	'F'
      00195E 2A                    6090 	.db #0x2a	; 42
      00195F 16                    6091 	.db #0x16	; 22
      001960 22                    6092 	.db #0x22	; 34
      001961 17                    6093 	.db #0x17	; 23
      001962 32                    6094 	.db #0x32	; 50	'2'
      001963 57                    6095 	.db #0x57	; 87	'W'
      001964 03                    6096 	.db #0x03	; 3
      001965 FA                    6097 	.db #0xfa	; 250
      001966 5F                    6098 	.db #0x5f	; 95
      001967 FA                    6099 	.db #0xfa	; 250
      001968 5F                    6100 	.db #0x5f	; 95
      001969 FA                    6101 	.db #0xfa	; 250
      00196A 4F                    6102 	.db #0x4f	; 79	'O'
      00196B EA                    6103 	.db #0xea	; 234
      00196C 4F                    6104 	.db #0x4f	; 79	'O'
      00196D 03                    6105 	.db #0x03	; 3
      00196E 66                    6106 	.db #0x66	; 102	'f'
      00196F 54                    6107 	.db #0x54	; 84	'T'
      001970 6A                    6108 	.db #0x6a	; 106	'j'
      001971 54                    6109 	.db #0x54	; 84	'T'
      001972 66                    6110 	.db #0x66	; 102	'f'
      001973 54                    6111 	.db #0x54	; 84	'T'
      001974 E6                    6112 	.db #0xe6	; 230
      001975 54                    6113 	.db #0x54	; 84	'T'
      001976 04                    6114 	.db #0x04	; 4
      001977 50                    6115 	.db #0x50	; 80	'P'
      001978 55                    6116 	.db #0x55	; 85	'U'
      001979 80                    6117 	.db #0x80	; 128
      00197A 83                    6118 	.db #0x83	; 131
      00197B 50                    6119 	.db #0x50	; 80	'P'
      00197C 56                    6120 	.db #0x56	; 86	'V'
      00197D 80                    6121 	.db #0x80	; 128
      00197E 84                    6122 	.db #0x84	; 132
      00197F 50                    6123 	.db #0x50	; 80	'P'
      001980 50                    6124 	.db #0x50	; 80	'P'
      001981 40                    6125 	.db #0x40	; 64
      001982 43                    6126 	.db #0x43	; 67	'C'
      001983 50                    6127 	.db #0x50	; 80	'P'
      001984 56                    6128 	.db #0x56	; 86	'V'
      001985 40                    6129 	.db #0x40	; 64
      001986 44                    6130 	.db #0x44	; 68	'D'
      001987 02                    6131 	.db #0x02	; 2
      001988 12                    6132 	.db #0x12	; 18
      001989 21                    6133 	.db #0x21	; 33
      00198A 5D                    6134 	.db #0x5d	; 93
      00198B E8                    6135 	.db #0xe8	; 232
      00198C 44                    6136 	.db #0x44	; 68	'D'
      00198D 32                    6137 	.db #0x32	; 50	'2'
      00198E 6C                    6138 	.db #0x6c	; 108	'l'
      00198F 54                    6139 	.db #0x54	; 84	'T'
      001990 02                    6140 	.db #0x02	; 2
      001991 40                    6141 	.db #0x40	; 64
      001992 30                    6142 	.db #0x30	; 48	'0'
      001993 A0                    6143 	.db #0xa0	; 160
      001994 00                    6144 	.db #0x00	; 0
      001995 80                    6145 	.db #0x80	; 128
      001996 40                    6146 	.db #0x40	; 64
      001997 80                    6147 	.db #0x80	; 128
      001998 80                    6148 	.db #0x80	; 128
      001999 03                    6149 	.db #0x03	; 3
      00199A 80                    6150 	.db #0x80	; 128
      00199B 10                    6151 	.db #0x10	; 16
      00199C 80                    6152 	.db #0x80	; 128
      00199D 10                    6153 	.db #0x10	; 16
      00199E 80                    6154 	.db #0x80	; 128
      00199F 10                    6155 	.db #0x10	; 16
      0019A0 80                    6156 	.db #0x80	; 128
      0019A1 10                    6157 	.db #0x10	; 16
      0019A2 03                    6158 	.db #0x03	; 3
      0019A3 00                    6159 	.db #0x00	; 0
      0019A4 00                    6160 	.db #0x00	; 0
      0019A5 00                    6161 	.db #0x00	; 0
      0019A6 10                    6162 	.db #0x10	; 16
      0019A7 A0                    6163 	.db #0xa0	; 160
      0019A8 40                    6164 	.db #0x40	; 64
      0019A9 40                    6165 	.db #0x40	; 64
      0019AA 98                    6166 	.db #0x98	; 152
      0019AB 01                    6167 	.db #0x01	; 1
      0019AC 01                    6168 	.db #0x01	; 1
      0019AD 01                    6169 	.db #0x01	; 1
      0019AE 01                    6170 	.db #0x01	; 1
      0019AF 01                    6171 	.db #0x01	; 1
      0019B0 01                    6172 	.db #0x01	; 1
      0019B1 01                    6173 	.db #0x01	; 1
      0019B2 01                    6174 	.db #0x01	; 1
      0019B3 01                    6175 	.db #0x01	; 1
      0019B4 01                    6176 	.db #0x01	; 1
      0019B5 80                    6177 	.db #0x80	; 128
      0019B6 80                    6178 	.db #0x80	; 128
      0019B7 80                    6179 	.db #0x80	; 128
      0019B8 80                    6180 	.db #0x80	; 128
      0019B9 80                    6181 	.db #0x80	; 128
      0019BA 80                    6182 	.db #0x80	; 128
      0019BB 80                    6183 	.db #0x80	; 128
      0019BC 80                    6184 	.db #0x80	; 128
      0019BD 01                    6185 	.db #0x01	; 1
      0019BE 38                    6186 	.db #0x38	; 56	'8'
      0019BF 54                    6187 	.db #0x54	; 84	'T'
      0019C0 AA                    6188 	.db #0xaa	; 170
      0019C1 D2                    6189 	.db #0xd2	; 210
      0019C2 82                    6190 	.db #0x82	; 130
      0019C3 44                    6191 	.db #0x44	; 68	'D'
      0019C4 38                    6192 	.db #0x38	; 56	'8'
      0019C5 00                    6193 	.db #0x00	; 0
      0019C6 03                    6194 	.db #0x03	; 3
      0019C7 C2                    6195 	.db #0xc2	; 194
      0019C8 AA                    6196 	.db #0xaa	; 170
      0019C9 42                    6197 	.db #0x42	; 66	'B'
      0019CA 2A                    6198 	.db #0x2a	; 42
      0019CB 03                    6199 	.db #0x03	; 3
      0019CC 0A                    6200 	.db #0x0a	; 10
      0019CD 01                    6201 	.db #0x01	; 1
      0019CE 0A                    6202 	.db #0x0a	; 10
      0019CF 03                    6203 	.db #0x03	; 3
      0019D0 3A                    6204 	.db #0x3a	; 58
      0019D1 47                    6205 	.db #0x47	; 71	'G'
      0019D2 2A                    6206 	.db #0x2a	; 42
      0019D3 27                    6207 	.db #0x27	; 39
      0019D4 2A                    6208 	.db #0x2a	; 42
      0019D5 27                    6209 	.db #0x27	; 39
      0019D6 32                    6210 	.db #0x32	; 50	'2'
      0019D7 57                    6211 	.db #0x57	; 87	'W'
      0019D8 03                    6212 	.db #0x03	; 3
      0019D9 EA                    6213 	.db #0xea	; 234
      0019DA 4F                    6214 	.db #0x4f	; 79	'O'
      0019DB FA                    6215 	.db #0xfa	; 250
      0019DC 5F                    6216 	.db #0x5f	; 95
      0019DD FA                    6217 	.db #0xfa	; 250
      0019DE 4F                    6218 	.db #0x4f	; 79	'O'
      0019DF EA                    6219 	.db #0xea	; 234
      0019E0 4F                    6220 	.db #0x4f	; 79	'O'
      0019E1 03                    6221 	.db #0x03	; 3
      0019E2 EA                    6222 	.db #0xea	; 234
      0019E3 54                    6223 	.db #0x54	; 84	'T'
      0019E4 62                    6224 	.db #0x62	; 98	'b'
      0019E5 54                    6225 	.db #0x54	; 84	'T'
      0019E6 EE                    6226 	.db #0xee	; 238
      0019E7 54                    6227 	.db #0x54	; 84	'T'
      0019E8 EA                    6228 	.db #0xea	; 234
      0019E9 54                    6229 	.db #0x54	; 84	'T'
      0019EA 02                    6230 	.db #0x02	; 2
      0019EB 34                    6231 	.db #0x34	; 52	'4'
      0019EC A4                    6232 	.db #0xa4	; 164
      0019ED 80                    6233 	.db #0x80	; 128
      0019EE 00                    6234 	.db #0x00	; 0
      0019EF 00                    6235 	.db #0x00	; 0
      0019F0 00                    6236 	.db #0x00	; 0
      0019F1 00                    6237 	.db #0x00	; 0
      0019F2 00                    6238 	.db #0x00	; 0
      0019F3 03                    6239 	.db #0x03	; 3
      0019F4 81                    6240 	.db #0x81	; 129
      0019F5 13                    6241 	.db #0x13	; 19
      0019F6 85                    6242 	.db #0x85	; 133
      0019F7 12                    6243 	.db #0x12	; 18
      0019F8 84                    6244 	.db #0x84	; 132
      0019F9 10                    6245 	.db #0x10	; 16
      0019FA 80                    6246 	.db #0x80	; 128
      0019FB 10                    6247 	.db #0x10	; 16
      0019FC 03                    6248 	.db #0x03	; 3
      0019FD 70                    6249 	.db #0x70	; 112	'p'
      0019FE 80                    6250 	.db #0x80	; 128
      0019FF 00                    6251 	.db #0x00	; 0
      001A00 00                    6252 	.db #0x00	; 0
      001A01 00                    6253 	.db #0x00	; 0
      001A02 00                    6254 	.db #0x00	; 0
      001A03 00                    6255 	.db #0x00	; 0
      001A04 00                    6256 	.db #0x00	; 0
      001A05 03                    6257 	.db #0x03	; 3
      001A06 00                    6258 	.db #0x00	; 0
      001A07 0A                    6259 	.db #0x0a	; 10
      001A08 02                    6260 	.db #0x02	; 2
      001A09 0A                    6261 	.db #0x0a	; 10
      001A0A 02                    6262 	.db #0x02	; 2
      001A0B 0A                    6263 	.db #0x0a	; 10
      001A0C 01                    6264 	.db #0x01	; 1
      001A0D 0A                    6265 	.db #0x0a	; 10
      001A0E 03                    6266 	.db #0x03	; 3
      001A0F 53                    6267 	.db #0x53	; 83	'S'
      001A10 FA                    6268 	.db #0xfa	; 250
      001A11 5F                    6269 	.db #0x5f	; 95
      001A12 FA                    6270 	.db #0xfa	; 250
      001A13 5F                    6271 	.db #0x5f	; 95
      001A14 EA                    6272 	.db #0xea	; 234
      001A15 4F                    6273 	.db #0x4f	; 79	'O'
      001A16 FA                    6274 	.db #0xfa	; 250
      001A17 03                    6275 	.db #0x03	; 3
      001A18 50                    6276 	.db #0x50	; 80	'P'
      001A19 80                    6277 	.db #0x80	; 128
      001A1A 50                    6278 	.db #0x50	; 80	'P'
      001A1B 80                    6279 	.db #0x80	; 128
      001A1C 50                    6280 	.db #0x50	; 80	'P'
      001A1D 40                    6281 	.db #0x40	; 64
      001A1E 50                    6282 	.db #0x50	; 80	'P'
      001A1F 40                    6283 	.db #0x40	; 64
      001A20 02                    6284 	.db #0x02	; 2
      001A21 00                    6285 	.db #0x00	; 0
      001A22 00                    6286 	.db #0x00	; 0
      001A23 00                    6287 	.db #0x00	; 0
      001A24 00                    6288 	.db #0x00	; 0
      001A25 00                    6289 	.db #0x00	; 0
      001A26 02                    6290 	.db #0x02	; 2
      001A27 03                    6291 	.db #0x03	; 3
      001A28 04                    6292 	.db #0x04	; 4
      001A29 02                    6293 	.db #0x02	; 2
      001A2A 00                    6294 	.db #0x00	; 0
      001A2B 00                    6295 	.db #0x00	; 0
      001A2C 02                    6296 	.db #0x02	; 2
      001A2D 4A                    6297 	.db #0x4a	; 74	'J'
      001A2E 59                    6298 	.db #0x59	; 89	'Y'
      001A2F A2                    6299 	.db #0xa2	; 162
      001A30 66                    6300 	.db #0x66	; 102	'f'
      001A31 CD                    6301 	.db #0xcd	; 205
      001A32 04                    6302 	.db #0x04	; 4
      001A33 08                    6303 	.db #0x08	; 8
      001A34 08                    6304 	.db #0x08	; 8
      001A35 01                    6305 	.db #0x01	; 1
      001A36 01                    6306 	.db #0x01	; 1
      001A37 08                    6307 	.db #0x08	; 8
      001A38 08                    6308 	.db #0x08	; 8
      001A39 01                    6309 	.db #0x01	; 1
      001A3A 81                    6310 	.db #0x81	; 129
      001A3B 08                    6311 	.db #0x08	; 8
      001A3C 08                    6312 	.db #0x08	; 8
      001A3D 01                    6313 	.db #0x01	; 1
      001A3E 41                    6314 	.db #0x41	; 65	'A'
      001A3F 08                    6315 	.db #0x08	; 8
      001A40 48                    6316 	.db #0x48	; 72	'H'
      001A41 01                    6317 	.db #0x01	; 1
      001A42 01                    6318 	.db #0x01	; 1
      001A43 03                    6319 	.db #0x03	; 3
      001A44 22                    6320 	.db #0x22	; 34
      001A45 17                    6321 	.db #0x17	; 23
      001A46 2A                    6322 	.db #0x2a	; 42
      001A47 17                    6323 	.db #0x17	; 23
      001A48 2A                    6324 	.db #0x2a	; 42
      001A49 57                    6325 	.db #0x57	; 87	'W'
      001A4A 22                    6326 	.db #0x22	; 34
      001A4B 57                    6327 	.db #0x57	; 87	'W'
      001A4C 03                    6328 	.db #0x03	; 3
      001A4D FA                    6329 	.db #0xfa	; 250
      001A4E 5F                    6330 	.db #0x5f	; 95
      001A4F EA                    6331 	.db #0xea	; 234
      001A50 4F                    6332 	.db #0x4f	; 79	'O'
      001A51 EA                    6333 	.db #0xea	; 234
      001A52 4F                    6334 	.db #0x4f	; 79	'O'
      001A53 EA                    6335 	.db #0xea	; 234
      001A54 5F                    6336 	.db #0x5f	; 95
      001A55 03                    6337 	.db #0x03	; 3
      001A56 66                    6338 	.db #0x66	; 102	'f'
      001A57 54                    6339 	.db #0x54	; 84	'T'
      001A58 66                    6340 	.db #0x66	; 102	'f'
      001A59 54                    6341 	.db #0x54	; 84	'T'
      001A5A EA                    6342 	.db #0xea	; 234
      001A5B 54                    6343 	.db #0x54	; 84	'T'
      001A5C E6                    6344 	.db #0xe6	; 230
      001A5D 54                    6345 	.db #0x54	; 84	'T'
      001A5E 03                    6346 	.db #0x03	; 3
      001A5F 00                    6347 	.db #0x00	; 0
      001A60 00                    6348 	.db #0x00	; 0
      001A61 00                    6349 	.db #0x00	; 0
      001A62 00                    6350 	.db #0x00	; 0
      001A63 00                    6351 	.db #0x00	; 0
      001A64 00                    6352 	.db #0x00	; 0
      001A65 41                    6353 	.db #0x41	; 65	'A'
      001A66 23                    6354 	.db #0x23	; 35
      001A67 03                    6355 	.db #0x03	; 3
      001A68 00                    6356 	.db #0x00	; 0
      001A69 00                    6357 	.db #0x00	; 0
      001A6A 01                    6358 	.db #0x01	; 1
      001A6B 07                    6359 	.db #0x07	; 7
      001A6C 1A                    6360 	.db #0x1a	; 26
      001A6D 74                    6361 	.db #0x74	; 116	't'
      001A6E A0                    6362 	.db #0xa0	; 160
      001A6F 40                    6363 	.db #0x40	; 64
      001A70 03                    6364 	.db #0x03	; 3
      001A71 08                    6365 	.db #0x08	; 8
      001A72 70                    6366 	.db #0x70	; 112	'p'
      001A73 C0                    6367 	.db #0xc0	; 192
      001A74 00                    6368 	.db #0x00	; 0
      001A75 00                    6369 	.db #0x00	; 0
      001A76 00                    6370 	.db #0x00	; 0
      001A77 00                    6371 	.db #0x00	; 0
      001A78 00                    6372 	.db #0x00	; 0
      001A79 03                    6373 	.db #0x03	; 3
      001A7A 01                    6374 	.db #0x01	; 1
      001A7B 0A                    6375 	.db #0x0a	; 10
      001A7C 02                    6376 	.db #0x02	; 2
      001A7D 0A                    6377 	.db #0x0a	; 10
      001A7E 01                    6378 	.db #0x01	; 1
      001A7F 0A                    6379 	.db #0x0a	; 10
      001A80 01                    6380 	.db #0x01	; 1
      001A81 0A                    6381 	.db #0x0a	; 10
      001A82 03                    6382 	.db #0x03	; 3
      001A83 5B                    6383 	.db #0x5b	; 91
      001A84 FA                    6384 	.db #0xfa	; 250
      001A85 5B                    6385 	.db #0x5b	; 91
      001A86 FA                    6386 	.db #0xfa	; 250
      001A87 5F                    6387 	.db #0x5f	; 95
      001A88 FA                    6388 	.db #0xfa	; 250
      001A89 4F                    6389 	.db #0x4f	; 79	'O'
      001A8A EA                    6390 	.db #0xea	; 234
      001A8B 01                    6391 	.db #0x01	; 1
      001A8C FF                    6392 	.db #0xff	; 255
      001A8D 55                    6393 	.db #0x55	; 85	'U'
      001A8E AA                    6394 	.db #0xaa	; 170
      001A8F 00                    6395 	.db #0x00	; 0
      001A90 20                    6396 	.db #0x20	; 32
      001A91 29                    6397 	.db #0x29	; 41
      001A92 32                    6398 	.db #0x32	; 50	'2'
      001A93 29                    6399 	.db #0x29	; 41
      001A94 01                    6400 	.db #0x01	; 1
      001A95 FF                    6401 	.db #0xff	; 255
      001A96 55                    6402 	.db #0x55	; 85	'U'
      001A97 AA                    6403 	.db #0xaa	; 170
      001A98 40                    6404 	.db #0x40	; 64
      001A99 00                    6405 	.db #0x00	; 0
      001A9A 83                    6406 	.db #0x83	; 131
      001A9B C6                    6407 	.db #0xc6	; 198
      001A9C 65                    6408 	.db #0x65	; 101	'e'
      001A9D 02                    6409 	.db #0x02	; 2
      001A9E 02                    6410 	.db #0x02	; 2
      001A9F 01                    6411 	.db #0x01	; 1
      001AA0 0B                    6412 	.db #0x0b	; 11
      001AA1 18                    6413 	.db #0x18	; 24
      001AA2 04                    6414 	.db #0x04	; 4
      001AA3 06                    6415 	.db #0x06	; 6
      001AA4 0B                    6416 	.db #0x0b	; 11
      001AA5 00                    6417 	.db #0x00	; 0
      001AA6 02                    6418 	.db #0x02	; 2
      001AA7 20                    6419 	.db #0x20	; 32
      001AA8 72                    6420 	.db #0x72	; 114	'r'
      001AA9 A6                    6421 	.db #0xa6	; 166
      001AAA 4D                    6422 	.db #0x4d	; 77	'M'
      001AAB 8B                    6423 	.db #0x8b	; 139
      001AAC E6                    6424 	.db #0xe6	; 230
      001AAD 49                    6425 	.db #0x49	; 73	'I'
      001AAE 30                    6426 	.db #0x30	; 48	'0'
      001AAF 04                    6427 	.db #0x04	; 4
      001AB0 08                    6428 	.db #0x08	; 8
      001AB1 C8                    6429 	.db #0xc8	; 200
      001AB2 01                    6430 	.db #0x01	; 1
      001AB3 01                    6431 	.db #0x01	; 1
      001AB4 08                    6432 	.db #0x08	; 8
      001AB5 48                    6433 	.db #0x48	; 72	'H'
      001AB6 01                    6434 	.db #0x01	; 1
      001AB7 01                    6435 	.db #0x01	; 1
      001AB8 08                    6436 	.db #0x08	; 8
      001AB9 08                    6437 	.db #0x08	; 8
      001ABA 01                    6438 	.db #0x01	; 1
      001ABB 41                    6439 	.db #0x41	; 65	'A'
      001ABC 08                    6440 	.db #0x08	; 8
      001ABD 08                    6441 	.db #0x08	; 8
      001ABE 01                    6442 	.db #0x01	; 1
      001ABF C1                    6443 	.db #0xc1	; 193
      001AC0 03                    6444 	.db #0x03	; 3
      001AC1 22                    6445 	.db #0x22	; 34
      001AC2 57                    6446 	.db #0x57	; 87	'W'
      001AC3 32                    6447 	.db #0x32	; 50	'2'
      001AC4 56                    6448 	.db #0x56	; 86	'V'
      001AC5 32                    6449 	.db #0x32	; 50	'2'
      001AC6 57                    6450 	.db #0x57	; 87	'W'
      001AC7 32                    6451 	.db #0x32	; 50	'2'
      001AC8 16                    6452 	.db #0x16	; 22
      001AC9 03                    6453 	.db #0x03	; 3
      001ACA FA                    6454 	.db #0xfa	; 250
      001ACB 5F                    6455 	.db #0x5f	; 95
      001ACC FA                    6456 	.db #0xfa	; 250
      001ACD 5F                    6457 	.db #0x5f	; 95
      001ACE EA                    6458 	.db #0xea	; 234
      001ACF 4F                    6459 	.db #0x4f	; 79	'O'
      001AD0 EA                    6460 	.db #0xea	; 234
      001AD1 5F                    6461 	.db #0x5f	; 95
      001AD2 03                    6462 	.db #0x03	; 3
      001AD3 62                    6463 	.db #0x62	; 98	'b'
      001AD4 5C                    6464 	.db #0x5c	; 92
      001AD5 EA                    6465 	.db #0xea	; 234
      001AD6 54                    6466 	.db #0x54	; 84	'T'
      001AD7 E2                    6467 	.db #0xe2	; 226
      001AD8 54                    6468 	.db #0x54	; 84	'T'
      001AD9 66                    6469 	.db #0x66	; 102	'f'
      001ADA 54                    6470 	.db #0x54	; 84	'T'
      001ADB 03                    6471 	.db #0x03	; 3
      001ADC 80                    6472 	.db #0x80	; 128
      001ADD 10                    6473 	.db #0x10	; 16
      001ADE 80                    6474 	.db #0x80	; 128
      001ADF 10                    6475 	.db #0x10	; 16
      001AE0 81                    6476 	.db #0x81	; 129
      001AE1 17                    6477 	.db #0x17	; 23
      001AE2 82                    6478 	.db #0x82	; 130
      001AE3 15                    6479 	.db #0x15	; 21
      001AE4 03                    6480 	.db #0x03	; 3
      001AE5 2E                    6481 	.db #0x2e	; 46
      001AE6 35                    6482 	.db #0x35	; 53	'5'
      001AE7 68                    6483 	.db #0x68	; 104	'h'
      001AE8 D0                    6484 	.db #0xd0	; 208
      001AE9 A0                    6485 	.db #0xa0	; 160
      001AEA 40                    6486 	.db #0x40	; 64
      001AEB 80                    6487 	.db #0x80	; 128
      001AEC 00                    6488 	.db #0x00	; 0
      001AED 03                    6489 	.db #0x03	; 3
      001AEE B8                    6490 	.db #0xb8	; 184
      001AEF 06                    6491 	.db #0x06	; 6
      001AF0 00                    6492 	.db #0x00	; 0
      001AF1 00                    6493 	.db #0x00	; 0
      001AF2 00                    6494 	.db #0x00	; 0
      001AF3 00                    6495 	.db #0x00	; 0
      001AF4 00                    6496 	.db #0x00	; 0
      001AF5 00                    6497 	.db #0x00	; 0
      001AF6 01                    6498 	.db #0x01	; 1
      001AF7 38                    6499 	.db #0x38	; 56	'8'
      001AF8 28                    6500 	.db #0x28	; 40
      001AF9 30                    6501 	.db #0x30	; 48	'0'
      001AFA 28                    6502 	.db #0x28	; 40
      001AFB 31                    6503 	.db #0x31	; 49	'1'
      001AFC 2B                    6504 	.db #0x2b	; 43
      001AFD 32                    6505 	.db #0x32	; 50	'2'
      001AFE 29                    6506 	.db #0x29	; 41
      001AFF 01                    6507 	.db #0x01	; 1
      001B00 B2                    6508 	.db #0xb2	; 178
      001B01 58                    6509 	.db #0x58	; 88	'X'
      001B02 2C                    6510 	.db #0x2c	; 44
      001B03 96                    6511 	.db #0x96	; 150
      001B04 8B                    6512 	.db #0x8b	; 139
      001B05 45                    6513 	.db #0x45	; 69	'E'
      001B06 82                    6514 	.db #0x82	; 130
      001B07 01                    6515 	.db #0x01	; 1
      001B08 02                    6516 	.db #0x02	; 2
      001B09 0A                    6517 	.db #0x0a	; 10
      001B0A 05                    6518 	.db #0x05	; 5
      001B0B 00                    6519 	.db #0x00	; 0
      001B0C 01                    6520 	.db #0x01	; 1
      001B0D 00                    6521 	.db #0x00	; 0
      001B0E 00                    6522 	.db #0x00	; 0
      001B0F 00                    6523 	.db #0x00	; 0
      001B10 00                    6524 	.db #0x00	; 0
      001B11 02                    6525 	.db #0x02	; 2
      001B12 45                    6526 	.db #0x45	; 69	'E'
      001B13 83                    6527 	.db #0x83	; 131
      001B14 2E                    6528 	.db #0x2e	; 46
      001B15 60                    6529 	.db #0x60	; 96
      001B16 C9                    6530 	.db #0xc9	; 201
      001B17 1A                    6531 	.db #0x1a	; 26
      001B18 31                    6532 	.db #0x31	; 49	'1'
      001B19 00                    6533 	.db #0x00	; 0
      001B1A 04                    6534 	.db #0x04	; 4
      001B1B 08                    6535 	.db #0x08	; 8
      001B1C 08                    6536 	.db #0x08	; 8
      001B1D 01                    6537 	.db #0x01	; 1
      001B1E 01                    6538 	.db #0x01	; 1
      001B1F 08                    6539 	.db #0x08	; 8
      001B20 48                    6540 	.db #0x48	; 72	'H'
      001B21 01                    6541 	.db #0x01	; 1
      001B22 01                    6542 	.db #0x01	; 1
      001B23 08                    6543 	.db #0x08	; 8
      001B24 08                    6544 	.db #0x08	; 8
      001B25 01                    6545 	.db #0x01	; 1
      001B26 C1                    6546 	.db #0xc1	; 193
      001B27 08                    6547 	.db #0x08	; 8
      001B28 88                    6548 	.db #0x88	; 136
      001B29 01                    6549 	.db #0x01	; 1
      001B2A 01                    6550 	.db #0x01	; 1
      001B2B 03                    6551 	.db #0x03	; 3
      001B2C 82                    6552 	.db #0x82	; 130
      001B2D 14                    6553 	.db #0x14	; 20
      001B2E 80                    6554 	.db #0x80	; 128
      001B2F 10                    6555 	.db #0x10	; 16
      001B30 80                    6556 	.db #0x80	; 128
      001B31 10                    6557 	.db #0x10	; 16
      001B32 80                    6558 	.db #0x80	; 128
      001B33 10                    6559 	.db #0x10	; 16
      001B34 02                    6560 	.db #0x02	; 2
      001B35 00                    6561 	.db #0x00	; 0
      001B36 00                    6562 	.db #0x00	; 0
      001B37 00                    6563 	.db #0x00	; 0
      001B38 00                    6564 	.db #0x00	; 0
      001B39 01                    6565 	.db #0x01	; 1
      001B3A 02                    6566 	.db #0x02	; 2
      001B3B 05                    6567 	.db #0x05	; 5
      001B3C 0E                    6568 	.db #0x0e	; 14
      001B3D 02                    6569 	.db #0x02	; 2
      001B3E 00                    6570 	.db #0x00	; 0
      001B3F 00                    6571 	.db #0x00	; 0
      001B40 00                    6572 	.db #0x00	; 0
      001B41 20                    6573 	.db #0x20	; 32
      001B42 36                    6574 	.db #0x36	; 54	'6'
      001B43 5B                    6575 	.db #0x5b	; 91
      001B44 A0                    6576 	.db #0xa0	; 160
      001B45 56                    6577 	.db #0x56	; 86	'V'
      001B46 04                    6578 	.db #0x04	; 4
      001B47 08                    6579 	.db #0x08	; 8
      001B48 08                    6580 	.db #0x08	; 8
      001B49 01                    6581 	.db #0x01	; 1
      001B4A 01                    6582 	.db #0x01	; 1
      001B4B 08                    6583 	.db #0x08	; 8
      001B4C 08                    6584 	.db #0x08	; 8
      001B4D 01                    6585 	.db #0x01	; 1
      001B4E 01                    6586 	.db #0x01	; 1
      001B4F 08                    6587 	.db #0x08	; 8
      001B50 08                    6588 	.db #0x08	; 8
      001B51 01                    6589 	.db #0x01	; 1
      001B52 01                    6590 	.db #0x01	; 1
      001B53 08                    6591 	.db #0x08	; 8
      001B54 88                    6592 	.db #0x88	; 136
      001B55 01                    6593 	.db #0x01	; 1
      001B56 01                    6594 	.db #0x01	; 1
      001B57 02                    6595 	.db #0x02	; 2
      001B58 A2                    6596 	.db #0xa2	; 162
      001B59 64                    6597 	.db #0x64	; 100	'd'
      001B5A CB                    6598 	.db #0xcb	; 203
      001B5B 9D                    6599 	.db #0x9d	; 157
      001B5C 08                    6600 	.db #0x08	; 8
      001B5D 66                    6601 	.db #0x66	; 102	'f'
      001B5E CD                    6602 	.db #0xcd	; 205
      001B5F 8A                    6603 	.db #0x8a	; 138
      001B60 01                    6604 	.db #0x01	; 1
      001B61 0F                    6605 	.db #0x0f	; 15
      001B62 05                    6606 	.db #0x05	; 5
      001B63 0A                    6607 	.db #0x0a	; 10
      001B64 00                    6608 	.db #0x00	; 0
      001B65 02                    6609 	.db #0x02	; 2
      001B66 02                    6610 	.db #0x02	; 2
      001B67 03                    6611 	.db #0x03	; 3
      001B68 02                    6612 	.db #0x02	; 2
      001B69 01                    6613 	.db #0x01	; 1
      001B6A FF                    6614 	.db #0xff	; 255
      001B6B 55                    6615 	.db #0x55	; 85	'U'
      001B6C AA                    6616 	.db #0xaa	; 170
      001B6D 04                    6617 	.db #0x04	; 4
      001B6E 00                    6618 	.db #0x00	; 0
      001B6F 98                    6619 	.db #0x98	; 152
      001B70 2C                    6620 	.db #0x2c	; 44
      001B71 96                    6621 	.db #0x96	; 150
      001B72 04                    6622 	.db #0x04	; 4
      001B73 F8                    6623 	.db #0xf8	; 248
      001B74 08                    6624 	.db #0x08	; 8
      001B75 51                    6625 	.db #0x51	; 81	'Q'
      001B76 01                    6626 	.db #0x01	; 1
      001B77 A8                    6627 	.db #0xa8	; 168
      001B78 08                    6628 	.db #0x08	; 8
      001B79 01                    6629 	.db #0x01	; 1
      001B7A 01                    6630 	.db #0x01	; 1
      001B7B 08                    6631 	.db #0x08	; 8
      001B7C 08                    6632 	.db #0x08	; 8
      001B7D 31                    6633 	.db #0x31	; 49	'1'
      001B7E 01                    6634 	.db #0x01	; 1
      001B7F 68                    6635 	.db #0x68	; 104	'h'
      001B80 08                    6636 	.db #0x08	; 8
      001B81 51                    6637 	.db #0x51	; 81	'Q'
      001B82 01                    6638 	.db #0x01	; 1
      001B83 02                    6639 	.db #0x02	; 2
      001B84 08                    6640 	.db #0x08	; 8
      001B85 05                    6641 	.db #0x05	; 5
      001B86 1A                    6642 	.db #0x1a	; 26
      001B87 10                    6643 	.db #0x10	; 16
      001B88 06                    6644 	.db #0x06	; 6
      001B89 09                    6645 	.db #0x09	; 9
      001B8A 05                    6646 	.db #0x05	; 5
      001B8B 14                    6647 	.db #0x14	; 20
      001B8C 02                    6648 	.db #0x02	; 2
      001B8D 39                    6649 	.db #0x39	; 57	'9'
      001B8E 84                    6650 	.db #0x84	; 132
      001B8F 63                    6651 	.db #0x63	; 99	'c'
      001B90 94                    6652 	.db #0x94	; 148
      001B91 5B                    6653 	.db #0x5b	; 91
      001B92 A0                    6654 	.db #0xa0	; 160
      001B93 34                    6655 	.db #0x34	; 52	'4'
      001B94 6E                    6656 	.db #0x6e	; 110	'n'
      001B95 04                    6657 	.db #0x04	; 4
      001B96 08                    6658 	.db #0x08	; 8
      001B97 48                    6659 	.db #0x48	; 72	'H'
      001B98 01                    6660 	.db #0x01	; 1
      001B99 01                    6661 	.db #0x01	; 1
      001B9A 08                    6662 	.db #0x08	; 8
      001B9B 68                    6663 	.db #0x68	; 104	'h'
      001B9C 01                    6664 	.db #0x01	; 1
      001B9D C1                    6665 	.db #0xc1	; 193
      001B9E 08                    6666 	.db #0x08	; 8
      001B9F 68                    6667 	.db #0x68	; 104	'h'
      001BA0 01                    6668 	.db #0x01	; 1
      001BA1 81                    6669 	.db #0x81	; 129
      001BA2 08                    6670 	.db #0x08	; 8
      001BA3 08                    6671 	.db #0x08	; 8
      001BA4 01                    6672 	.db #0x01	; 1
      001BA5 81                    6673 	.db #0x81	; 129
      001BA6 01                    6674 	.db #0x01	; 1
      001BA7 03                    6675 	.db #0x03	; 3
      001BA8 02                    6676 	.db #0x02	; 2
      001BA9 03                    6677 	.db #0x03	; 3
      001BAA 02                    6678 	.db #0x02	; 2
      001BAB 03                    6679 	.db #0x03	; 3
      001BAC 02                    6680 	.db #0x02	; 2
      001BAD 03                    6681 	.db #0x03	; 3
      001BAE 02                    6682 	.db #0x02	; 2
      001BAF 01                    6683 	.db #0x01	; 1
      001BB0 8B                    6684 	.db #0x8b	; 139
      001BB1 85                    6685 	.db #0x85	; 133
      001BB2 02                    6686 	.db #0x02	; 2
      001BB3 89                    6687 	.db #0x89	; 137
      001BB4 18                    6688 	.db #0x18	; 24
      001BB5 B4                    6689 	.db #0xb4	; 180
      001BB6 28                    6690 	.db #0x28	; 40
      001BB7 90                    6691 	.db #0x90	; 144
      001BB8 01                    6692 	.db #0x01	; 1
      001BB9 2F                    6693 	.db #0x2f	; 47
      001BBA 85                    6694 	.db #0x85	; 133
      001BBB CA                    6695 	.db #0xca	; 202
      001BBC 60                    6696 	.db #0x60	; 96
      001BBD B2                    6697 	.db #0xb2	; 178
      001BBE 52                    6698 	.db #0x52	; 82	'R'
      001BBF 23                    6699 	.db #0x23	; 35
      001BC0 12                    6700 	.db #0x12	; 18
      001BC1 04                    6701 	.db #0x04	; 4
      001BC2 FA                    6702 	.db #0xfa	; 250
      001BC3 0A                    6703 	.db #0x0a	; 10
      001BC4 5F                    6704 	.db #0x5f	; 95
      001BC5 0F                    6705 	.db #0x0f	; 15
      001BC6 AA                    6706 	.db #0xaa	; 170
      001BC7 0A                    6707 	.db #0x0a	; 10
      001BC8 0F                    6708 	.db #0x0f	; 15
      001BC9 0F                    6709 	.db #0x0f	; 15
      001BCA 0A                    6710 	.db #0x0a	; 10
      001BCB 0A                    6711 	.db #0x0a	; 10
      001BCC 3F                    6712 	.db #0x3f	; 63
      001BCD 0F                    6713 	.db #0x0f	; 15
      001BCE 6A                    6714 	.db #0x6a	; 106	'j'
      001BCF 0A                    6715 	.db #0x0a	; 10
      001BD0 5F                    6716 	.db #0x5f	; 95
      001BD1 0F                    6717 	.db #0x0f	; 15
      001BD2 02                    6718 	.db #0x02	; 2
      001BD3 00                    6719 	.db #0x00	; 0
      001BD4 01                    6720 	.db #0x01	; 1
      001BD5 02                    6721 	.db #0x02	; 2
      001BD6 07                    6722 	.db #0x07	; 7
      001BD7 04                    6723 	.db #0x04	; 4
      001BD8 02                    6724 	.db #0x02	; 2
      001BD9 0D                    6725 	.db #0x0d	; 13
      001BDA 08                    6726 	.db #0x08	; 8
      001BDB 02                    6727 	.db #0x02	; 2
      001BDC 9B                    6728 	.db #0x9b	; 155
      001BDD 2D                    6729 	.db #0x2d	; 45
      001BDE D0                    6730 	.db #0xd0	; 208
      001BDF 2B                    6731 	.db #0x2b	; 43
      001BE0 1C                    6732 	.db #0x1c	; 28
      001BE1 C2                    6733 	.db #0xc2	; 194
      001BE2 31                    6734 	.db #0x31	; 49	'1'
      001BE3 4A                    6735 	.db #0x4a	; 74	'J'
      001BE4 04                    6736 	.db #0x04	; 4
      001BE5 00                    6737 	.db #0x00	; 0
      001BE6 01                    6738 	.db #0x01	; 1
      001BE7 00                    6739 	.db #0x00	; 0
      001BE8 9A                    6740 	.db #0x9a	; 154
      001BE9 00                    6741 	.db #0x00	; 0
      001BEA 42                    6742 	.db #0x42	; 66	'B'
      001BEB 00                    6743 	.db #0x00	; 0
      001BEC 00                    6744 	.db #0x00	; 0
      001BED 04                    6745 	.db #0x04	; 4
      001BEE A4                    6746 	.db #0xa4	; 164
      001BEF 04                    6747 	.db #0x04	; 4
      001BF0 04                    6748 	.db #0x04	; 4
      001BF1 04                    6749 	.db #0x04	; 4
      001BF2 B4                    6750 	.db #0xb4	; 180
      001BF3 06                    6751 	.db #0x06	; 6
      001BF4 66                    6752 	.db #0x66	; 102	'f'
      001BF5 04                    6753 	.db #0x04	; 4
      001BF6 08                    6754 	.db #0x08	; 8
      001BF7 C8                    6755 	.db #0xc8	; 200
      001BF8 01                    6756 	.db #0x01	; 1
      001BF9 01                    6757 	.db #0x01	; 1
      001BFA 08                    6758 	.db #0x08	; 8
      001BFB 08                    6759 	.db #0x08	; 8
      001BFC 01                    6760 	.db #0x01	; 1
      001BFD 01                    6761 	.db #0x01	; 1
      001BFE 08                    6762 	.db #0x08	; 8
      001BFF 08                    6763 	.db #0x08	; 8
      001C00 01                    6764 	.db #0x01	; 1
      001C01 01                    6765 	.db #0x01	; 1
      001C02 08                    6766 	.db #0x08	; 8
      001C03 08                    6767 	.db #0x08	; 8
      001C04 01                    6768 	.db #0x01	; 1
      001C05 01                    6769 	.db #0x01	; 1
      001C06 04                    6770 	.db #0x04	; 4
      001C07 02                    6771 	.db #0x02	; 2
      001C08 02                    6772 	.db #0x02	; 2
      001C09 0A                    6773 	.db #0x0a	; 10
      001C0A 0A                    6774 	.db #0x0a	; 10
      001C0B 02                    6775 	.db #0x02	; 2
      001C0C 02                    6776 	.db #0x02	; 2
      001C0D 0A                    6777 	.db #0x0a	; 10
      001C0E CA                    6778 	.db #0xca	; 202
      001C0F 03                    6779 	.db #0x03	; 3
      001C10 63                    6780 	.db #0x63	; 99	'c'
      001C11 0A                    6781 	.db #0x0a	; 10
      001C12 8A                    6782 	.db #0x8a	; 138
      001C13 01                    6783 	.db #0x01	; 1
      001C14 01                    6784 	.db #0x01	; 1
      001C15 0A                    6785 	.db #0x0a	; 10
      001C16 2A                    6786 	.db #0x2a	; 42
      001C17 03                    6787 	.db #0x03	; 3
      001C18 4F                    6788 	.db #0x4f	; 79	'O'
      001C19 EA                    6789 	.db #0xea	; 234
      001C1A 5F                    6790 	.db #0x5f	; 95
      001C1B FA                    6791 	.db #0xfa	; 250
      001C1C 5B                    6792 	.db #0x5b	; 91
      001C1D FA                    6793 	.db #0xfa	; 250
      001C1E 5F                    6794 	.db #0x5f	; 95
      001C1F FA                    6795 	.db #0xfa	; 250
      001C20 03                    6796 	.db #0x03	; 3
      001C21 50                    6797 	.db #0x50	; 80	'P'
      001C22 80                    6798 	.db #0x80	; 128
      001C23 50                    6799 	.db #0x50	; 80	'P'
      001C24 80                    6800 	.db #0x80	; 128
      001C25 50                    6801 	.db #0x50	; 80	'P'
      001C26 40                    6802 	.db #0x40	; 64
      001C27 50                    6803 	.db #0x50	; 80	'P'
      001C28 80                    6804 	.db #0x80	; 128
      001C29 01                    6805 	.db #0x01	; 1
      001C2A 03                    6806 	.db #0x03	; 3
      001C2B 05                    6807 	.db #0x05	; 5
      001C2C 0A                    6808 	.db #0x0a	; 10
      001C2D 0D                    6809 	.db #0x0d	; 13
      001C2E 08                    6810 	.db #0x08	; 8
      001C2F 04                    6811 	.db #0x04	; 4
      001C30 03                    6812 	.db #0x03	; 3
      001C31 00                    6813 	.db #0x00	; 0
      001C32 01                    6814 	.db #0x01	; 1
      001C33 83                    6815 	.db #0x83	; 131
      001C34 45                    6816 	.db #0x45	; 69	'E'
      001C35 AA                    6817 	.db #0xaa	; 170
      001C36 2D                    6818 	.db #0x2d	; 45
      001C37 28                    6819 	.db #0x28	; 40
      001C38 44                    6820 	.db #0x44	; 68	'D'
      001C39 83                    6821 	.db #0x83	; 131
      001C3A 00                    6822 	.db #0x00	; 0
      001C3B 01                    6823 	.db #0x01	; 1
      001C3C 83                    6824 	.db #0x83	; 131
      001C3D 42                    6825 	.db #0x42	; 66	'B'
      001C3E A3                    6826 	.db #0xa3	; 163
      001C3F 22                    6827 	.db #0x22	; 34
      001C40 23                    6828 	.db #0x23	; 35
      001C41 42                    6829 	.db #0x42	; 66	'B'
      001C42 83                    6830 	.db #0x83	; 131
      001C43 02                    6831 	.db #0x02	; 2
      001C44 01                    6832 	.db #0x01	; 1
      001C45 F0                    6833 	.db #0xf0	; 240
      001C46 50                    6834 	.db #0x50	; 80	'P'
      001C47 A0                    6835 	.db #0xa0	; 160
      001C48 00                    6836 	.db #0x00	; 0
      001C49 00                    6837 	.db #0x00	; 0
      001C4A 30                    6838 	.db #0x30	; 48	'0'
      001C4B 60                    6839 	.db #0x60	; 96
      001C4C 50                    6840 	.db #0x50	; 80	'P'
      001C4D 02                    6841 	.db #0x02	; 2
      001C4E 03                    6842 	.db #0x03	; 3
      001C4F 04                    6843 	.db #0x04	; 4
      001C50 02                    6844 	.db #0x02	; 2
      001C51 06                    6845 	.db #0x06	; 6
      001C52 05                    6846 	.db #0x05	; 5
      001C53 00                    6847 	.db #0x00	; 0
      001C54 00                    6848 	.db #0x00	; 0
      001C55 00                    6849 	.db #0x00	; 0
      001C56 02                    6850 	.db #0x02	; 2
      001C57 2D                    6851 	.db #0x2d	; 45
      001C58 D0                    6852 	.db #0xd0	; 208
      001C59 9A                    6853 	.db #0x9a	; 154
      001C5A 37                    6854 	.db #0x37	; 55	'7'
      001C5B 00                    6855 	.db #0x00	; 0
      001C5C C5                    6856 	.db #0xc5	; 197
      001C5D A6                    6857 	.db #0xa6	; 166
      001C5E 4B                    6858 	.db #0x4b	; 75	'K'
      001C5F 04                    6859 	.db #0x04	; 4
      001C60 03                    6860 	.db #0x03	; 3
      001C61 B3                    6861 	.db #0xb3	; 179
      001C62 05                    6862 	.db #0x05	; 5
      001C63 45                    6863 	.db #0x45	; 69	'E'
      001C64 02                    6864 	.db #0x02	; 2
      001C65 02                    6865 	.db #0x02	; 2
      001C66 01                    6866 	.db #0x01	; 1
      001C67 41                    6867 	.db #0x41	; 65	'A'
      001C68 00                    6868 	.db #0x00	; 0
      001C69 E0                    6869 	.db #0xe0	; 224
      001C6A 00                    6870 	.db #0x00	; 0
      001C6B 00                    6871 	.db #0x00	; 0
      001C6C 00                    6872 	.db #0x00	; 0
      001C6D C0                    6873 	.db #0xc0	; 192
      001C6E 00                    6874 	.db #0x00	; 0
      001C6F 60                    6875 	.db #0x60	; 96
      001C70 03                    6876 	.db #0x03	; 3
      001C71 08                    6877 	.db #0x08	; 8
      001C72 81                    6878 	.db #0x81	; 129
      001C73 E8                    6879 	.db #0xe8	; 232
      001C74 41                    6880 	.db #0x41	; 65	'A'
      001C75 A8                    6881 	.db #0xa8	; 168
      001C76 41                    6882 	.db #0x41	; 65	'A'
      001C77 28                    6883 	.db #0x28	; 40
      001C78 01                    6884 	.db #0x01	; 1
      001C79 04                    6885 	.db #0x04	; 4
      001C7A 01                    6886 	.db #0x01	; 1
      001C7B 81                    6887 	.db #0x81	; 129
      001C7C 0A                    6888 	.db #0x0a	; 10
      001C7D 8A                    6889 	.db #0x8a	; 138
      001C7E 01                    6890 	.db #0x01	; 1
      001C7F 61                    6891 	.db #0x61	; 97	'a'
      001C80 0A                    6892 	.db #0x0a	; 10
      001C81 8A                    6893 	.db #0x8a	; 138
      001C82 01                    6894 	.db #0x01	; 1
      001C83 21                    6895 	.db #0x21	; 33
      001C84 0A                    6896 	.db #0x0a	; 10
      001C85 8A                    6897 	.db #0x8a	; 138
      001C86 01                    6898 	.db #0x01	; 1
      001C87 81                    6899 	.db #0x81	; 129
      001C88 0A                    6900 	.db #0x0a	; 10
      001C89 2A                    6901 	.db #0x2a	; 42
      001C8A 03                    6902 	.db #0x03	; 3
      001C8B 5F                    6903 	.db #0x5f	; 95
      001C8C EA                    6904 	.db #0xea	; 234
      001C8D 4F                    6905 	.db #0x4f	; 79	'O'
      001C8E EA                    6906 	.db #0xea	; 234
      001C8F 4F                    6907 	.db #0x4f	; 79	'O'
      001C90 EA                    6908 	.db #0xea	; 234
      001C91 5F                    6909 	.db #0x5f	; 95
      001C92 FA                    6910 	.db #0xfa	; 250
      001C93 03                    6911 	.db #0x03	; 3
      001C94 80                    6912 	.db #0x80	; 128
      001C95 00                    6913 	.db #0x00	; 0
      001C96 F0                    6914 	.db #0xf0	; 240
      001C97 0C                    6915 	.db #0x0c	; 12
      001C98 00                    6916 	.db #0x00	; 0
      001C99 00                    6917 	.db #0x00	; 0
      001C9A 00                    6918 	.db #0x00	; 0
      001C9B 00                    6919 	.db #0x00	; 0
      001C9C 01                    6920 	.db #0x01	; 1
      001C9D 20                    6921 	.db #0x20	; 32
      001C9E 80                    6922 	.db #0x80	; 128
      001C9F C0                    6923 	.db #0xc0	; 192
      001CA0 60                    6924 	.db #0x60	; 96
      001CA1 B0                    6925 	.db #0xb0	; 176
      001CA2 50                    6926 	.db #0x50	; 80	'P'
      001CA3 20                    6927 	.db #0x20	; 32
      001CA4 10                    6928 	.db #0x10	; 16
      001CA5 02                    6929 	.db #0x02	; 2
      001CA6 00                    6930 	.db #0x00	; 0
      001CA7 01                    6931 	.db #0x01	; 1
      001CA8 01                    6932 	.db #0x01	; 1
      001CA9 00                    6933 	.db #0x00	; 0
      001CAA 03                    6934 	.db #0x03	; 3
      001CAB 02                    6935 	.db #0x02	; 2
      001CAC 00                    6936 	.db #0x00	; 0
      001CAD 01                    6937 	.db #0x01	; 1
      001CAE 02                    6938 	.db #0x02	; 2
      001CAF B4                    6939 	.db #0xb4	; 180
      001CB0 CA                    6940 	.db #0xca	; 202
      001CB1 07                    6941 	.db #0x07	; 7
      001CB2 B0                    6942 	.db #0xb0	; 176
      001CB3 4C                    6943 	.db #0x4c	; 76	'L'
      001CB4 12                    6944 	.db #0x12	; 18
      001CB5 CB                    6945 	.db #0xcb	; 203
      001CB6 34                    6946 	.db #0x34	; 52	'4'
      001CB7 02                    6947 	.db #0x02	; 2
      001CB8 10                    6948 	.db #0x10	; 16
      001CB9 C0                    6949 	.db #0xc0	; 192
      001CBA 28                    6950 	.db #0x28	; 40
      001CBB 80                    6951 	.db #0x80	; 128
      001CBC 6C                    6952 	.db #0x6c	; 108	'l'
      001CBD 98                    6953 	.db #0x98	; 152
      001CBE 6C                    6954 	.db #0x6c	; 108	'l'
      001CBF 10                    6955 	.db #0x10	; 16
      001CC0 04                    6956 	.db #0x04	; 4
      001CC1 00                    6957 	.db #0x00	; 0
      001CC2 00                    6958 	.db #0x00	; 0
      001CC3 0A                    6959 	.db #0x0a	; 10
      001CC4 6A                    6960 	.db #0x6a	; 106	'j'
      001CC5 02                    6961 	.db #0x02	; 2
      001CC6 82                    6962 	.db #0x82	; 130
      001CC7 0A                    6963 	.db #0x0a	; 10
      001CC8 2A                    6964 	.db #0x2a	; 42
      001CC9 02                    6965 	.db #0x02	; 2
      001CCA 22                    6966 	.db #0x22	; 34
      001CCB 0A                    6967 	.db #0x0a	; 10
      001CCC 8A                    6968 	.db #0x8a	; 138
      001CCD 01                    6969 	.db #0x01	; 1
      001CCE 41                    6970 	.db #0x41	; 65	'A'
      001CCF 0A                    6971 	.db #0x0a	; 10
      001CD0 0A                    6972 	.db #0x0a	; 10
      001CD1 04                    6973 	.db #0x04	; 4
      001CD2 F3                    6974 	.db #0xf3	; 243
      001CD3 F0                    6975 	.db #0xf0	; 240
      001CD4 55                    6976 	.db #0x55	; 85	'U'
      001CD5 50                    6977 	.db #0x50	; 80	'P'
      001CD6 EA                    6978 	.db #0xea	; 234
      001CD7 E0                    6979 	.db #0xe0	; 224
      001CD8 4D                    6980 	.db #0x4d	; 77	'M'
      001CD9 40                    6981 	.db #0x40	; 64
      001CDA E8                    6982 	.db #0xe8	; 232
      001CDB E0                    6983 	.db #0xe0	; 224
      001CDC 44                    6984 	.db #0x44	; 68	'D'
      001CDD 40                    6985 	.db #0x40	; 64
      001CDE E3                    6986 	.db #0xe3	; 227
      001CDF E0                    6987 	.db #0xe0	; 224
      001CE0 50                    6988 	.db #0x50	; 80	'P'
      001CE1 50                    6989 	.db #0x50	; 80	'P'
      001CE2 01                    6990 	.db #0x01	; 1
      001CE3 80                    6991 	.db #0x80	; 128
      001CE4 40                    6992 	.db #0x40	; 64
      001CE5 A0                    6993 	.db #0xa0	; 160
      001CE6 20                    6994 	.db #0x20	; 32
      001CE7 20                    6995 	.db #0x20	; 32
      001CE8 40                    6996 	.db #0x40	; 64
      001CE9 80                    6997 	.db #0x80	; 128
      001CEA 00                    6998 	.db #0x00	; 0
      001CEB 02                    6999 	.db #0x02	; 2
      001CEC A6                    7000 	.db #0xa6	; 166
      001CED 8D                    7001 	.db #0x8d	; 141
      001CEE 40                    7002 	.db #0x40	; 64
      001CEF 33                    7003 	.db #0x33	; 51	'3'
      001CF0 24                    7004 	.db #0x24	; 36
      001CF1 00                    7005 	.db #0x00	; 0
      001CF2 00                    7006 	.db #0x00	; 0
      001CF3 00                    7007 	.db #0x00	; 0
      001CF4 02                    7008 	.db #0x02	; 2
      001CF5 80                    7009 	.db #0x80	; 128
      001CF6 D0                    7010 	.db #0xd0	; 208
      001CF7 38                    7011 	.db #0x38	; 56	'8'
      001CF8 40                    7012 	.db #0x40	; 64
      001CF9 40                    7013 	.db #0x40	; 64
      001CFA 00                    7014 	.db #0x00	; 0
      001CFB 00                    7015 	.db #0x00	; 0
      001CFC 00                    7016 	.db #0x00	; 0
      001CFD 03                    7017 	.db #0x03	; 3
      001CFE 01                    7018 	.db #0x01	; 1
      001CFF 0A                    7019 	.db #0x0a	; 10
      001D00 02                    7020 	.db #0x02	; 2
      001D01 0A                    7021 	.db #0x0a	; 10
      001D02 01                    7022 	.db #0x01	; 1
      001D03 0A                    7023 	.db #0x0a	; 10
      001D04 01                    7024 	.db #0x01	; 1
      001D05 8A                    7025 	.db #0x8a	; 138
      001D06 01                    7026 	.db #0x01	; 1
      001D07 00                    7027 	.db #0x00	; 0
      001D08 00                    7028 	.db #0x00	; 0
      001D09 00                    7029 	.db #0x00	; 0
      001D0A 00                    7030 	.db #0x00	; 0
      001D0B 0C                    7031 	.db #0x0c	; 12
      001D0C 1A                    7032 	.db #0x1a	; 26
      001D0D 15                    7033 	.db #0x15	; 21
      001D0E E2                    7034 	.db #0xe2	; 226
      001D0F 01                    7035 	.db #0x01	; 1
      001D10 00                    7036 	.db #0x00	; 0
      001D11 00                    7037 	.db #0x00	; 0
      001D12 00                    7038 	.db #0x00	; 0
      001D13 00                    7039 	.db #0x00	; 0
      001D14 00                    7040 	.db #0x00	; 0
      001D15 14                    7041 	.db #0x14	; 20
      001D16 88                    7042 	.db #0x88	; 136
      001D17 34                    7043 	.db #0x34	; 52	'4'
      001D18 02                    7044 	.db #0x02	; 2
      001D19 10                    7045 	.db #0x10	; 16
      001D1A 28                    7046 	.db #0x28	; 40
      001D1B 04                    7047 	.db #0x04	; 4
      001D1C 04                    7048 	.db #0x04	; 4
      001D1D 02                    7049 	.db #0x02	; 2
      001D1E 02                    7050 	.db #0x02	; 2
      001D1F 02                    7051 	.db #0x02	; 2
      001D20 02                    7052 	.db #0x02	; 2
      001D21 02                    7053 	.db #0x02	; 2
      001D22 00                    7054 	.db #0x00	; 0
      001D23 00                    7055 	.db #0x00	; 0
      001D24 18                    7056 	.db #0x18	; 24
      001D25 20                    7057 	.db #0x20	; 32
      001D26 20                    7058 	.db #0x20	; 32
      001D27 40                    7059 	.db #0x40	; 64
      001D28 40                    7060 	.db #0x40	; 64
      001D29 90                    7061 	.db #0x90	; 144
      001D2A 01                    7062 	.db #0x01	; 1
      001D2B 01                    7063 	.db #0x01	; 1
      001D2C 02                    7064 	.db #0x02	; 2
      001D2D 02                    7065 	.db #0x02	; 2
      001D2E 08                    7066 	.db #0x08	; 8
      001D2F 48                    7067 	.db #0x48	; 72	'H'
      001D30 29                    7068 	.db #0x29	; 41
      001D31 15                    7069 	.db #0x15	; 21
      001D32 3D                    7070 	.db #0x3d	; 61
      001D33 01                    7071 	.db #0x01	; 1
      001D34 18                    7072 	.db #0x18	; 24
      001D35 07                    7073 	.db #0x07	; 7
      001D36 78                    7074 	.db #0x78	; 120	'x'
      001D37 C9                    7075 	.db #0xc9	; 201
      001D38 BE                    7076 	.db #0xbe	; 190
      001D39 FF                    7077 	.db #0xff	; 255
      001D3A EB                    7078 	.db #0xeb	; 235
      001D3B FF                    7079 	.db #0xff	; 255
      001D3C 01                    7080 	.db #0x01	; 1
      001D3D 40                    7081 	.db #0x40	; 64
      001D3E 80                    7082 	.db #0x80	; 128
      001D3F 40                    7083 	.db #0x40	; 64
      001D40 20                    7084 	.db #0x20	; 32
      001D41 90                    7085 	.db #0x90	; 144
      001D42 90                    7086 	.db #0x90	; 144
      001D43 C0                    7087 	.db #0xc0	; 192
      001D44 C0                    7088 	.db #0xc0	; 192
      001D45 03                    7089 	.db #0x03	; 3
      001D46 01                    7090 	.db #0x01	; 1
      001D47 0A                    7091 	.db #0x0a	; 10
      001D48 01                    7092 	.db #0x01	; 1
      001D49 0A                    7093 	.db #0x0a	; 10
      001D4A 01                    7094 	.db #0x01	; 1
      001D4B 0A                    7095 	.db #0x0a	; 10
      001D4C 01                    7096 	.db #0x01	; 1
      001D4D 0A                    7097 	.db #0x0a	; 10
      001D4E 03                    7098 	.db #0x03	; 3
      001D4F 50                    7099 	.db #0x50	; 80	'P'
      001D50 80                    7100 	.db #0x80	; 128
      001D51 50                    7101 	.db #0x50	; 80	'P'
      001D52 C0                    7102 	.db #0xc0	; 192
      001D53 50                    7103 	.db #0x50	; 80	'P'
      001D54 40                    7104 	.db #0x40	; 64
      001D55 50                    7105 	.db #0x50	; 80	'P'
      001D56 00                    7106 	.db #0x00	; 0
      001D57 02                    7107 	.db #0x02	; 2
      001D58 02                    7108 	.db #0x02	; 2
      001D59 45                    7109 	.db #0x45	; 69	'E'
      001D5A 25                    7110 	.db #0x25	; 37
      001D5B 19                    7111 	.db #0x19	; 25
      001D5C 28                    7112 	.db #0x28	; 40
      001D5D AD                    7113 	.db #0xad	; 173
      001D5E 77                    7114 	.db #0x77	; 119	'w'
      001D5F AD                    7115 	.db #0xad	; 173
      001D60 02                    7116 	.db #0x02	; 2
      001D61 A0                    7117 	.db #0xa0	; 160
      001D62 A4                    7118 	.db #0xa4	; 164
      001D63 48                    7119 	.db #0x48	; 72	'H'
      001D64 28                    7120 	.db #0x28	; 40
      001D65 93                    7121 	.db #0x93	; 147
      001D66 2A                    7122 	.db #0x2a	; 42
      001D67 6D                    7123 	.db #0x6d	; 109	'm'
      001D68 D6                    7124 	.db #0xd6	; 214
      001D69 02                    7125 	.db #0x02	; 2
      001D6A 90                    7126 	.db #0x90	; 144
      001D6B 50                    7127 	.db #0x50	; 80	'P'
      001D6C 54                    7128 	.db #0x54	; 84	'T'
      001D6D 34                    7129 	.db #0x34	; 52	'4'
      001D6E 0F                    7130 	.db #0x0f	; 15
      001D6F B1                    7131 	.db #0xb1	; 177
      001D70 5A                    7132 	.db #0x5a	; 90	'Z'
      001D71 AD                    7133 	.db #0xad	; 173
      001D72 02                    7134 	.db #0x02	; 2
      001D73 10                    7135 	.db #0x10	; 16
      001D74 52                    7136 	.db #0x52	; 82	'R'
      001D75 4A                    7137 	.db #0x4a	; 74	'J'
      001D76 CA                    7138 	.db #0xca	; 202
      001D77 45                    7139 	.db #0x45	; 69	'E'
      001D78 55                    7140 	.db #0x55	; 85	'U'
      001D79 CB                    7141 	.db #0xcb	; 203
      001D7A 75                    7142 	.db #0x75	; 117	'u'
      001D7B 02                    7143 	.db #0x02	; 2
      001D7C 02                    7144 	.db #0x02	; 2
      001D7D 02                    7145 	.db #0x02	; 2
      001D7E 0A                    7146 	.db #0x0a	; 10
      001D7F 52                    7147 	.db #0x52	; 82	'R'
      001D80 24                    7148 	.db #0x24	; 36
      001D81 65                    7149 	.db #0x65	; 101	'e'
      001D82 95                    7150 	.db #0x95	; 149
      001D83 6A                    7151 	.db #0x6a	; 106	'j'
      001D84 02                    7152 	.db #0x02	; 2
      001D85 10                    7153 	.db #0x10	; 16
      001D86 20                    7154 	.db #0x20	; 32
      001D87 44                    7155 	.db #0x44	; 68	'D'
      001D88 55                    7156 	.db #0x55	; 85	'U'
      001D89 92                    7157 	.db #0x92	; 146
      001D8A 92                    7158 	.db #0x92	; 146
      001D8B 5D                    7159 	.db #0x5d	; 93
      001D8C ED                    7160 	.db #0xed	; 237
      001D8D 01                    7161 	.db #0x01	; 1
      001D8E 19                    7162 	.db #0x19	; 25
      001D8F 01                    7163 	.db #0x01	; 1
      001D90 0D                    7164 	.db #0x0d	; 13
      001D91 1E                    7165 	.db #0x1e	; 30
      001D92 17                    7166 	.db #0x17	; 23
      001D93 0B                    7167 	.db #0x0b	; 11
      001D94 05                    7168 	.db #0x05	; 5
      001D95 00                    7169 	.db #0x00	; 0
      001D96 01                    7170 	.db #0x01	; 1
      001D97 BE                    7171 	.db #0xbe	; 190
      001D98 C1                    7172 	.db #0xc1	; 193
      001D99 EB                    7173 	.db #0xeb	; 235
      001D9A F7                    7174 	.db #0xf7	; 247
      001D9B 7F                    7175 	.db #0x7f	; 127
      001D9C AA                    7176 	.db #0xaa	; 170
      001D9D 14                    7177 	.db #0x14	; 20
      001D9E 00                    7178 	.db #0x00	; 0
      001D9F 01                    7179 	.db #0x01	; 1
      001DA0 E0                    7180 	.db #0xe0	; 224
      001DA1 C0                    7181 	.db #0xc0	; 192
      001DA2 D8                    7182 	.db #0xd8	; 216
      001DA3 BC                    7183 	.db #0xbc	; 188
      001DA4 74                    7184 	.db #0x74	; 116	't'
      001DA5 E8                    7185 	.db #0xe8	; 232
      001DA6 50                    7186 	.db #0x50	; 80	'P'
      001DA7 00                    7187 	.db #0x00	; 0
      001DA8 02                    7188 	.db #0x02	; 2
      001DA9 08                    7189 	.db #0x08	; 8
      001DAA 4A                    7190 	.db #0x4a	; 74	'J'
      001DAB 52                    7191 	.db #0x52	; 82	'R'
      001DAC 53                    7192 	.db #0x53	; 83	'S'
      001DAD A2                    7193 	.db #0xa2	; 162
      001DAE AA                    7194 	.db #0xaa	; 170
      001DAF D3                    7195 	.db #0xd3	; 211
      001DB0 AE                    7196 	.db #0xae	; 174
      001DB1 02                    7197 	.db #0x02	; 2
      001DB2 09                    7198 	.db #0x09	; 9
      001DB3 0A                    7199 	.db #0x0a	; 10
      001DB4 2A                    7200 	.db #0x2a	; 42
      001DB5 2C                    7201 	.db #0x2c	; 44
      001DB6 F0                    7202 	.db #0xf0	; 240
      001DB7 8D                    7203 	.db #0x8d	; 141
      001DB8 5A                    7204 	.db #0x5a	; 90	'Z'
      001DB9 B5                    7205 	.db #0xb5	; 181
      001DBA 03                    7206 	.db #0x03	; 3
      001DBB 30                    7207 	.db #0x30	; 48	'0'
      001DBC 7E                    7208 	.db #0x7e	; 126
      001DBD FE                    7209 	.db #0xfe	; 254
      001DBE CF                    7210 	.db #0xcf	; 207
      001DBF A5                    7211 	.db #0xa5	; 165
      001DC0 68                    7212 	.db #0x68	; 104	'h'
      001DC1 AB                    7213 	.db #0xab	; 171
      001DC2 9A                    7214 	.db #0x9a	; 154
      001DC3 03                    7215 	.db #0x03	; 3
      001DC4 70                    7216 	.db #0x70	; 112	'p'
      001DC5 FD                    7217 	.db #0xfd	; 253
      001DC6 F7                    7218 	.db #0xf7	; 247
      001DC7 75                    7219 	.db #0x75	; 117	'u'
      001DC8 E3                    7220 	.db #0xe3	; 227
      001DC9 A0                    7221 	.db #0xa0	; 160
      001DCA 15                    7222 	.db #0x15	; 21
      001DCB 76                    7223 	.db #0x76	; 118	'v'
      001DCC 03                    7224 	.db #0x03	; 3
      001DCD 38                    7225 	.db #0x38	; 56	'8'
      001DCE DF                    7226 	.db #0xdf	; 223
      001DCF DF                    7227 	.db #0xdf	; 223
      001DD0 7B                    7228 	.db #0x7b	; 123
      001DD1 52                    7229 	.db #0x52	; 82	'R'
      001DD2 8C                    7230 	.db #0x8c	; 140
      001DD3 D6                    7231 	.db #0xd6	; 214
      001DD4 54                    7232 	.db #0x54	; 84	'T'
      001DD5 03                    7233 	.db #0x03	; 3
      001DD6 38                    7234 	.db #0x38	; 56	'8'
      001DD7 63                    7235 	.db #0x63	; 99	'c'
      001DD8 CB                    7236 	.db #0xcb	; 203
      001DD9 AF                    7237 	.db #0xaf	; 175
      001DDA E7                    7238 	.db #0xe7	; 231
      001DDB 81                    7239 	.db #0x81	; 129
      001DDC 2A                    7240 	.db #0x2a	; 42
      001DDD EC                    7241 	.db #0xec	; 236
      001DDE 03                    7242 	.db #0x03	; 3
      001DDF 7C                    7243 	.db #0x7c	; 124
      001DE0 FB                    7244 	.db #0xfb	; 251
      001DE1 FF                    7245 	.db #0xff	; 255
      001DE2 FF                    7246 	.db #0xff	; 255
      001DE3 DD                    7247 	.db #0xdd	; 221
      001DE4 69                    7248 	.db #0x69	; 105	'i'
      001DE5 28                    7249 	.db #0x28	; 40
      001DE6 00                    7250 	.db #0x00	; 0
      001DE7 03                    7251 	.db #0x03	; 3
      001DE8 DE                    7252 	.db #0xde	; 222
      001DE9 FA                    7253 	.db #0xfa	; 250
      001DEA DF                    7254 	.db #0xdf	; 223
      001DEB BB                    7255 	.db #0xbb	; 187
      001DEC BB                    7256 	.db #0xbb	; 187
      001DED 29                    7257 	.db #0x29	; 41
      001DEE 11                    7258 	.db #0x11	; 17
      001DEF 00                    7259 	.db #0x00	; 0
      001DF0 03                    7260 	.db #0x03	; 3
      001DF1 36                    7261 	.db #0x36	; 54	'6'
      001DF2 F9                    7262 	.db #0xf9	; 249
      001DF3 D5                    7263 	.db #0xd5	; 213
      001DF4 BA                    7264 	.db #0xba	; 186
      001DF5 D4                    7265 	.db #0xd4	; 212
      001DF6 4C                    7266 	.db #0x4c	; 76	'L'
      001DF7 08                    7267 	.db #0x08	; 8
      001DF8 00                    7268 	.db #0x00	; 0
      001DF9 03                    7269 	.db #0x03	; 3
      001DFA EA                    7270 	.db #0xea	; 234
      001DFB B7                    7271 	.db #0xb7	; 183
      001DFC 14                    7272 	.db #0x14	; 20
      001DFD 1C                    7273 	.db #0x1c	; 28
      001DFE 0C                    7274 	.db #0x0c	; 12
      001DFF 0C                    7275 	.db #0x0c	; 12
      001E00 08                    7276 	.db #0x08	; 8
      001E01 08                    7277 	.db #0x08	; 8
      001E02 03                    7278 	.db #0x03	; 3
      001E03 00                    7279 	.db #0x00	; 0
      001E04 FD                    7280 	.db #0xfd	; 253
      001E05 27                    7281 	.db #0x27	; 39
      001E06 02                    7282 	.db #0x02	; 2
      001E07 02                    7283 	.db #0x02	; 2
      001E08 02                    7284 	.db #0x02	; 2
      001E09 00                    7285 	.db #0x00	; 0
      001E0A 00                    7286 	.db #0x00	; 0
      001E0B 03                    7287 	.db #0x03	; 3
      001E0C 00                    7288 	.db #0x00	; 0
      001E0D EE                    7289 	.db #0xee	; 238
      001E0E 11                    7290 	.db #0x11	; 17
      001E0F 00                    7291 	.db #0x00	; 0
      001E10 00                    7292 	.db #0x00	; 0
      001E11 00                    7293 	.db #0x00	; 0
      001E12 00                    7294 	.db #0x00	; 0
      001E13 00                    7295 	.db #0x00	; 0
      001E14                       7296 _enemies_2_1_tiles:
      001E14 09                    7297 	.db #0x09	; 9
      001E15 18                    7298 	.db #0x18	; 24
      001E16 18                    7299 	.db #0x18	; 24
      001E17 18                    7300 	.db #0x18	; 24
      001E18 18                    7301 	.db #0x18	; 24
      001E19 18                    7302 	.db #0x18	; 24
      001E1A 18                    7303 	.db #0x18	; 24
      001E1B 18                    7304 	.db #0x18	; 24
      001E1C 18                    7305 	.db #0x18	; 24
      001E1D 18                    7306 	.db #0x18	; 24
      001E1E 18                    7307 	.db #0x18	; 24
      001E1F 18                    7308 	.db #0x18	; 24
      001E20 18                    7309 	.db #0x18	; 24
      001E21 18                    7310 	.db #0x18	; 24
      001E22 18                    7311 	.db #0x18	; 24
      001E23 18                    7312 	.db #0x18	; 24
      001E24 18                    7313 	.db #0x18	; 24
      001E25 00                    7314 	.db #0x00	; 0
      001E26 00                    7315 	.db #0x00	; 0
      001E27 1C                    7316 	.db #0x1c	; 28
      001E28 1C                    7317 	.db #0x1c	; 28
      001E29 3E                    7318 	.db #0x3e	; 62
      001E2A 2A                    7319 	.db #0x2a	; 42
      001E2B 3E                    7320 	.db #0x3e	; 62
      001E2C 36                    7321 	.db #0x36	; 54	'6'
      001E2D 3E                    7322 	.db #0x3e	; 62
      001E2E 2A                    7323 	.db #0x2a	; 42
      001E2F 1C                    7324 	.db #0x1c	; 28
      001E30 1C                    7325 	.db #0x1c	; 28
      001E31 7F                    7326 	.db #0x7f	; 127
      001E32 7F                    7327 	.db #0x7f	; 127
      001E33 FF                    7328 	.db #0xff	; 255
      001E34 FF                    7329 	.db #0xff	; 255
      001E35 03                    7330 	.db #0x03	; 3
      001E36 03                    7331 	.db #0x03	; 3
      001E37 07                    7332 	.db #0x07	; 7
      001E38 06                    7333 	.db #0x06	; 6
      001E39 4F                    7334 	.db #0x4f	; 79	'O'
      001E3A 4A                    7335 	.db #0x4a	; 74	'J'
      001E3B EF                    7336 	.db #0xef	; 239
      001E3C EF                    7337 	.db #0xef	; 239
      001E3D EF                    7338 	.db #0xef	; 239
      001E3E AD                    7339 	.db #0xad	; 173
      001E3F FF                    7340 	.db #0xff	; 255
      001E40 B6                    7341 	.db #0xb6	; 182
      001E41 FF                    7342 	.db #0xff	; 255
      001E42 FF                    7343 	.db #0xff	; 255
      001E43 FF                    7344 	.db #0xff	; 255
      001E44 FF                    7345 	.db #0xff	; 255
      001E45 C0                    7346 	.db #0xc0	; 192
      001E46 C0                    7347 	.db #0xc0	; 192
      001E47 E0                    7348 	.db #0xe0	; 224
      001E48 60                    7349 	.db #0x60	; 96
      001E49 F2                    7350 	.db #0xf2	; 242
      001E4A 52                    7351 	.db #0x52	; 82	'R'
      001E4B F7                    7352 	.db #0xf7	; 247
      001E4C F7                    7353 	.db #0xf7	; 247
      001E4D F7                    7354 	.db #0xf7	; 247
      001E4E B5                    7355 	.db #0xb5	; 181
      001E4F FF                    7356 	.db #0xff	; 255
      001E50 6D                    7357 	.db #0x6d	; 109	'm'
      001E51 FF                    7358 	.db #0xff	; 255
      001E52 FF                    7359 	.db #0xff	; 255
      001E53 FF                    7360 	.db #0xff	; 255
      001E54 FF                    7361 	.db #0xff	; 255
      001E55 00                    7362 	.db #0x00	; 0
      001E56 00                    7363 	.db #0x00	; 0
      001E57 38                    7364 	.db #0x38	; 56	'8'
      001E58 38                    7365 	.db #0x38	; 56	'8'
      001E59 7C                    7366 	.db #0x7c	; 124
      001E5A 54                    7367 	.db #0x54	; 84	'T'
      001E5B 7C                    7368 	.db #0x7c	; 124
      001E5C 6C                    7369 	.db #0x6c	; 108	'l'
      001E5D 7C                    7370 	.db #0x7c	; 124
      001E5E 54                    7371 	.db #0x54	; 84	'T'
      001E5F 38                    7372 	.db #0x38	; 56	'8'
      001E60 38                    7373 	.db #0x38	; 56	'8'
      001E61 FE                    7374 	.db #0xfe	; 254
      001E62 FE                    7375 	.db #0xfe	; 254
      001E63 FF                    7376 	.db #0xff	; 255
      001E64 FF                    7377 	.db #0xff	; 255
      001E65 1F                    7378 	.db #0x1f	; 31
      001E66 1F                    7379 	.db #0x1f	; 31
      001E67 00                    7380 	.db #0x00	; 0
      001E68 00                    7381 	.db #0x00	; 0
      001E69 FF                    7382 	.db #0xff	; 255
      001E6A FF                    7383 	.db #0xff	; 255
      001E6B FF                    7384 	.db #0xff	; 255
      001E6C BD                    7385 	.db #0xbd	; 189
      001E6D FE                    7386 	.db #0xfe	; 254
      001E6E C6                    7387 	.db #0xc6	; 198
      001E6F FE                    7388 	.db #0xfe	; 254
      001E70 D6                    7389 	.db #0xd6	; 214
      001E71 7C                    7390 	.db #0x7c	; 124
      001E72 7C                    7391 	.db #0x7c	; 124
      001E73 38                    7392 	.db #0x38	; 56	'8'
      001E74 38                    7393 	.db #0x38	; 56	'8'
      001E75 CF                    7394 	.db #0xcf	; 207
      001E76 CF                    7395 	.db #0xcf	; 207
      001E77 00                    7396 	.db #0x00	; 0
      001E78 00                    7397 	.db #0x00	; 0
      001E79 FF                    7398 	.db #0xff	; 255
      001E7A FF                    7399 	.db #0xff	; 255
      001E7B FF                    7400 	.db #0xff	; 255
      001E7C FF                    7401 	.db #0xff	; 255
      001E7D 00                    7402 	.db #0x00	; 0
      001E7E 00                    7403 	.db #0x00	; 0
      001E7F 00                    7404 	.db #0x00	; 0
      001E80 00                    7405 	.db #0x00	; 0
      001E81 00                    7406 	.db #0x00	; 0
      001E82 00                    7407 	.db #0x00	; 0
      001E83 00                    7408 	.db #0x00	; 0
      001E84 00                    7409 	.db #0x00	; 0
      001E85 E7                    7410 	.db #0xe7	; 231
      001E86 E7                    7411 	.db #0xe7	; 231
      001E87 00                    7412 	.db #0x00	; 0
      001E88 00                    7413 	.db #0x00	; 0
      001E89 FF                    7414 	.db #0xff	; 255
      001E8A FF                    7415 	.db #0xff	; 255
      001E8B FF                    7416 	.db #0xff	; 255
      001E8C FF                    7417 	.db #0xff	; 255
      001E8D 00                    7418 	.db #0x00	; 0
      001E8E 00                    7419 	.db #0x00	; 0
      001E8F 00                    7420 	.db #0x00	; 0
      001E90 00                    7421 	.db #0x00	; 0
      001E91 00                    7422 	.db #0x00	; 0
      001E92 00                    7423 	.db #0x00	; 0
      001E93 00                    7424 	.db #0x00	; 0
      001E94 00                    7425 	.db #0x00	; 0
      001E95 F0                    7426 	.db #0xf0	; 240
      001E96 F0                    7427 	.db #0xf0	; 240
      001E97 00                    7428 	.db #0x00	; 0
      001E98 00                    7429 	.db #0x00	; 0
      001E99 FE                    7430 	.db #0xfe	; 254
      001E9A FE                    7431 	.db #0xfe	; 254
      001E9B FF                    7432 	.db #0xff	; 255
      001E9C BD                    7433 	.db #0xbd	; 189
      001E9D FF                    7434 	.db #0xff	; 255
      001E9E C7                    7435 	.db #0xc7	; 199
      001E9F FE                    7436 	.db #0xfe	; 254
      001EA0 D6                    7437 	.db #0xd6	; 214
      001EA1 7C                    7438 	.db #0x7c	; 124
      001EA2 7C                    7439 	.db #0x7c	; 124
      001EA3 38                    7440 	.db #0x38	; 56	'8'
      001EA4 38                    7441 	.db #0x38	; 56	'8'
                                   7442 	.area _INITIALIZER
      000000                       7443 __xinit__bite_timer:
      000000 00                    7444 	.db #0x00	; 0
      000001                       7445 __xinit__bat_phase:
      000001 00                    7446 	.db #0x00	; 0
      000002                       7447 __xinit__bat1_pos_x:
      000002 10 00                 7448 	.dw #0x0010
      000004                       7449 __xinit__bat1_dir:
      000004 01 00                 7450 	.dw #0x0001
      000006                       7451 __xinit__bat2_pos_x:
      000006 20 00                 7452 	.dw #0x0020
      000008                       7453 __xinit__bat2_dir:
      000008 01 00                 7454 	.dw #0x0001
      00000A                       7455 __xinit__flame_timer:
      00000A 00                    7456 	.db #0x00	; 0
      00000B                       7457 __xinit__flame1_phase:
      00000B 00                    7458 	.db #0x00	; 0
      00000C                       7459 __xinit__flame2_phase:
      00000C 03                    7460 	.db #0x03	; 3
                                   7461 	.area _CABS (ABS)
